
nios_1.elf:     file format elf32-littlenios2
nios_1.elf
architecture: nios2:r1, flags 0x00000112:
EXEC_P, HAS_SYMS, D_PAGED
start address 0x02000000

Program Header:
    LOAD off    0x00001000 vaddr 0x02000000 paddr 0x02000000 align 2**12
         filesz 0x00011c00 memsz 0x00011c00 flags rwx
    LOAD off    0x00013bf8 vaddr 0x02011bf8 paddr 0x020138a8 align 2**12
         filesz 0x00001cb0 memsz 0x00001cb0 flags rw-
    LOAD off    0x00016558 vaddr 0x02015558 paddr 0x02015558 align 2**12
         filesz 0x00000000 memsz 0x00000160 flags rw-
    LOAD off    0x00016000 vaddr 0x04008000 paddr 0x04008000 align 2**12
         filesz 0x00000020 memsz 0x00000020 flags r-x
    LOAD off    0x00016100 vaddr 0x04008100 paddr 0x04008100 align 2**12
         filesz 0x00000210 memsz 0x00000210 flags r-x

Sections:
Idx Name          Size      VMA       LMA       File off  Algn
  0 .entry        00000020  04008000  04008000  00016000  2**5
                  CONTENTS, ALLOC, LOAD, READONLY, CODE
  1 .exceptions   00000210  04008100  04008100  00016100  2**2
                  CONTENTS, ALLOC, LOAD, READONLY, CODE
  2 .text         000118ac  02000000  02000000  00001000  2**2
                  CONTENTS, ALLOC, LOAD, READONLY, CODE
  3 .rodata       0000034c  020118ac  020118ac  000128ac  2**2
                  CONTENTS, ALLOC, LOAD, READONLY, DATA
  4 TempMemory    00000004  02011bf8  02011bf8  00012bf8  2**2
                  CONTENTS, ALLOC, LOAD, DATA
  5 PressureMemory 00000004  02011bfc  02011bfc  00012bfc  2**2
                  CONTENTS, ALLOC, LOAD, DATA
  6 .rwdata       00001cb0  02011bf8  020138a8  00013bf8  2**2
                  CONTENTS, ALLOC, LOAD, DATA, SMALL_DATA
  7 .bss          00000160  02015558  02015558  00016558  2**2
                  ALLOC, SMALL_DATA
  8 .sdram        00000000  020156b8  020156b8  00016310  2**0
                  CONTENTS
  9 .onchip_1     00000000  04008310  04008310  00016310  2**0
                  CONTENTS
 10 .flash        00000000  04011000  04011000  00016310  2**0
                  CONTENTS
 11 .comment      00000023  00000000  00000000  00016310  2**0
                  CONTENTS, READONLY
 12 .debug_aranges 00001010  00000000  00000000  00016338  2**3
                  CONTENTS, READONLY, DEBUGGING
 13 .debug_info   00025b9b  00000000  00000000  00017348  2**0
                  CONTENTS, READONLY, DEBUGGING
 14 .debug_abbrev 00009c07  00000000  00000000  0003cee3  2**0
                  CONTENTS, READONLY, DEBUGGING
 15 .debug_line   0000c0fb  00000000  00000000  00046aea  2**0
                  CONTENTS, READONLY, DEBUGGING
 16 .debug_frame  00002704  00000000  00000000  00052be8  2**2
                  CONTENTS, READONLY, DEBUGGING
 17 .debug_str    0000413f  00000000  00000000  000552ec  2**0
                  CONTENTS, READONLY, DEBUGGING
 18 .debug_loc    00017e0b  00000000  00000000  0005942b  2**0
                  CONTENTS, READONLY, DEBUGGING
 19 .debug_alt_sim_info 00000040  00000000  00000000  00071238  2**2
                  CONTENTS, READONLY, DEBUGGING
 20 .debug_ranges 00001968  00000000  00000000  00071278  2**3
                  CONTENTS, READONLY, DEBUGGING
 21 .thread_model 00000003  00000000  00000000  00076592  2**0
                  CONTENTS, READONLY
 22 .cpu          00000006  00000000  00000000  00076595  2**0
                  CONTENTS, READONLY
 23 .qsys         00000001  00000000  00000000  0007659b  2**0
                  CONTENTS, READONLY
 24 .simulation_enabled 00000001  00000000  00000000  0007659c  2**0
                  CONTENTS, READONLY
 25 .sysid_hash   00000004  00000000  00000000  0007659d  2**0
                  CONTENTS, READONLY
 26 .sysid_base   00000004  00000000  00000000  000765a1  2**0
                  CONTENTS, READONLY
 27 .sysid_time   00000004  00000000  00000000  000765a5  2**0
                  CONTENTS, READONLY
 28 .stderr_dev   0000000b  00000000  00000000  000765a9  2**0
                  CONTENTS, READONLY
 29 .stdin_dev    0000000b  00000000  00000000  000765b4  2**0
                  CONTENTS, READONLY
 30 .stdout_dev   0000000b  00000000  00000000  000765bf  2**0
                  CONTENTS, READONLY
 31 .sopc_system_name 00000005  00000000  00000000  000765ca  2**0
                  CONTENTS, READONLY
 32 .quartus_project_dir 00000024  00000000  00000000  000765cf  2**0
                  CONTENTS, READONLY
 33 .jdi          00007c1c  00000000  00000000  000765f3  2**0
                  CONTENTS, READONLY
 34 .sopcinfo     00092417  00000000  00000000  0007e20f  2**0
                  CONTENTS, READONLY
SYMBOL TABLE:
04008000 l    d  .entry	00000000 .entry
04008100 l    d  .exceptions	00000000 .exceptions
02000000 l    d  .text	00000000 .text
020118ac l    d  .rodata	00000000 .rodata
02011bf8 l    d  TempMemory	00000000 TempMemory
02011bfc l    d  PressureMemory	00000000 PressureMemory
02011bf8 l    d  .rwdata	00000000 .rwdata
02015558 l    d  .bss	00000000 .bss
020156b8 l    d  .sdram	00000000 .sdram
04008310 l    d  .onchip_1	00000000 .onchip_1
04011000 l    d  .flash	00000000 .flash
00000000 l    d  .comment	00000000 .comment
00000000 l    d  .debug_aranges	00000000 .debug_aranges
00000000 l    d  .debug_info	00000000 .debug_info
00000000 l    d  .debug_abbrev	00000000 .debug_abbrev
00000000 l    d  .debug_line	00000000 .debug_line
00000000 l    d  .debug_frame	00000000 .debug_frame
00000000 l    d  .debug_str	00000000 .debug_str
00000000 l    d  .debug_loc	00000000 .debug_loc
00000000 l    d  .debug_alt_sim_info	00000000 .debug_alt_sim_info
00000000 l    d  .debug_ranges	00000000 .debug_ranges
00000000 l    df *ABS*	00000000 ../nios_1_bsp//obj/HAL/src/crt0.o
02000038 l       .text	00000000 alt_after_alt_main
00000000 l    df *ABS*	00000000 alt_irq_handler.c
00000000 l    df *ABS*	00000000 alt_instruction_exception_entry.c
00000000 l    df *ABS*	00000000 main.c
00000000 l    df *ABS*	00000000 eqsf2.c
00000000 l    df *ABS*	00000000 adddf3.c
00000000 l    df *ABS*	00000000 muldf3.c
00000000 l    df *ABS*	00000000 floatsidf.c
00000000 l    df *ABS*	00000000 extendsfdf2.c
00000000 l    df *ABS*	00000000 truncdfsf2.c
00000000 l    df *ABS*	00000000 libgcc2.c
00000000 l    df *ABS*	00000000 lib2-mul.c
00000000 l    df *ABS*	00000000 libgcc2.c
00000000 l    df *ABS*	00000000 fprintf.c
00000000 l    df *ABS*	00000000 impure.c
02011bf8 l     O .rwdata	00000424 impure_data
00000000 l    df *ABS*	00000000 vfprintf.c
02011a1e l     O .rodata	00000010 zeroes.4404
02003b00 l     F .text	000000bc __sbprintf
02011a2e l     O .rodata	00000010 blanks.4403
00000000 l    df *ABS*	00000000 wsetup.c
00000000 l    df *ABS*	00000000 dtoa.c
02003d10 l     F .text	00000228 quorem
00000000 l    df *ABS*	00000000 fflush.c
00000000 l    df *ABS*	00000000 findfp.c
02005868 l     F .text	00000008 __fp_unlock
0200587c l     F .text	0000019c __sinit.part.1
02005a18 l     F .text	00000008 __fp_lock
00000000 l    df *ABS*	00000000 mallocr.c
00000000 l    df *ABS*	00000000 fwalk.c
00000000 l    df *ABS*	00000000 locale.c
0201203c l     O .rwdata	00000020 lc_ctype_charset
0201201c l     O .rwdata	00000020 lc_message_charset
0201205c l     O .rwdata	00000038 lconv
00000000 l    df *ABS*	00000000 makebuf.c
00000000 l    df *ABS*	00000000 mallocr.c
00000000 l    df *ABS*	00000000 memchr.c
00000000 l    df *ABS*	00000000 memcpy.c
00000000 l    df *ABS*	00000000 memset.c
00000000 l    df *ABS*	00000000 mprec.c
02011a5c l     O .rodata	0000000c p05.2768
00000000 l    df *ABS*	00000000 s_fpclassify.c
00000000 l    df *ABS*	00000000 sbrkr.c
00000000 l    df *ABS*	00000000 stdio.c
00000000 l    df *ABS*	00000000 strcmp.c
00000000 l    df *ABS*	00000000 strlen.c
00000000 l    df *ABS*	00000000 vfprintf.c
020083fc l     F .text	000000fc __sprint_r.part.0
02011b80 l     O .rodata	00000010 zeroes.4349
02009a38 l     F .text	000000bc __sbprintf
02011b90 l     O .rodata	00000010 blanks.4348
00000000 l    df *ABS*	00000000 writer.c
00000000 l    df *ABS*	00000000 closer.c
00000000 l    df *ABS*	00000000 mallocr.c
00000000 l    df *ABS*	00000000 fclose.c
00000000 l    df *ABS*	00000000 fputwc.c
00000000 l    df *ABS*	00000000 fstatr.c
00000000 l    df *ABS*	00000000 fvwrite.c
00000000 l    df *ABS*	00000000 int_errno.c
00000000 l    df *ABS*	00000000 isattyr.c
00000000 l    df *ABS*	00000000 lseekr.c
00000000 l    df *ABS*	00000000 memmove.c
00000000 l    df *ABS*	00000000 readr.c
00000000 l    df *ABS*	00000000 mallocr.c
00000000 l    df *ABS*	00000000 wbuf.c
00000000 l    df *ABS*	00000000 wcrtomb.c
00000000 l    df *ABS*	00000000 wctomb_r.c
00000000 l    df *ABS*	00000000 libgcc2.c
00000000 l    df *ABS*	00000000 libgcc2.c
00000000 l    df *ABS*	00000000 lib2-divmod.c
00000000 l    df *ABS*	00000000 divdf3.c
00000000 l    df *ABS*	00000000 eqdf2.c
00000000 l    df *ABS*	00000000 gedf2.c
00000000 l    df *ABS*	00000000 ledf2.c
00000000 l    df *ABS*	00000000 subdf3.c
00000000 l    df *ABS*	00000000 fixdfsi.c
00000000 l    df *ABS*	00000000 floatunsidf.c
00000000 l    df *ABS*	00000000 alt_close.c
0200d388 l     F .text	0000003c alt_get_errno
00000000 l    df *ABS*	00000000 alt_dev.c
0200d49c l     F .text	0000002c alt_dev_null_write
00000000 l    df *ABS*	00000000 alt_errno.c
00000000 l    df *ABS*	00000000 alt_fstat.c
0200d4c8 l     F .text	0000003c alt_get_errno
00000000 l    df *ABS*	00000000 alt_isatty.c
0200d5bc l     F .text	0000003c alt_get_errno
00000000 l    df *ABS*	00000000 alt_load.c
0200d6a4 l     F .text	00000068 alt_load_section
00000000 l    df *ABS*	00000000 alt_lseek.c
0200d790 l     F .text	0000003c alt_get_errno
00000000 l    df *ABS*	00000000 alt_main.c
00000000 l    df *ABS*	00000000 alt_malloc_lock.c
00000000 l    df *ABS*	00000000 alt_read.c
0200d96c l     F .text	0000003c alt_get_errno
00000000 l    df *ABS*	00000000 alt_release_fd.c
00000000 l    df *ABS*	00000000 alt_sbrk.c
02013890 l     O .rwdata	00000004 heap_end
00000000 l    df *ABS*	00000000 alt_usleep.c
00000000 l    df *ABS*	00000000 alt_write.c
0200dc10 l     F .text	0000003c alt_get_errno
00000000 l    df *ABS*	00000000 alt_sys_init.c
0200dd4c l     F .text	00000034 alt_dev_reg
02012644 l     O .rwdata	000000cc flash
02012710 l     O .rwdata	00001060 jtag_uart_0
02013770 l     O .rwdata	000000c4 uart
02013834 l     O .rwdata	0000002c adc
00000000 l    df *ABS*	00000000 altera_avalon_epcs_flash_controller.c
0200de40 l     F .text	00000034 alt_flash_device_register
0200dec8 l     F .text	000003f8 alt_epcs_flash_query
0200e2c0 l     F .text	000000ec alt_epcs_flash_memcmp
0200e698 l     F .text	00000094 alt_epcs_test_address
00000000 l    df *ABS*	00000000 altera_avalon_jtag_uart_fd.c
00000000 l    df *ABS*	00000000 altera_avalon_jtag_uart_init.c
0200eb60 l     F .text	0000020c altera_avalon_jtag_uart_irq
0200ed6c l     F .text	000000a0 altera_avalon_jtag_uart_timeout
00000000 l    df *ABS*	00000000 altera_avalon_jtag_uart_ioctl.c
00000000 l    df *ABS*	00000000 altera_avalon_jtag_uart_read.c
00000000 l    df *ABS*	00000000 altera_avalon_jtag_uart_write.c
00000000 l    df *ABS*	00000000 altera_avalon_uart_fd.c
00000000 l    df *ABS*	00000000 altera_avalon_uart_init.c
0200f560 l     F .text	0000009c altera_avalon_uart_irq
0200f5fc l     F .text	000000e4 altera_avalon_uart_rxirq
0200f6e0 l     F .text	00000148 altera_avalon_uart_txirq
00000000 l    df *ABS*	00000000 altera_avalon_uart_read.c
0200f87c l     F .text	0000003c alt_get_errno
00000000 l    df *ABS*	00000000 altera_avalon_uart_write.c
0200fa94 l     F .text	0000003c alt_get_errno
00000000 l    df *ABS*	00000000 epcs_commands.c
0200fcd8 l     F .text	00000038 epcs_test_wip
0200fd10 l     F .text	0000003c epcs_await_wip_released
00000000 l    df *ABS*	00000000 alt_alarm_start.c
00000000 l    df *ABS*	00000000 alt_busy_sleep.c
00000000 l    df *ABS*	00000000 alt_dcache_flush_all.c
00000000 l    df *ABS*	00000000 alt_dev_llist_insert.c
0201055c l     F .text	0000003c alt_get_errno
00000000 l    df *ABS*	00000000 alt_do_ctors.c
00000000 l    df *ABS*	00000000 alt_do_dtors.c
00000000 l    df *ABS*	00000000 alt_flash_dev.c
00000000 l    df *ABS*	00000000 alt_icache_flush_all.c
00000000 l    df *ABS*	00000000 alt_iic.c
00000000 l    df *ABS*	00000000 alt_iic_isr_register.c
00000000 l    df *ABS*	00000000 alt_io_redirect.c
02010a78 l     F .text	000000e4 alt_open_fd
00000000 l    df *ABS*	00000000 alt_irq_vars.c
00000000 l    df *ABS*	00000000 alt_open.c
02010bd8 l     F .text	0000003c alt_get_errno
02010c14 l     F .text	000000ec alt_file_locked
00000000 l    df *ABS*	00000000 alt_tick.c
00000000 l    df *ABS*	00000000 altera_nios2_gen2_irq.c
00000000 l    df *ABS*	00000000 altera_avalon_spi.c
00000000 l    df *ABS*	00000000 alt_find_dev.c
00000000 l    df *ABS*	00000000 alt_find_file.c
00000000 l    df *ABS*	00000000 alt_get_fd.c
00000000 l    df *ABS*	00000000 atexit.c
00000000 l    df *ABS*	00000000 exit.c
00000000 l    df *ABS*	00000000 memcmp.c
00000000 l    df *ABS*	00000000 __atexit.c
00000000 l    df *ABS*	00000000 __call_atexit.c
00000000 l    df *ABS*	00000000 alt_exit.c
0201558c g     O .bss	00000004 alt_instruction_exception_handler
02007f0c g     F .text	00000074 _mprec_log10
0200e60c g     F .text	0000008c alt_epcs_flash_get_info
02007ff8 g     F .text	0000008c __any_on
0200a4b4 g     F .text	00000054 _isatty_r
02011a68 g     O .rodata	00000028 __mprec_tinytens
0200d8a8 g     F .text	0000007c alt_main
020155b8 g     O .bss	00000100 alt_irq
0200a508 g     F .text	00000060 _lseek_r
020138a8 g       *ABS*	00000000 __flash_rwdata_start
0200c70c g     F .text	00000088 .hidden __eqdf2
04008000 g       *ABS*	00000000 __alt_mem_onchip_1
020156b8 g       *ABS*	00000000 __alt_heap_start
0200ade0 g     F .text	0000009c _wcrtomb_r
02008224 g     F .text	0000005c __sseek
02005bc8 g     F .text	00000010 __sinit
0200ac88 g     F .text	00000140 __swbuf_r
020061d4 g     F .text	0000007c _setlocale_r
02005a20 g     F .text	00000078 __sfmoreglue
04011000 g       *ABS*	00000000 __alt_mem_flash
0200d948 g     F .text	00000024 __malloc_unlock
0200a568 g     F .text	0000015c memmove
02005bb0 g     F .text	00000018 _cleanup
02006fcc g     F .text	000000a8 _Balloc
0200c794 g     F .text	000000dc .hidden __gtdf2
02011000 g     F .text	00000024 altera_nios2_gen2_irq_init
0200fd4c g     F .text	000000fc epcs_sector_erase
04008000 g     F .entry	0000000c __reset
04008100 g       *ABS*	00000000 __flash_exceptions_start
02009f90 g     F .text	0000005c _fstat_r
02015570 g     O .bss	00000004 errno
020081a0 g     F .text	00000008 __seofread
02015578 g     O .bss	00000004 alt_argv
0201b860 g       *ABS*	00000000 _gp
0200dbe0 g     F .text	00000030 usleep
020124c4 g     O .rwdata	00000180 alt_fd_list
0200ff90 g     F .text	0000006c epcs_write_status_register
02011220 g     F .text	00000090 alt_find_dev
02006d5c g     F .text	00000148 memcpy
02005870 g     F .text	0000000c _cleanup_r
0200139c g     F .text	000000dc .hidden __floatsidf
02010b5c g     F .text	0000007c alt_io_redirect
0200c870 g     F .text	000000f4 .hidden __ltdf2
020118ac g       *ABS*	00000000 __DTOR_END__
0201147c g     F .text	0000009c alt_exception_cause_generated_bad_addr
0200e7a4 g     F .text	00000100 alt_epcs_flash_write_block
02008084 g     F .text	00000074 __fpclassifyd
02007e68 g     F .text	000000a4 __ratio
02009a1c g     F .text	0000001c __vfiprintf_internal
0200ef64 g     F .text	0000021c altera_avalon_jtag_uart_read
0200bc80 g     F .text	00000064 .hidden __udivsi3
0200d5f8 g     F .text	000000ac isatty
02011ab8 g     O .rodata	000000c8 __mprec_tens
02006250 g     F .text	0000000c __locale_charset
0201556c g     O .bss	00000004 __malloc_top_pad
02013868 g     O .rwdata	00000004 __mb_cur_max
02006280 g     F .text	0000000c _localeconv_r
02009fec g     F .text	000004c8 __sfvwrite_r
02007400 g     F .text	0000003c __i2b
020080f8 g     F .text	00000054 _sbrk_r
0200a6c4 g     F .text	00000060 _read_r
02013888 g     O .rwdata	00000004 alt_max_fd
02009c84 g     F .text	000000f0 _fclose_r
02005838 g     F .text	00000030 fflush
02015568 g     O .bss	00000004 __malloc_max_sbrked_mem
02001478 g     F .text	00000110 .hidden __extendsfdf2
02011bf8 g     O TempMemory	00000004 temp
02000284 g     F .text	000008ac .hidden __adddf3
0200020c g     F .text	00000078 .hidden __nesf2
0200e72c g     F .text	00000078 alt_epcs_flash_erase_block
02007c10 g     F .text	0000010c __b2d
0200b5c4 g     F .text	000005c4 .hidden __umoddi3
0200d7cc g     F .text	000000dc lseek
02013860 g     O .rwdata	00000004 _global_impure_ptr
0201025c g     F .text	0000005c epcs_exit_4_bytes_mode
0200a724 g     F .text	00000564 _realloc_r
020156b8 g       *ABS*	00000000 __bss_end
02010988 g     F .text	000000f0 alt_iic_isr_register
02010ef8 g     F .text	00000108 alt_tick
0200afc8 g     F .text	000005fc .hidden __udivdi3
02009eec g     F .text	00000024 _fputwc_r
02011a90 g     O .rodata	00000028 __mprec_bigtens
020071e4 g     F .text	00000104 __s2b
0200d2e0 g     F .text	000000a8 .hidden __floatunsidf
02007950 g     F .text	00000060 __mcmp
0200f4b4 g     F .text	000000ac altera_avalon_uart_init
02005be8 g     F .text	00000018 __fp_lock_all
0201093c g     F .text	0000004c alt_ic_irq_enabled
02010e5c g     F .text	0000009c alt_alarm_stop
02015580 g     O .bss	00000004 alt_irq_active
040081dc g     F .exceptions	000000d4 alt_irq_handler
0201249c g     O .rwdata	00000028 alt_dev_null
0201053c g     F .text	00000020 alt_dcache_flush_all
020072e8 g     F .text	00000068 __hi0bits
0200d260 g     F .text	00000080 .hidden __fixdfsi
02011bfc g     O PressureMemory	00000004 pressure
020138a8 g       *ABS*	00000000 __ram_rwdata_end
02013880 g     O .rwdata	00000008 alt_dev_list
0200dc4c g     F .text	00000100 write
02011bf8 g       *ABS*	00000000 __ram_rodata_end
0200d504 g     F .text	000000b8 fstat
020017e4 g     F .text	00000024 fprintf
0200c870 g     F .text	000000f4 .hidden __ledf2
020076c8 g     F .text	00000140 __pow5mult
02008510 g     F .text	0000150c ___vfiprintf_internal_r
02015560 g     O .bss	00000004 __nlocale_changed
0200bce4 g     F .text	00000058 .hidden __umodsi3
02010118 g     F .text	00000068 epcs_read_electronic_signature
020156b8 g       *ABS*	00000000 end
0200fad0 g     F .text	000001ac altera_avalon_uart_write
0200eaa0 g     F .text	000000c0 altera_avalon_jtag_uart_init
040082b0 g     F .exceptions	00000060 alt_instruction_exception_entry
020118ac g       *ABS*	00000000 __CTOR_LIST__
04000000 g       *ABS*	00000000 __alt_stack_pointer
0200f404 g     F .text	00000060 altera_avalon_uart_write_fd
02001730 g     F .text	00000064 .hidden __clzsi2
0200f464 g     F .text	00000050 altera_avalon_uart_close_fd
0200f180 g     F .text	00000224 altera_avalon_jtag_uart_write
02005bd8 g     F .text	00000004 __sfp_lock_acquire
02006c78 g     F .text	000000e4 memchr
02001808 g     F .text	000022dc ___vfprintf_internal_r
02005d3c g     F .text	00000310 _free_r
0200625c g     F .text	00000010 __locale_mb_cur_max
020116f8 g     F .text	00000180 __call_exitprocs
0201555c g     O .bss	00000004 __mlocale_changed
0201386c g     O .rwdata	00000004 __malloc_sbrk_base
02000000 g     F .text	0000003c _start
02015584 g     O .bss	00000004 _alt_tick_rate
02007808 g     F .text	00000148 __lshift
02011024 g     F .text	000001fc alt_avalon_spi_command
02015588 g     O .bss	00000004 _alt_nticks
0200d9a8 g     F .text	00000104 read
0200ddb8 g     F .text	00000088 alt_sys_init
020115e0 g     F .text	00000118 __register_exitproc
0200743c g     F .text	0000028c __multiply
0200ee0c g     F .text	00000068 altera_avalon_jtag_uart_close
02001794 g     F .text	00000028 .hidden __mulsi3
02011bf8 g       *ABS*	00000000 __ram_rwdata_start
020118ac g       *ABS*	00000000 __ram_rodata_start
02015590 g     O .bss	00000028 __malloc_current_mallinfo
0200020c g     F .text	00000078 .hidden __eqsf2
02007d1c g     F .text	0000014c __d2b
0200fc7c g     F .text	0000005c epcs_read_status_register
0200e93c g     F .text	00000060 altera_avalon_jtag_uart_read_fd
020113b8 g     F .text	000000c4 alt_get_fd
020103e4 g     F .text	00000158 alt_busy_sleep
02009b54 g     F .text	00000054 _close_r
02010180 g     F .text	00000080 epcs_read_device_id
02011564 g     F .text	0000007c memcmp
0200e9fc g     F .text	00000050 altera_avalon_jtag_uart_close_fd
020156b8 g       *ABS*	00000000 __alt_stack_base
0200ea4c g     F .text	00000054 altera_avalon_jtag_uart_ioctl_fd
02003bbc g     F .text	00000154 __swsetup_r
0200bd3c g     F .text	000009d0 .hidden __divdf3
02005a98 g     F .text	00000118 __sfp
02007f80 g     F .text	00000078 __copybits
02012094 g     O .rwdata	00000408 __malloc_av_
02005be4 g     F .text	00000004 __sinit_lock_release
02000b30 g     F .text	0000086c .hidden __muldf3
0200814c g     F .text	00000054 __sread
020112b0 g     F .text	00000108 alt_find_file
02010598 g     F .text	000000a4 alt_dev_llist_insert
0200d924 g     F .text	00000024 __malloc_lock
020017bc g     F .text	00000028 _fprintf_r
0200db30 g     F .text	000000b0 sbrk
020057dc g     F .text	0000005c _fflush_r
02009ba8 g     F .text	000000dc _calloc_r
02013894 g     O .rwdata	00000008 alt_flash_dev_list
02015558 g       *ABS*	00000000 __bss_start
02006ea4 g     F .text	00000128 memset
0200003c g     F .text	000001d0 main
0201557c g     O .bss	00000004 alt_envp
02015564 g     O .bss	00000004 __malloc_max_total_mem
0200e99c g     F .text	00000060 altera_avalon_jtag_uart_write_fd
0200adc8 g     F .text	00000018 __swbuf
02008280 g     F .text	00000008 __sclose
04000000 g       *ABS*	00000000 __alt_heap_limit
02009d74 g     F .text	00000014 fclose
02001588 g     F .text	000001a8 .hidden __truncdfsf2
02003f38 g     F .text	00001688 _dtoa_r
0200646c g     F .text	0000080c _malloc_r
0200af3c g     F .text	00000030 __ascii_wctomb
0201388c g     O .rwdata	00000004 alt_errno
0200604c g     F .text	000000c4 _fwalk
0200bb88 g     F .text	00000084 .hidden __divsi3
02005c18 g     F .text	00000124 _malloc_trim_r
020118ac g       *ABS*	00000000 __CTOR_END__
0200e3ac g     F .text	00000260 alt_epcs_flash_write
02008288 g     F .text	000000dc strcmp
020118ac g       *ABS*	00000000 __flash_rodata_start
020118ac g       *ABS*	00000000 __DTOR_LIST__
0200c70c g     F .text	00000088 .hidden __nedf2
0200dd80 g     F .text	00000038 alt_irq_init
0200daac g     F .text	00000084 alt_release_fd
020118d8 g     O .rodata	00000100 .hidden __clz_tab
02015558 g     O .bss	00000004 _PathLocale
02011518 g     F .text	00000014 atexit
02009af4 g     F .text	00000060 _write_r
0200628c g     F .text	00000018 setlocale
02013864 g     O .rwdata	00000004 _impure_ptr
02015574 g     O .bss	00000004 alt_argc
020055c0 g     F .text	0000021c __sflush_r
0201069c g     F .text	00000060 _do_dtors
02006278 g     F .text	00000008 __locale_cjk_lang
04008100 g       .exceptions	00000000 alt_irq_entry
02007bac g     F .text	00000064 __ulp
02005c00 g     F .text	00000018 __fp_unlock_all
02013878 g     O .rwdata	00000008 alt_fs_list
04008100 g       *ABS*	00000000 __ram_exceptions_start
020062a4 g     F .text	0000000c localeconv
0200fe48 g     F .text	000000f4 epcs_read_buffer
0200de74 g     F .text	00000054 alt_epcs_flash_init
020107d8 g     F .text	00000050 alt_ic_isr_register
020138a8 g       *ABS*	00000000 _edata
0200f3a4 g     F .text	00000060 altera_avalon_uart_read_fd
020156b8 g       *ABS*	00000000 _end
020106fc g     F .text	00000068 alt_flash_open_dev
02009d88 g     F .text	00000164 __fputwc
04008310 g       *ABS*	00000000 __ram_exceptions_end
0200ee74 g     F .text	000000f0 altera_avalon_jtag_uart_ioctl
020108b0 g     F .text	0000008c alt_ic_irq_disable
02010200 g     F .text	0000005c epcs_enter_4_bytes_mode
020081a8 g     F .text	0000007c __swrite
02013870 g     O .rwdata	00000004 __malloc_trim_threshold
0200626c g     F .text	0000000c __locale_msgcharset
0201152c g     F .text	00000038 exit
02006110 g     F .text	000000c4 _fwalk_reent
020079b0 g     F .text	000001fc __mdiff
02010764 g     F .text	00000054 alt_flash_close_dev
0200bc0c g     F .text	00000074 .hidden __modsi3
04000000 g       *ABS*	00000000 __alt_data_end
04008100 g     F .exceptions	00000000 alt_exception
02005bdc g     F .text	00000004 __sfp_lock_release
02000000 g       *ABS*	00000000 __alt_mem_sdram
0200f828 g     F .text	00000054 altera_avalon_uart_close
02011878 g     F .text	00000034 _exit
020102b8 g     F .text	0000012c alt_alarm_start
020062b0 g     F .text	000001bc __smakebuf_r
02008364 g     F .text	00000098 strlen
0200ff3c g     F .text	00000054 epcs_write_enable
02010d00 g     F .text	0000015c open
0200c794 g     F .text	000000dc .hidden __gedf2
02013874 g     O .rwdata	00000004 __wctomb
020084f8 g     F .text	00000018 __sprint_r
020107b8 g     F .text	00000020 alt_icache_flush_all
0201389c g     O .rwdata	00000004 alt_priority_mask
02010828 g     F .text	00000088 alt_ic_irq_enable
02003ae4 g     F .text	0000001c __vfprintf_internal
0200f8b8 g     F .text	000001dc altera_avalon_uart_read
0200af6c g     F .text	0000005c _wctomb_r
0200c964 g     F .text	000008fc .hidden __subdf3
0200e8a4 g     F .text	00000098 alt_epcs_flash_read
02007350 g     F .text	000000b0 __lo0bits
020138a0 g     O .rwdata	00000008 alt_alarm_list
0201063c g     F .text	00000060 _do_ctors
0200ae7c g     F .text	000000c0 wcrtomb
0200d3c4 g     F .text	000000d8 close
0200d70c g     F .text	00000084 alt_load
02009f10 g     F .text	00000080 fputwc
02005be0 g     F .text	00000004 __sinit_lock_acquire
0200fffc g     F .text	0000011c epcs_write_buffer
0200709c g     F .text	00000148 __multadd
02007074 g     F .text	00000028 _Bfree



Disassembly of section .entry:

04008000 <__reset>:
 * Jump to the _start entry point in the .text section if reset code
 * is allowed or if optimizing for RTL simulation.
 */
#if defined(ALT_ALLOW_CODE_AT_RESET) || defined(ALT_SIM_OPTIMIZE)
    /* Jump to the _start entry point in the .text section. */
    movhi r1, %hi(_start)
 4008000:	00408034 	movhi	at,512
    ori r1, r1, %lo(_start)
 4008004:	08400014 	ori	at,at,0
    jmp r1
 4008008:	0800683a 	jmp	at
	...

Disassembly of section .exceptions:

04008100 <alt_exception>:

#else /* ALT_EXCEPTION_STACK disabled */
        /* 
         * Reserve space on normal stack for registers about to be pushed.
         */
        addi  sp, sp, -76
 4008100:	deffed04 	addi	sp,sp,-76
         * documentation for details).
         *
         * Leave a gap in the stack frame at 4(sp) for the muldiv handler to
         * store zero into.
         */
        stw   ra,  0(sp)
 4008104:	dfc00015 	stw	ra,0(sp)
        stw   r1,   8(sp)
 4008108:	d8400215 	stw	at,8(sp)
        stw   r2,  12(sp)
 400810c:	d8800315 	stw	r2,12(sp)
        stw   r3,  16(sp)
 4008110:	d8c00415 	stw	r3,16(sp)
        stw   r4,  20(sp)
 4008114:	d9000515 	stw	r4,20(sp)
        stw   r5,  24(sp)
 4008118:	d9400615 	stw	r5,24(sp)
        stw   r6,  28(sp)
 400811c:	d9800715 	stw	r6,28(sp)
        stw   r7,  32(sp)
 4008120:	d9c00815 	stw	r7,32(sp)
        rdctl r5, estatus   /* Read early to avoid usage stall */
 4008124:	000b307a 	rdctl	r5,estatus
        stw   r8,  36(sp)
 4008128:	da000915 	stw	r8,36(sp)
        stw   r9,  40(sp)
 400812c:	da400a15 	stw	r9,40(sp)
        stw   r10, 44(sp)
 4008130:	da800b15 	stw	r10,44(sp)
        stw   r11, 48(sp)
 4008134:	dac00c15 	stw	r11,48(sp)
        stw   r12, 52(sp)
 4008138:	db000d15 	stw	r12,52(sp)
        stw   r13, 56(sp)
 400813c:	db400e15 	stw	r13,56(sp)
        stw   r14, 60(sp)
 4008140:	db800f15 	stw	r14,60(sp)
        stw   r15, 64(sp)
 4008144:	dbc01015 	stw	r15,64(sp)
        /*
         * ea-4 contains the address of the instruction being executed
         * when the exception occured. For interrupt exceptions, we will
         * will be re-issue the isntruction. Store it in 72(sp)
         */
        stw   r5,  68(sp)  /* estatus */
 4008148:	d9401115 	stw	r5,68(sp)
        addi  r15, ea, -4  /* instruction that caused exception */
 400814c:	ebffff04 	addi	r15,ea,-4
        stw   r15,  72(sp)
 4008150:	dbc01215 	stw	r15,72(sp)
#else
        /*
         * Test to see if the exception was a software exception or caused 
         * by an external interrupt, and vector accordingly.
         */
        rdctl r4, ipending
 4008154:	0009313a 	rdctl	r4,ipending
        andi  r2, r5, 1
 4008158:	2880004c 	andi	r2,r5,1
        beq   r2, zero, .Lnot_irq
 400815c:	10000326 	beq	r2,zero,400816c <alt_exception+0x6c>
        beq   r4, zero, .Lnot_irq
 4008160:	20000226 	beq	r4,zero,400816c <alt_exception+0x6c>
        /*
         * Now that all necessary registers have been preserved, call 
         * alt_irq_handler() to process the interrupts.
         */

        call alt_irq_handler
 4008164:	40081dc0 	call	40081dc <alt_irq_handler>

        .section .exceptions.irqreturn, "xa"

        br    .Lexception_exit
 4008168:	00000706 	br	4008188 <alt_exception+0x88>
         * upon completion, so we write ea (address of instruction *after*
         * the one where the exception occured) into 72(sp). The actual
         * instruction that caused the exception is written in r2, which these
         * handlers will utilize.
         */
        stw ea, 72(sp) /* EA is PC+4 so will skip over instruction causing exception */
 400816c:	df401215 	stw	ea,72(sp)
.Lunknown_16bit:
        addi.n r4, r4, 2 /* Need PC+2 to skip over instruction causing exception */
        stw r4, 72(sp)

#else /* CDX is not Enabled and all instructions are 32bits */
        ldw r2, -4(ea) /* Instruction value that caused exception */
 4008170:	e8bfff17 	ldw	r2,-4(ea)
         * debugger is present) or go into an infinite loop since the
         * handling behavior is undefined; in that case we will not return here.
         */

        /* Load exception-causing address as first argument (r4) */
        addi   r4, ea, -4
 4008174:	e93fff04 	addi	r4,ea,-4

        /* Call the instruction-exception entry */
        call   alt_instruction_exception_entry
 4008178:	40082b00 	call	40082b0 <alt_instruction_exception_entry>
         * instruction
         *
         * Return code was 0: Skip. The instruction after the exception is
         * already stored in 72(sp).
         */
        bne   r2, r0, .Lexception_exit
 400817c:	1000021e 	bne	r2,zero,4008188 <alt_exception+0x88>

        /*
         * Otherwise, modify 72(sp) to re-issue the instruction that caused the
         * exception.
         */
        addi  r15, ea, -4  /* instruction that caused exception */
 4008180:	ebffff04 	addi	r15,ea,-4
        stw   r15,  72(sp)
 4008184:	dbc01215 	stw	r15,72(sp)
        /* 
         * Restore the saved registers, so that all general purpose registers 
         * have been restored to their state at the time the interrupt occured.
         */

        ldw   r5,  68(sp)
 4008188:	d9401117 	ldw	r5,68(sp)
        ldw   ea,  72(sp)  /* This becomes the PC once eret is executed */
 400818c:	df401217 	ldw	ea,72(sp)
        ldw   ra,   0(sp)
 4008190:	dfc00017 	ldw	ra,0(sp)

        wrctl estatus, r5
 4008194:	2801707a 	wrctl	estatus,r5

        ldw   r1,   8(sp)
 4008198:	d8400217 	ldw	at,8(sp)
        ldw   r2,  12(sp)
 400819c:	d8800317 	ldw	r2,12(sp)
        ldw   r3,  16(sp)
 40081a0:	d8c00417 	ldw	r3,16(sp)
        ldw   r4,  20(sp)
 40081a4:	d9000517 	ldw	r4,20(sp)
        ldw   r5,  24(sp)
 40081a8:	d9400617 	ldw	r5,24(sp)
        ldw   r6,  28(sp)
 40081ac:	d9800717 	ldw	r6,28(sp)
        ldw   r7,  32(sp)
 40081b0:	d9c00817 	ldw	r7,32(sp)

#if defined(ALT_EXCEPTION_STACK) && defined(ALT_STACK_CHECK)
        ldw   et, %gprel(alt_exception_old_stack_limit)(gp)
#endif

        ldw   r8,  36(sp)
 40081b4:	da000917 	ldw	r8,36(sp)
        ldw   r9,  40(sp)
 40081b8:	da400a17 	ldw	r9,40(sp)
        ldw   r10, 44(sp)
 40081bc:	da800b17 	ldw	r10,44(sp)
        ldw   r11, 48(sp)
 40081c0:	dac00c17 	ldw	r11,48(sp)
        ldw   r12, 52(sp)
 40081c4:	db000d17 	ldw	r12,52(sp)
        ldw   r13, 56(sp)
 40081c8:	db400e17 	ldw	r13,56(sp)
        ldw   r14, 60(sp)
 40081cc:	db800f17 	ldw	r14,60(sp)
        ldw   r15, 64(sp)
 40081d0:	dbc01017 	ldw	r15,64(sp)
        stw   et, %gprel(alt_stack_limit_value)(gp)
        stw   zero, %gprel(alt_exception_old_stack_limit)(gp)
#endif /* ALT_STACK_CHECK */
        ldw   sp,  76(sp)
#else /* ALT_EXCEPTION_STACK disabled */
        addi  sp, sp, 76
 40081d4:	dec01304 	addi	sp,sp,76

        /*
         * Return to the interrupted instruction.
         */

        eret
 40081d8:	ef80083a 	eret

040081dc <alt_irq_handler>:
 * instruction is present if the macro ALT_CI_INTERRUPT_VECTOR defined.
 */

void alt_irq_handler (void) __attribute__ ((section (".exceptions")));
void alt_irq_handler (void)
{
 40081dc:	defff904 	addi	sp,sp,-28
 40081e0:	dfc00615 	stw	ra,24(sp)
 40081e4:	df000515 	stw	fp,20(sp)
 40081e8:	df000504 	addi	fp,sp,20
  
  /*
   * Notify the operating system that we are at interrupt level.
   */ 
  
  ALT_OS_INT_ENTER();
 40081ec:	0001883a 	nop
#ifndef NIOS2_EIC_PRESENT
static ALT_INLINE alt_u32 ALT_ALWAYS_INLINE alt_irq_pending (void)
{
  alt_u32 active;

  NIOS2_READ_IPENDING (active);
 40081f0:	0005313a 	rdctl	r2,ipending
 40081f4:	e0bffe15 	stw	r2,-8(fp)

  return active;
 40081f8:	e0bffe17 	ldw	r2,-8(fp)
   * Consider the case where the high priority interupt is asserted during
   * the interrupt entry sequence for a lower priority interrupt to see why
   * this is the case.
   */

  active = alt_irq_pending ();
 40081fc:	e0bffb15 	stw	r2,-20(fp)

  do
  {
    i = 0;
 4008200:	e03ffd15 	stw	zero,-12(fp)
    mask = 1;
 4008204:	00800044 	movi	r2,1
 4008208:	e0bffc15 	stw	r2,-16(fp)
     * called to clear the interrupt condition.
     */

    do
    {
      if (active & mask)
 400820c:	e0fffb17 	ldw	r3,-20(fp)
 4008210:	e0bffc17 	ldw	r2,-16(fp)
 4008214:	1884703a 	and	r2,r3,r2
 4008218:	10001426 	beq	r2,zero,400826c <alt_irq_handler+0x90>
      { 
#ifdef ALT_ENHANCED_INTERRUPT_API_PRESENT
        alt_irq[i].handler(alt_irq[i].context); 
 400821c:	00808074 	movhi	r2,513
 4008220:	10956e04 	addi	r2,r2,21944
 4008224:	e0fffd17 	ldw	r3,-12(fp)
 4008228:	180690fa 	slli	r3,r3,3
 400822c:	10c5883a 	add	r2,r2,r3
 4008230:	10c00017 	ldw	r3,0(r2)
 4008234:	00808074 	movhi	r2,513
 4008238:	10956e04 	addi	r2,r2,21944
 400823c:	e13ffd17 	ldw	r4,-12(fp)
 4008240:	200890fa 	slli	r4,r4,3
 4008244:	1105883a 	add	r2,r2,r4
 4008248:	10800104 	addi	r2,r2,4
 400824c:	10800017 	ldw	r2,0(r2)
 4008250:	1009883a 	mov	r4,r2
 4008254:	183ee83a 	callr	r3
#else
        alt_irq[i].handler(alt_irq[i].context, i); 
#endif
        break;
 4008258:	0001883a 	nop
#ifndef NIOS2_EIC_PRESENT
static ALT_INLINE alt_u32 ALT_ALWAYS_INLINE alt_irq_pending (void)
{
  alt_u32 active;

  NIOS2_READ_IPENDING (active);
 400825c:	0005313a 	rdctl	r2,ipending
 4008260:	e0bfff15 	stw	r2,-4(fp)

  return active;
 4008264:	e0bfff17 	ldw	r2,-4(fp)
 4008268:	00000706 	br	4008288 <alt_irq_handler+0xac>
      }
      mask <<= 1;
 400826c:	e0bffc17 	ldw	r2,-16(fp)
 4008270:	1085883a 	add	r2,r2,r2
 4008274:	e0bffc15 	stw	r2,-16(fp)
      i++;
 4008278:	e0bffd17 	ldw	r2,-12(fp)
 400827c:	10800044 	addi	r2,r2,1
 4008280:	e0bffd15 	stw	r2,-12(fp)

    } while (1);
 4008284:	003fe106 	br	400820c <__alt_mem_flash+0xffff720c>

    active = alt_irq_pending ();
 4008288:	e0bffb15 	stw	r2,-20(fp)
    
  } while (active);
 400828c:	e0bffb17 	ldw	r2,-20(fp)
 4008290:	103fdb1e 	bne	r2,zero,4008200 <__alt_mem_flash+0xffff7200>

  /*
   * Notify the operating system that interrupt processing is complete.
   */ 

  ALT_OS_INT_EXIT();
 4008294:	0001883a 	nop
}
 4008298:	0001883a 	nop
 400829c:	e037883a 	mov	sp,fp
 40082a0:	dfc00117 	ldw	ra,4(sp)
 40082a4:	df000017 	ldw	fp,0(sp)
 40082a8:	dec00204 	addi	sp,sp,8
 40082ac:	f800283a 	ret

040082b0 <alt_instruction_exception_entry>:
 * that handler if it has been registered. Absent a handler, it will
 * break break or hang as discussed below.
 */
int 
alt_instruction_exception_entry (alt_u32 exception_pc)
{
 40082b0:	defffb04 	addi	sp,sp,-20
 40082b4:	dfc00415 	stw	ra,16(sp)
 40082b8:	df000315 	stw	fp,12(sp)
 40082bc:	df000304 	addi	fp,sp,12
 40082c0:	e13fff15 	stw	r4,-4(fp)
  cause = ( (cause & NIOS2_EXCEPTION_REG_CAUSE_MASK) >>
              NIOS2_EXCEPTION_REG_CAUSE_OFST );

  NIOS2_READ_BADADDR(badaddr);
#else
  cause = NIOS2_EXCEPTION_CAUSE_NOT_PRESENT;
 40082c4:	00bfffc4 	movi	r2,-1
 40082c8:	e0bffd15 	stw	r2,-12(fp)
  badaddr = 0;
 40082cc:	e03ffe15 	stw	zero,-8(fp)
#endif /* NIOS2_HAS_EXTRA_EXCEPTION_INFO */

  if(alt_instruction_exception_handler) {
 40082d0:	d0a74b17 	ldw	r2,-25300(gp)
 40082d4:	10000726 	beq	r2,zero,40082f4 <alt_instruction_exception_entry+0x44>
     * Call handler. Its return value indicates whether the exception-causing
     * instruction should be re-issued. The code that called us,
     * alt_eceptions_entry.S, will look at this value and adjust the ea
     * register as necessary
     */
    return alt_instruction_exception_handler(cause, exception_pc, badaddr);
 40082d8:	d0a74b17 	ldw	r2,-25300(gp)
 40082dc:	e0fffd17 	ldw	r3,-12(fp)
 40082e0:	e1bffe17 	ldw	r6,-8(fp)
 40082e4:	e17fff17 	ldw	r5,-4(fp)
 40082e8:	1809883a 	mov	r4,r3
 40082ec:	103ee83a 	callr	r2
 40082f0:	00000206 	br	40082fc <alt_instruction_exception_entry+0x4c>
   *    (a peripheral which negates its interrupt output before its
   *    interrupt handler has been executed will cause spurious interrupts)
   */
  else {
#ifdef NIOS2_HAS_DEBUG_STUB
    NIOS2_BREAK();
 40082f4:	003da03a 	break	0
      ;
#endif /* NIOS2_HAS_DEBUG_STUB */
  }

  /* We should not get here. Remove compiler warning. */
  return NIOS2_EXCEPTION_RETURN_REISSUE_INST;
 40082f8:	0005883a 	mov	r2,zero
}
 40082fc:	e037883a 	mov	sp,fp
 4008300:	dfc00117 	ldw	ra,4(sp)
 4008304:	df000017 	ldw	fp,0(sp)
 4008308:	dec00204 	addi	sp,sp,8
 400830c:	f800283a 	ret

Disassembly of section .text:

02000000 <_start>:

    /*
     * Now that the caches are initialized, set up the stack pointer and global pointer.
     * The values provided by the linker are assumed to be correctly aligned.
     */
    movhi sp, %hi(__alt_stack_pointer)
 2000000:	06c10034 	movhi	sp,1024
    ori sp, sp, %lo(__alt_stack_pointer)
 2000004:	dec00014 	ori	sp,sp,0
    movhi gp, %hi(_gp)
 2000008:	06808074 	movhi	gp,513
    ori gp, gp, %lo(_gp)
 200000c:	d6ae1814 	ori	gp,gp,47200
 */
#ifndef ALT_SIM_OPTIMIZE
    /* Log that the BSS is about to be cleared. */
    ALT_LOG_PUTS(alt_log_msg_bss)

    movhi r2, %hi(__bss_start)
 2000010:	00808074 	movhi	r2,513
    ori r2, r2, %lo(__bss_start)
 2000014:	10955614 	ori	r2,r2,21848

    movhi r3, %hi(__bss_end)
 2000018:	00c08074 	movhi	r3,513
    ori r3, r3, %lo(__bss_end)
 200001c:	18d5ae14 	ori	r3,r3,22200

    beq r2, r3, 1f
 2000020:	10c00326 	beq	r2,r3,2000030 <_start+0x30>

0:
    stw zero, (r2)
 2000024:	10000015 	stw	zero,0(r2)
    addi r2, r2, 4
 2000028:	10800104 	addi	r2,r2,4
    bltu r2, r3, 0b
 200002c:	10fffd36 	bltu	r2,r3,2000024 <__alt_mem_flash+0xfdfef024>
     * section aren't defined until alt_load() has been called).
     */
    mov   et, zero
#endif

    call alt_load
 2000030:	200d70c0 	call	200d70c <alt_load>

    /* Log that alt_main is about to be called. */
    ALT_LOG_PUTS(alt_log_msg_alt_main)

    /* Call the C entry point. It should never return. */
    call alt_main
 2000034:	200d8a80 	call	200d8a8 <alt_main>

02000038 <alt_after_alt_main>:

    /* Wait in infinite loop in case alt_main does return. */
alt_after_alt_main:
    br alt_after_alt_main
 2000038:	003fff06 	br	2000038 <__alt_mem_flash+0xfdfef038>

0200003c <main>:
#define FLAG 2147483647

float temp __attribute__((section("TempMemory")));
float pressure __attribute__((section("PressureMemory")));

int main(){
 200003c:	defffb04 	addi	sp,sp,-20
 2000040:	dfc00415 	stw	ra,16(sp)
 2000044:	df000315 	stw	fp,12(sp)
 2000048:	dc000215 	stw	r16,8(sp)
 200004c:	df000304 	addi	fp,sp,12
	int *headIndex = (int *)SHARED_RAD_BASE;
 2000050:	0082fff4 	movhi	r2,3071
 2000054:	1098f004 	addi	r2,r2,25536
 2000058:	e0bffd15 	stw	r2,-12(fp)
		usleep (1000);
 200005c:	0100fa04 	movi	r4,1000
 2000060:	200dbe00 	call	200dbe0 <usleep>
		float data;
		while (1) {
			if (*headIndex != FLAG) {
 2000064:	e0bffd17 	ldw	r2,-12(fp)
 2000068:	10c00017 	ldw	r3,0(r2)
 200006c:	00a00034 	movhi	r2,32768
 2000070:	10bfffc4 	addi	r2,r2,-1
 2000074:	18803b26 	beq	r3,r2,2000164 <main+0x128>
				data = .0129 * *headIndex + .0068;
 2000078:	e0bffd17 	ldw	r2,-12(fp)
 200007c:	10800017 	ldw	r2,0(r2)
 2000080:	1009883a 	mov	r4,r2
 2000084:	200139c0 	call	200139c <__floatsidf>
 2000088:	1011883a 	mov	r8,r2
 200008c:	1813883a 	mov	r9,r3
 2000090:	01ac3cb4 	movhi	r6,45298
 2000094:	319eecc4 	addi	r6,r6,31667
 2000098:	01cfe2b4 	movhi	r7,16266
 200009c:	39dad404 	addi	r7,r7,27472
 20000a0:	4009883a 	mov	r4,r8
 20000a4:	480b883a 	mov	r5,r9
 20000a8:	2000b300 	call	2000b30 <__muldf3>
 20000ac:	1009883a 	mov	r4,r2
 20000b0:	180b883a 	mov	r5,r3
 20000b4:	2005883a 	mov	r2,r4
 20000b8:	2807883a 	mov	r3,r5
 20000bc:	018673b4 	movhi	r6,6606
 20000c0:	3181d7c4 	addi	r6,r6,1887
 20000c4:	01cfdf34 	movhi	r7,16252
 20000c8:	39f69444 	addi	r7,r7,-9647
 20000cc:	1009883a 	mov	r4,r2
 20000d0:	180b883a 	mov	r5,r3
 20000d4:	20002840 	call	2000284 <__adddf3>
 20000d8:	1009883a 	mov	r4,r2
 20000dc:	180b883a 	mov	r5,r3
 20000e0:	2005883a 	mov	r2,r4
 20000e4:	2807883a 	mov	r3,r5
 20000e8:	1009883a 	mov	r4,r2
 20000ec:	180b883a 	mov	r5,r3
 20000f0:	20015880 	call	2001588 <__truncdfsf2>
 20000f4:	1007883a 	mov	r3,r2
 20000f8:	e0fffe15 	stw	r3,-8(fp)
				//fprintf(stdout, "%02d\n", *headIndex);
				fprintf(stdout, "%02f\n", data);
 20000fc:	d0a00117 	ldw	r2,-32764(gp)
 2000100:	14000217 	ldw	r16,8(r2)
 2000104:	e13ffe17 	ldw	r4,-8(fp)
 2000108:	20014780 	call	2001478 <__extendsfdf2>
 200010c:	1009883a 	mov	r4,r2
 2000110:	180b883a 	mov	r5,r3
 2000114:	200d883a 	mov	r6,r4
 2000118:	280f883a 	mov	r7,r5
 200011c:	01408074 	movhi	r5,513
 2000120:	29462b04 	addi	r5,r5,6316
 2000124:	8009883a 	mov	r4,r16
 2000128:	20017e40 	call	20017e4 <fprintf>
				*headIndex = FLAG;
 200012c:	e0fffd17 	ldw	r3,-12(fp)
 2000130:	00a00034 	movhi	r2,32768
 2000134:	10bfffc4 	addi	r2,r2,-1
 2000138:	18800015 	stw	r2,0(r3)
				headIndex ++;
 200013c:	e0bffd17 	ldw	r2,-12(fp)
 2000140:	10800104 	addi	r2,r2,4
 2000144:	e0bffd15 	stw	r2,-12(fp)
				if (headIndex < (int *)SHARED_RAD_END) {
 2000148:	e0fffd17 	ldw	r3,-12(fp)
 200014c:	00830034 	movhi	r2,3072
 2000150:	10bfff84 	addi	r2,r2,-2
 2000154:	10c00336 	bltu	r2,r3,2000164 <main+0x128>
					headIndex = (int *)SHARED_RAD_BASE;
 2000158:	0082fff4 	movhi	r2,3071
 200015c:	1098f004 	addi	r2,r2,25536
 2000160:	e0bffd15 	stw	r2,-12(fp)
				}
			}
			if (temp != FLAG) {
 2000164:	00808074 	movhi	r2,513
 2000168:	1086fe04 	addi	r2,r2,7160
 200016c:	10c00017 	ldw	r3,0(r2)
 2000170:	0153c034 	movhi	r5,20224
 2000174:	1809883a 	mov	r4,r3
 2000178:	200020c0 	call	200020c <__eqsf2>
 200017c:	103fb926 	beq	r2,zero,2000064 <__alt_mem_flash+0xfdfef064>
				//need to be able to distinguish between temperature and voltage values in data file
				fprintf(stdout, "Temperature: %02f\n", temp);
 2000180:	d0a00117 	ldw	r2,-32764(gp)
 2000184:	14000217 	ldw	r16,8(r2)
 2000188:	00808074 	movhi	r2,513
 200018c:	1086fe04 	addi	r2,r2,7160
 2000190:	10c00017 	ldw	r3,0(r2)
 2000194:	1809883a 	mov	r4,r3
 2000198:	20014780 	call	2001478 <__extendsfdf2>
 200019c:	1009883a 	mov	r4,r2
 20001a0:	180b883a 	mov	r5,r3
 20001a4:	200d883a 	mov	r6,r4
 20001a8:	280f883a 	mov	r7,r5
 20001ac:	01408074 	movhi	r5,513
 20001b0:	29462d04 	addi	r5,r5,6324
 20001b4:	8009883a 	mov	r4,r16
 20001b8:	20017e40 	call	20017e4 <fprintf>
				fprintf(stdout, "Pressure: %02f\n", pressure);
 20001bc:	d0a00117 	ldw	r2,-32764(gp)
 20001c0:	14000217 	ldw	r16,8(r2)
 20001c4:	00808074 	movhi	r2,513
 20001c8:	1086ff04 	addi	r2,r2,7164
 20001cc:	10c00017 	ldw	r3,0(r2)
 20001d0:	1809883a 	mov	r4,r3
 20001d4:	20014780 	call	2001478 <__extendsfdf2>
 20001d8:	1009883a 	mov	r4,r2
 20001dc:	180b883a 	mov	r5,r3
 20001e0:	200d883a 	mov	r6,r4
 20001e4:	280f883a 	mov	r7,r5
 20001e8:	01408074 	movhi	r5,513
 20001ec:	29463204 	addi	r5,r5,6344
 20001f0:	8009883a 	mov	r4,r16
 20001f4:	20017e40 	call	20017e4 <fprintf>
				temp = FLAG;
 20001f8:	00808074 	movhi	r2,513
 20001fc:	1086fe04 	addi	r2,r2,7160
 2000200:	00d3c034 	movhi	r3,20224
 2000204:	10c00015 	stw	r3,0(r2)
			}
		}
 2000208:	003f9606 	br	2000064 <__alt_mem_flash+0xfdfef064>

0200020c <__eqsf2>:
 200020c:	2006d5fa 	srli	r3,r4,23
 2000210:	280cd5fa 	srli	r6,r5,23
 2000214:	01c02034 	movhi	r7,128
 2000218:	39ffffc4 	addi	r7,r7,-1
 200021c:	18c03fcc 	andi	r3,r3,255
 2000220:	02003fc4 	movi	r8,255
 2000224:	3904703a 	and	r2,r7,r4
 2000228:	31803fcc 	andi	r6,r6,255
 200022c:	394e703a 	and	r7,r7,r5
 2000230:	2008d7fa 	srli	r4,r4,31
 2000234:	280ad7fa 	srli	r5,r5,31
 2000238:	1a000d26 	beq	r3,r8,2000270 <__eqsf2+0x64>
 200023c:	02003fc4 	movi	r8,255
 2000240:	32000826 	beq	r6,r8,2000264 <__eqsf2+0x58>
 2000244:	19800226 	beq	r3,r6,2000250 <__eqsf2+0x44>
 2000248:	00800044 	movi	r2,1
 200024c:	f800283a 	ret
 2000250:	11fffd1e 	bne	r2,r7,2000248 <__alt_mem_flash+0xfdfef248>
 2000254:	21400926 	beq	r4,r5,200027c <__eqsf2+0x70>
 2000258:	183ffb1e 	bne	r3,zero,2000248 <__alt_mem_flash+0xfdfef248>
 200025c:	1004c03a 	cmpne	r2,r2,zero
 2000260:	f800283a 	ret
 2000264:	383ff726 	beq	r7,zero,2000244 <__alt_mem_flash+0xfdfef244>
 2000268:	00800044 	movi	r2,1
 200026c:	f800283a 	ret
 2000270:	103ff226 	beq	r2,zero,200023c <__alt_mem_flash+0xfdfef23c>
 2000274:	00800044 	movi	r2,1
 2000278:	f800283a 	ret
 200027c:	0005883a 	mov	r2,zero
 2000280:	f800283a 	ret

02000284 <__adddf3>:
 2000284:	02c00434 	movhi	r11,16
 2000288:	5affffc4 	addi	r11,r11,-1
 200028c:	2806d7fa 	srli	r3,r5,31
 2000290:	2ad4703a 	and	r10,r5,r11
 2000294:	3ad2703a 	and	r9,r7,r11
 2000298:	3804d53a 	srli	r2,r7,20
 200029c:	3018d77a 	srli	r12,r6,29
 20002a0:	280ad53a 	srli	r5,r5,20
 20002a4:	501490fa 	slli	r10,r10,3
 20002a8:	2010d77a 	srli	r8,r4,29
 20002ac:	481290fa 	slli	r9,r9,3
 20002b0:	380ed7fa 	srli	r7,r7,31
 20002b4:	defffb04 	addi	sp,sp,-20
 20002b8:	dc800215 	stw	r18,8(sp)
 20002bc:	dc400115 	stw	r17,4(sp)
 20002c0:	dc000015 	stw	r16,0(sp)
 20002c4:	dfc00415 	stw	ra,16(sp)
 20002c8:	dcc00315 	stw	r19,12(sp)
 20002cc:	1c803fcc 	andi	r18,r3,255
 20002d0:	2c01ffcc 	andi	r16,r5,2047
 20002d4:	5210b03a 	or	r8,r10,r8
 20002d8:	202290fa 	slli	r17,r4,3
 20002dc:	1081ffcc 	andi	r2,r2,2047
 20002e0:	4b12b03a 	or	r9,r9,r12
 20002e4:	300c90fa 	slli	r6,r6,3
 20002e8:	91c07526 	beq	r18,r7,20004c0 <__adddf3+0x23c>
 20002ec:	8087c83a 	sub	r3,r16,r2
 20002f0:	00c0ab0e 	bge	zero,r3,20005a0 <__adddf3+0x31c>
 20002f4:	10002a1e 	bne	r2,zero,20003a0 <__adddf3+0x11c>
 20002f8:	4984b03a 	or	r2,r9,r6
 20002fc:	1000961e 	bne	r2,zero,2000558 <__adddf3+0x2d4>
 2000300:	888001cc 	andi	r2,r17,7
 2000304:	10000726 	beq	r2,zero,2000324 <__adddf3+0xa0>
 2000308:	888003cc 	andi	r2,r17,15
 200030c:	00c00104 	movi	r3,4
 2000310:	10c00426 	beq	r2,r3,2000324 <__adddf3+0xa0>
 2000314:	88c7883a 	add	r3,r17,r3
 2000318:	1c63803a 	cmpltu	r17,r3,r17
 200031c:	4451883a 	add	r8,r8,r17
 2000320:	1823883a 	mov	r17,r3
 2000324:	4080202c 	andhi	r2,r8,128
 2000328:	10005926 	beq	r2,zero,2000490 <__adddf3+0x20c>
 200032c:	84000044 	addi	r16,r16,1
 2000330:	0081ffc4 	movi	r2,2047
 2000334:	8080ba26 	beq	r16,r2,2000620 <__adddf3+0x39c>
 2000338:	00bfe034 	movhi	r2,65408
 200033c:	10bfffc4 	addi	r2,r2,-1
 2000340:	4090703a 	and	r8,r8,r2
 2000344:	4004977a 	slli	r2,r8,29
 2000348:	4010927a 	slli	r8,r8,9
 200034c:	8822d0fa 	srli	r17,r17,3
 2000350:	8401ffcc 	andi	r16,r16,2047
 2000354:	4010d33a 	srli	r8,r8,12
 2000358:	9007883a 	mov	r3,r18
 200035c:	1444b03a 	or	r2,r2,r17
 2000360:	8401ffcc 	andi	r16,r16,2047
 2000364:	8020953a 	slli	r16,r16,20
 2000368:	18c03fcc 	andi	r3,r3,255
 200036c:	01000434 	movhi	r4,16
 2000370:	213fffc4 	addi	r4,r4,-1
 2000374:	180697fa 	slli	r3,r3,31
 2000378:	4110703a 	and	r8,r8,r4
 200037c:	4410b03a 	or	r8,r8,r16
 2000380:	40c6b03a 	or	r3,r8,r3
 2000384:	dfc00417 	ldw	ra,16(sp)
 2000388:	dcc00317 	ldw	r19,12(sp)
 200038c:	dc800217 	ldw	r18,8(sp)
 2000390:	dc400117 	ldw	r17,4(sp)
 2000394:	dc000017 	ldw	r16,0(sp)
 2000398:	dec00504 	addi	sp,sp,20
 200039c:	f800283a 	ret
 20003a0:	0081ffc4 	movi	r2,2047
 20003a4:	80bfd626 	beq	r16,r2,2000300 <__alt_mem_flash+0xfdfef300>
 20003a8:	4a402034 	orhi	r9,r9,128
 20003ac:	00800e04 	movi	r2,56
 20003b0:	10c09f16 	blt	r2,r3,2000630 <__adddf3+0x3ac>
 20003b4:	008007c4 	movi	r2,31
 20003b8:	10c0c216 	blt	r2,r3,20006c4 <__adddf3+0x440>
 20003bc:	00800804 	movi	r2,32
 20003c0:	10c5c83a 	sub	r2,r2,r3
 20003c4:	488a983a 	sll	r5,r9,r2
 20003c8:	30c8d83a 	srl	r4,r6,r3
 20003cc:	3084983a 	sll	r2,r6,r2
 20003d0:	48c6d83a 	srl	r3,r9,r3
 20003d4:	290cb03a 	or	r6,r5,r4
 20003d8:	1004c03a 	cmpne	r2,r2,zero
 20003dc:	308cb03a 	or	r6,r6,r2
 20003e0:	898dc83a 	sub	r6,r17,r6
 20003e4:	89a3803a 	cmpltu	r17,r17,r6
 20003e8:	40d1c83a 	sub	r8,r8,r3
 20003ec:	4451c83a 	sub	r8,r8,r17
 20003f0:	3023883a 	mov	r17,r6
 20003f4:	4080202c 	andhi	r2,r8,128
 20003f8:	10002326 	beq	r2,zero,2000488 <__adddf3+0x204>
 20003fc:	04c02034 	movhi	r19,128
 2000400:	9cffffc4 	addi	r19,r19,-1
 2000404:	44e6703a 	and	r19,r8,r19
 2000408:	98007626 	beq	r19,zero,20005e4 <__adddf3+0x360>
 200040c:	9809883a 	mov	r4,r19
 2000410:	20017300 	call	2001730 <__clzsi2>
 2000414:	10fffe04 	addi	r3,r2,-8
 2000418:	010007c4 	movi	r4,31
 200041c:	20c07716 	blt	r4,r3,20005fc <__adddf3+0x378>
 2000420:	00800804 	movi	r2,32
 2000424:	10c5c83a 	sub	r2,r2,r3
 2000428:	8884d83a 	srl	r2,r17,r2
 200042c:	98d0983a 	sll	r8,r19,r3
 2000430:	88e2983a 	sll	r17,r17,r3
 2000434:	1204b03a 	or	r2,r2,r8
 2000438:	1c007416 	blt	r3,r16,200060c <__adddf3+0x388>
 200043c:	1c21c83a 	sub	r16,r3,r16
 2000440:	82000044 	addi	r8,r16,1
 2000444:	00c007c4 	movi	r3,31
 2000448:	1a009116 	blt	r3,r8,2000690 <__adddf3+0x40c>
 200044c:	00c00804 	movi	r3,32
 2000450:	1a07c83a 	sub	r3,r3,r8
 2000454:	8a08d83a 	srl	r4,r17,r8
 2000458:	88e2983a 	sll	r17,r17,r3
 200045c:	10c6983a 	sll	r3,r2,r3
 2000460:	1210d83a 	srl	r8,r2,r8
 2000464:	8804c03a 	cmpne	r2,r17,zero
 2000468:	1906b03a 	or	r3,r3,r4
 200046c:	18a2b03a 	or	r17,r3,r2
 2000470:	0021883a 	mov	r16,zero
 2000474:	003fa206 	br	2000300 <__alt_mem_flash+0xfdfef300>
 2000478:	1890b03a 	or	r8,r3,r2
 200047c:	40017d26 	beq	r8,zero,2000a74 <__adddf3+0x7f0>
 2000480:	1011883a 	mov	r8,r2
 2000484:	1823883a 	mov	r17,r3
 2000488:	888001cc 	andi	r2,r17,7
 200048c:	103f9e1e 	bne	r2,zero,2000308 <__alt_mem_flash+0xfdfef308>
 2000490:	4004977a 	slli	r2,r8,29
 2000494:	8822d0fa 	srli	r17,r17,3
 2000498:	4010d0fa 	srli	r8,r8,3
 200049c:	9007883a 	mov	r3,r18
 20004a0:	1444b03a 	or	r2,r2,r17
 20004a4:	0101ffc4 	movi	r4,2047
 20004a8:	81002426 	beq	r16,r4,200053c <__adddf3+0x2b8>
 20004ac:	8120703a 	and	r16,r16,r4
 20004b0:	01000434 	movhi	r4,16
 20004b4:	213fffc4 	addi	r4,r4,-1
 20004b8:	4110703a 	and	r8,r8,r4
 20004bc:	003fa806 	br	2000360 <__alt_mem_flash+0xfdfef360>
 20004c0:	8089c83a 	sub	r4,r16,r2
 20004c4:	01005e0e 	bge	zero,r4,2000640 <__adddf3+0x3bc>
 20004c8:	10002b26 	beq	r2,zero,2000578 <__adddf3+0x2f4>
 20004cc:	0081ffc4 	movi	r2,2047
 20004d0:	80bf8b26 	beq	r16,r2,2000300 <__alt_mem_flash+0xfdfef300>
 20004d4:	4a402034 	orhi	r9,r9,128
 20004d8:	00800e04 	movi	r2,56
 20004dc:	1100a40e 	bge	r2,r4,2000770 <__adddf3+0x4ec>
 20004e0:	498cb03a 	or	r6,r9,r6
 20004e4:	300ac03a 	cmpne	r5,r6,zero
 20004e8:	0013883a 	mov	r9,zero
 20004ec:	2c4b883a 	add	r5,r5,r17
 20004f0:	2c63803a 	cmpltu	r17,r5,r17
 20004f4:	4a11883a 	add	r8,r9,r8
 20004f8:	8a11883a 	add	r8,r17,r8
 20004fc:	2823883a 	mov	r17,r5
 2000500:	4080202c 	andhi	r2,r8,128
 2000504:	103fe026 	beq	r2,zero,2000488 <__alt_mem_flash+0xfdfef488>
 2000508:	84000044 	addi	r16,r16,1
 200050c:	0081ffc4 	movi	r2,2047
 2000510:	8080d226 	beq	r16,r2,200085c <__adddf3+0x5d8>
 2000514:	00bfe034 	movhi	r2,65408
 2000518:	10bfffc4 	addi	r2,r2,-1
 200051c:	4090703a 	and	r8,r8,r2
 2000520:	880ad07a 	srli	r5,r17,1
 2000524:	400897fa 	slli	r4,r8,31
 2000528:	88c0004c 	andi	r3,r17,1
 200052c:	28e2b03a 	or	r17,r5,r3
 2000530:	4010d07a 	srli	r8,r8,1
 2000534:	2462b03a 	or	r17,r4,r17
 2000538:	003f7106 	br	2000300 <__alt_mem_flash+0xfdfef300>
 200053c:	4088b03a 	or	r4,r8,r2
 2000540:	20014526 	beq	r4,zero,2000a58 <__adddf3+0x7d4>
 2000544:	01000434 	movhi	r4,16
 2000548:	42000234 	orhi	r8,r8,8
 200054c:	213fffc4 	addi	r4,r4,-1
 2000550:	4110703a 	and	r8,r8,r4
 2000554:	003f8206 	br	2000360 <__alt_mem_flash+0xfdfef360>
 2000558:	18ffffc4 	addi	r3,r3,-1
 200055c:	1800491e 	bne	r3,zero,2000684 <__adddf3+0x400>
 2000560:	898bc83a 	sub	r5,r17,r6
 2000564:	8963803a 	cmpltu	r17,r17,r5
 2000568:	4251c83a 	sub	r8,r8,r9
 200056c:	4451c83a 	sub	r8,r8,r17
 2000570:	2823883a 	mov	r17,r5
 2000574:	003f9f06 	br	20003f4 <__alt_mem_flash+0xfdfef3f4>
 2000578:	4984b03a 	or	r2,r9,r6
 200057c:	103f6026 	beq	r2,zero,2000300 <__alt_mem_flash+0xfdfef300>
 2000580:	213fffc4 	addi	r4,r4,-1
 2000584:	2000931e 	bne	r4,zero,20007d4 <__adddf3+0x550>
 2000588:	898d883a 	add	r6,r17,r6
 200058c:	3463803a 	cmpltu	r17,r6,r17
 2000590:	4251883a 	add	r8,r8,r9
 2000594:	8a11883a 	add	r8,r17,r8
 2000598:	3023883a 	mov	r17,r6
 200059c:	003fd806 	br	2000500 <__alt_mem_flash+0xfdfef500>
 20005a0:	1800541e 	bne	r3,zero,20006f4 <__adddf3+0x470>
 20005a4:	80800044 	addi	r2,r16,1
 20005a8:	1081ffcc 	andi	r2,r2,2047
 20005ac:	00c00044 	movi	r3,1
 20005b0:	1880a00e 	bge	r3,r2,2000834 <__adddf3+0x5b0>
 20005b4:	8989c83a 	sub	r4,r17,r6
 20005b8:	8905803a 	cmpltu	r2,r17,r4
 20005bc:	4267c83a 	sub	r19,r8,r9
 20005c0:	98a7c83a 	sub	r19,r19,r2
 20005c4:	9880202c 	andhi	r2,r19,128
 20005c8:	10006326 	beq	r2,zero,2000758 <__adddf3+0x4d4>
 20005cc:	3463c83a 	sub	r17,r6,r17
 20005d0:	4a07c83a 	sub	r3,r9,r8
 20005d4:	344d803a 	cmpltu	r6,r6,r17
 20005d8:	19a7c83a 	sub	r19,r3,r6
 20005dc:	3825883a 	mov	r18,r7
 20005e0:	983f8a1e 	bne	r19,zero,200040c <__alt_mem_flash+0xfdfef40c>
 20005e4:	8809883a 	mov	r4,r17
 20005e8:	20017300 	call	2001730 <__clzsi2>
 20005ec:	10800804 	addi	r2,r2,32
 20005f0:	10fffe04 	addi	r3,r2,-8
 20005f4:	010007c4 	movi	r4,31
 20005f8:	20ff890e 	bge	r4,r3,2000420 <__alt_mem_flash+0xfdfef420>
 20005fc:	10bff604 	addi	r2,r2,-40
 2000600:	8884983a 	sll	r2,r17,r2
 2000604:	0023883a 	mov	r17,zero
 2000608:	1c3f8c0e 	bge	r3,r16,200043c <__alt_mem_flash+0xfdfef43c>
 200060c:	023fe034 	movhi	r8,65408
 2000610:	423fffc4 	addi	r8,r8,-1
 2000614:	80e1c83a 	sub	r16,r16,r3
 2000618:	1210703a 	and	r8,r2,r8
 200061c:	003f3806 	br	2000300 <__alt_mem_flash+0xfdfef300>
 2000620:	9007883a 	mov	r3,r18
 2000624:	0011883a 	mov	r8,zero
 2000628:	0005883a 	mov	r2,zero
 200062c:	003f4c06 	br	2000360 <__alt_mem_flash+0xfdfef360>
 2000630:	498cb03a 	or	r6,r9,r6
 2000634:	300cc03a 	cmpne	r6,r6,zero
 2000638:	0007883a 	mov	r3,zero
 200063c:	003f6806 	br	20003e0 <__alt_mem_flash+0xfdfef3e0>
 2000640:	20009c1e 	bne	r4,zero,20008b4 <__adddf3+0x630>
 2000644:	80800044 	addi	r2,r16,1
 2000648:	1141ffcc 	andi	r5,r2,2047
 200064c:	01000044 	movi	r4,1
 2000650:	2140670e 	bge	r4,r5,20007f0 <__adddf3+0x56c>
 2000654:	0101ffc4 	movi	r4,2047
 2000658:	11007f26 	beq	r2,r4,2000858 <__adddf3+0x5d4>
 200065c:	898d883a 	add	r6,r17,r6
 2000660:	4247883a 	add	r3,r8,r9
 2000664:	3451803a 	cmpltu	r8,r6,r17
 2000668:	40d1883a 	add	r8,r8,r3
 200066c:	402297fa 	slli	r17,r8,31
 2000670:	300cd07a 	srli	r6,r6,1
 2000674:	4010d07a 	srli	r8,r8,1
 2000678:	1021883a 	mov	r16,r2
 200067c:	89a2b03a 	or	r17,r17,r6
 2000680:	003f1f06 	br	2000300 <__alt_mem_flash+0xfdfef300>
 2000684:	0081ffc4 	movi	r2,2047
 2000688:	80bf481e 	bne	r16,r2,20003ac <__alt_mem_flash+0xfdfef3ac>
 200068c:	003f1c06 	br	2000300 <__alt_mem_flash+0xfdfef300>
 2000690:	843ff844 	addi	r16,r16,-31
 2000694:	01000804 	movi	r4,32
 2000698:	1406d83a 	srl	r3,r2,r16
 200069c:	41005026 	beq	r8,r4,20007e0 <__adddf3+0x55c>
 20006a0:	01001004 	movi	r4,64
 20006a4:	2211c83a 	sub	r8,r4,r8
 20006a8:	1204983a 	sll	r2,r2,r8
 20006ac:	88a2b03a 	or	r17,r17,r2
 20006b0:	8822c03a 	cmpne	r17,r17,zero
 20006b4:	1c62b03a 	or	r17,r3,r17
 20006b8:	0011883a 	mov	r8,zero
 20006bc:	0021883a 	mov	r16,zero
 20006c0:	003f7106 	br	2000488 <__alt_mem_flash+0xfdfef488>
 20006c4:	193ff804 	addi	r4,r3,-32
 20006c8:	00800804 	movi	r2,32
 20006cc:	4908d83a 	srl	r4,r9,r4
 20006d0:	18804526 	beq	r3,r2,20007e8 <__adddf3+0x564>
 20006d4:	00801004 	movi	r2,64
 20006d8:	10c5c83a 	sub	r2,r2,r3
 20006dc:	4886983a 	sll	r3,r9,r2
 20006e0:	198cb03a 	or	r6,r3,r6
 20006e4:	300cc03a 	cmpne	r6,r6,zero
 20006e8:	218cb03a 	or	r6,r4,r6
 20006ec:	0007883a 	mov	r3,zero
 20006f0:	003f3b06 	br	20003e0 <__alt_mem_flash+0xfdfef3e0>
 20006f4:	80002a26 	beq	r16,zero,20007a0 <__adddf3+0x51c>
 20006f8:	0101ffc4 	movi	r4,2047
 20006fc:	11006826 	beq	r2,r4,20008a0 <__adddf3+0x61c>
 2000700:	00c7c83a 	sub	r3,zero,r3
 2000704:	42002034 	orhi	r8,r8,128
 2000708:	01000e04 	movi	r4,56
 200070c:	20c07c16 	blt	r4,r3,2000900 <__adddf3+0x67c>
 2000710:	010007c4 	movi	r4,31
 2000714:	20c0da16 	blt	r4,r3,2000a80 <__adddf3+0x7fc>
 2000718:	01000804 	movi	r4,32
 200071c:	20c9c83a 	sub	r4,r4,r3
 2000720:	4114983a 	sll	r10,r8,r4
 2000724:	88cad83a 	srl	r5,r17,r3
 2000728:	8908983a 	sll	r4,r17,r4
 200072c:	40c6d83a 	srl	r3,r8,r3
 2000730:	5162b03a 	or	r17,r10,r5
 2000734:	2008c03a 	cmpne	r4,r4,zero
 2000738:	8922b03a 	or	r17,r17,r4
 200073c:	3463c83a 	sub	r17,r6,r17
 2000740:	48c7c83a 	sub	r3,r9,r3
 2000744:	344d803a 	cmpltu	r6,r6,r17
 2000748:	1991c83a 	sub	r8,r3,r6
 200074c:	1021883a 	mov	r16,r2
 2000750:	3825883a 	mov	r18,r7
 2000754:	003f2706 	br	20003f4 <__alt_mem_flash+0xfdfef3f4>
 2000758:	24d0b03a 	or	r8,r4,r19
 200075c:	40001b1e 	bne	r8,zero,20007cc <__adddf3+0x548>
 2000760:	0005883a 	mov	r2,zero
 2000764:	0007883a 	mov	r3,zero
 2000768:	0021883a 	mov	r16,zero
 200076c:	003f4d06 	br	20004a4 <__alt_mem_flash+0xfdfef4a4>
 2000770:	008007c4 	movi	r2,31
 2000774:	11003c16 	blt	r2,r4,2000868 <__adddf3+0x5e4>
 2000778:	00800804 	movi	r2,32
 200077c:	1105c83a 	sub	r2,r2,r4
 2000780:	488e983a 	sll	r7,r9,r2
 2000784:	310ad83a 	srl	r5,r6,r4
 2000788:	3084983a 	sll	r2,r6,r2
 200078c:	4912d83a 	srl	r9,r9,r4
 2000790:	394ab03a 	or	r5,r7,r5
 2000794:	1004c03a 	cmpne	r2,r2,zero
 2000798:	288ab03a 	or	r5,r5,r2
 200079c:	003f5306 	br	20004ec <__alt_mem_flash+0xfdfef4ec>
 20007a0:	4448b03a 	or	r4,r8,r17
 20007a4:	20003e26 	beq	r4,zero,20008a0 <__adddf3+0x61c>
 20007a8:	00c6303a 	nor	r3,zero,r3
 20007ac:	18003a1e 	bne	r3,zero,2000898 <__adddf3+0x614>
 20007b0:	3463c83a 	sub	r17,r6,r17
 20007b4:	4a07c83a 	sub	r3,r9,r8
 20007b8:	344d803a 	cmpltu	r6,r6,r17
 20007bc:	1991c83a 	sub	r8,r3,r6
 20007c0:	1021883a 	mov	r16,r2
 20007c4:	3825883a 	mov	r18,r7
 20007c8:	003f0a06 	br	20003f4 <__alt_mem_flash+0xfdfef3f4>
 20007cc:	2023883a 	mov	r17,r4
 20007d0:	003f0d06 	br	2000408 <__alt_mem_flash+0xfdfef408>
 20007d4:	0081ffc4 	movi	r2,2047
 20007d8:	80bf3f1e 	bne	r16,r2,20004d8 <__alt_mem_flash+0xfdfef4d8>
 20007dc:	003ec806 	br	2000300 <__alt_mem_flash+0xfdfef300>
 20007e0:	0005883a 	mov	r2,zero
 20007e4:	003fb106 	br	20006ac <__alt_mem_flash+0xfdfef6ac>
 20007e8:	0007883a 	mov	r3,zero
 20007ec:	003fbc06 	br	20006e0 <__alt_mem_flash+0xfdfef6e0>
 20007f0:	4444b03a 	or	r2,r8,r17
 20007f4:	8000871e 	bne	r16,zero,2000a14 <__adddf3+0x790>
 20007f8:	1000ba26 	beq	r2,zero,2000ae4 <__adddf3+0x860>
 20007fc:	4984b03a 	or	r2,r9,r6
 2000800:	103ebf26 	beq	r2,zero,2000300 <__alt_mem_flash+0xfdfef300>
 2000804:	8985883a 	add	r2,r17,r6
 2000808:	4247883a 	add	r3,r8,r9
 200080c:	1451803a 	cmpltu	r8,r2,r17
 2000810:	40d1883a 	add	r8,r8,r3
 2000814:	40c0202c 	andhi	r3,r8,128
 2000818:	1023883a 	mov	r17,r2
 200081c:	183f1a26 	beq	r3,zero,2000488 <__alt_mem_flash+0xfdfef488>
 2000820:	00bfe034 	movhi	r2,65408
 2000824:	10bfffc4 	addi	r2,r2,-1
 2000828:	2021883a 	mov	r16,r4
 200082c:	4090703a 	and	r8,r8,r2
 2000830:	003eb306 	br	2000300 <__alt_mem_flash+0xfdfef300>
 2000834:	4444b03a 	or	r2,r8,r17
 2000838:	8000291e 	bne	r16,zero,20008e0 <__adddf3+0x65c>
 200083c:	10004b1e 	bne	r2,zero,200096c <__adddf3+0x6e8>
 2000840:	4990b03a 	or	r8,r9,r6
 2000844:	40008b26 	beq	r8,zero,2000a74 <__adddf3+0x7f0>
 2000848:	4811883a 	mov	r8,r9
 200084c:	3023883a 	mov	r17,r6
 2000850:	3825883a 	mov	r18,r7
 2000854:	003eaa06 	br	2000300 <__alt_mem_flash+0xfdfef300>
 2000858:	1021883a 	mov	r16,r2
 200085c:	0011883a 	mov	r8,zero
 2000860:	0005883a 	mov	r2,zero
 2000864:	003f0f06 	br	20004a4 <__alt_mem_flash+0xfdfef4a4>
 2000868:	217ff804 	addi	r5,r4,-32
 200086c:	00800804 	movi	r2,32
 2000870:	494ad83a 	srl	r5,r9,r5
 2000874:	20807d26 	beq	r4,r2,2000a6c <__adddf3+0x7e8>
 2000878:	00801004 	movi	r2,64
 200087c:	1109c83a 	sub	r4,r2,r4
 2000880:	4912983a 	sll	r9,r9,r4
 2000884:	498cb03a 	or	r6,r9,r6
 2000888:	300cc03a 	cmpne	r6,r6,zero
 200088c:	298ab03a 	or	r5,r5,r6
 2000890:	0013883a 	mov	r9,zero
 2000894:	003f1506 	br	20004ec <__alt_mem_flash+0xfdfef4ec>
 2000898:	0101ffc4 	movi	r4,2047
 200089c:	113f9a1e 	bne	r2,r4,2000708 <__alt_mem_flash+0xfdfef708>
 20008a0:	4811883a 	mov	r8,r9
 20008a4:	3023883a 	mov	r17,r6
 20008a8:	1021883a 	mov	r16,r2
 20008ac:	3825883a 	mov	r18,r7
 20008b0:	003e9306 	br	2000300 <__alt_mem_flash+0xfdfef300>
 20008b4:	8000161e 	bne	r16,zero,2000910 <__adddf3+0x68c>
 20008b8:	444ab03a 	or	r5,r8,r17
 20008bc:	28005126 	beq	r5,zero,2000a04 <__adddf3+0x780>
 20008c0:	0108303a 	nor	r4,zero,r4
 20008c4:	20004d1e 	bne	r4,zero,20009fc <__adddf3+0x778>
 20008c8:	89a3883a 	add	r17,r17,r6
 20008cc:	4253883a 	add	r9,r8,r9
 20008d0:	898d803a 	cmpltu	r6,r17,r6
 20008d4:	3251883a 	add	r8,r6,r9
 20008d8:	1021883a 	mov	r16,r2
 20008dc:	003f0806 	br	2000500 <__alt_mem_flash+0xfdfef500>
 20008e0:	1000301e 	bne	r2,zero,20009a4 <__adddf3+0x720>
 20008e4:	4984b03a 	or	r2,r9,r6
 20008e8:	10007126 	beq	r2,zero,2000ab0 <__adddf3+0x82c>
 20008ec:	4811883a 	mov	r8,r9
 20008f0:	3023883a 	mov	r17,r6
 20008f4:	3825883a 	mov	r18,r7
 20008f8:	0401ffc4 	movi	r16,2047
 20008fc:	003e8006 	br	2000300 <__alt_mem_flash+0xfdfef300>
 2000900:	4462b03a 	or	r17,r8,r17
 2000904:	8822c03a 	cmpne	r17,r17,zero
 2000908:	0007883a 	mov	r3,zero
 200090c:	003f8b06 	br	200073c <__alt_mem_flash+0xfdfef73c>
 2000910:	0141ffc4 	movi	r5,2047
 2000914:	11403b26 	beq	r2,r5,2000a04 <__adddf3+0x780>
 2000918:	0109c83a 	sub	r4,zero,r4
 200091c:	42002034 	orhi	r8,r8,128
 2000920:	01400e04 	movi	r5,56
 2000924:	29006716 	blt	r5,r4,2000ac4 <__adddf3+0x840>
 2000928:	014007c4 	movi	r5,31
 200092c:	29007016 	blt	r5,r4,2000af0 <__adddf3+0x86c>
 2000930:	01400804 	movi	r5,32
 2000934:	290bc83a 	sub	r5,r5,r4
 2000938:	4154983a 	sll	r10,r8,r5
 200093c:	890ed83a 	srl	r7,r17,r4
 2000940:	894a983a 	sll	r5,r17,r5
 2000944:	4108d83a 	srl	r4,r8,r4
 2000948:	51e2b03a 	or	r17,r10,r7
 200094c:	280ac03a 	cmpne	r5,r5,zero
 2000950:	8962b03a 	or	r17,r17,r5
 2000954:	89a3883a 	add	r17,r17,r6
 2000958:	2253883a 	add	r9,r4,r9
 200095c:	898d803a 	cmpltu	r6,r17,r6
 2000960:	3251883a 	add	r8,r6,r9
 2000964:	1021883a 	mov	r16,r2
 2000968:	003ee506 	br	2000500 <__alt_mem_flash+0xfdfef500>
 200096c:	4984b03a 	or	r2,r9,r6
 2000970:	103e6326 	beq	r2,zero,2000300 <__alt_mem_flash+0xfdfef300>
 2000974:	8987c83a 	sub	r3,r17,r6
 2000978:	88c9803a 	cmpltu	r4,r17,r3
 200097c:	4245c83a 	sub	r2,r8,r9
 2000980:	1105c83a 	sub	r2,r2,r4
 2000984:	1100202c 	andhi	r4,r2,128
 2000988:	203ebb26 	beq	r4,zero,2000478 <__alt_mem_flash+0xfdfef478>
 200098c:	3463c83a 	sub	r17,r6,r17
 2000990:	4a07c83a 	sub	r3,r9,r8
 2000994:	344d803a 	cmpltu	r6,r6,r17
 2000998:	1991c83a 	sub	r8,r3,r6
 200099c:	3825883a 	mov	r18,r7
 20009a0:	003e5706 	br	2000300 <__alt_mem_flash+0xfdfef300>
 20009a4:	4984b03a 	or	r2,r9,r6
 20009a8:	10002e26 	beq	r2,zero,2000a64 <__adddf3+0x7e0>
 20009ac:	4004d0fa 	srli	r2,r8,3
 20009b0:	8822d0fa 	srli	r17,r17,3
 20009b4:	4010977a 	slli	r8,r8,29
 20009b8:	10c0022c 	andhi	r3,r2,8
 20009bc:	4462b03a 	or	r17,r8,r17
 20009c0:	18000826 	beq	r3,zero,20009e4 <__adddf3+0x760>
 20009c4:	4808d0fa 	srli	r4,r9,3
 20009c8:	20c0022c 	andhi	r3,r4,8
 20009cc:	1800051e 	bne	r3,zero,20009e4 <__adddf3+0x760>
 20009d0:	300cd0fa 	srli	r6,r6,3
 20009d4:	4806977a 	slli	r3,r9,29
 20009d8:	2005883a 	mov	r2,r4
 20009dc:	3825883a 	mov	r18,r7
 20009e0:	19a2b03a 	or	r17,r3,r6
 20009e4:	8810d77a 	srli	r8,r17,29
 20009e8:	100490fa 	slli	r2,r2,3
 20009ec:	882290fa 	slli	r17,r17,3
 20009f0:	0401ffc4 	movi	r16,2047
 20009f4:	4090b03a 	or	r8,r8,r2
 20009f8:	003e4106 	br	2000300 <__alt_mem_flash+0xfdfef300>
 20009fc:	0141ffc4 	movi	r5,2047
 2000a00:	117fc71e 	bne	r2,r5,2000920 <__alt_mem_flash+0xfdfef920>
 2000a04:	4811883a 	mov	r8,r9
 2000a08:	3023883a 	mov	r17,r6
 2000a0c:	1021883a 	mov	r16,r2
 2000a10:	003e3b06 	br	2000300 <__alt_mem_flash+0xfdfef300>
 2000a14:	10002f26 	beq	r2,zero,2000ad4 <__adddf3+0x850>
 2000a18:	4984b03a 	or	r2,r9,r6
 2000a1c:	10001126 	beq	r2,zero,2000a64 <__adddf3+0x7e0>
 2000a20:	4004d0fa 	srli	r2,r8,3
 2000a24:	8822d0fa 	srli	r17,r17,3
 2000a28:	4010977a 	slli	r8,r8,29
 2000a2c:	10c0022c 	andhi	r3,r2,8
 2000a30:	4462b03a 	or	r17,r8,r17
 2000a34:	183feb26 	beq	r3,zero,20009e4 <__alt_mem_flash+0xfdfef9e4>
 2000a38:	4808d0fa 	srli	r4,r9,3
 2000a3c:	20c0022c 	andhi	r3,r4,8
 2000a40:	183fe81e 	bne	r3,zero,20009e4 <__alt_mem_flash+0xfdfef9e4>
 2000a44:	300cd0fa 	srli	r6,r6,3
 2000a48:	4806977a 	slli	r3,r9,29
 2000a4c:	2005883a 	mov	r2,r4
 2000a50:	19a2b03a 	or	r17,r3,r6
 2000a54:	003fe306 	br	20009e4 <__alt_mem_flash+0xfdfef9e4>
 2000a58:	0011883a 	mov	r8,zero
 2000a5c:	0005883a 	mov	r2,zero
 2000a60:	003e3f06 	br	2000360 <__alt_mem_flash+0xfdfef360>
 2000a64:	0401ffc4 	movi	r16,2047
 2000a68:	003e2506 	br	2000300 <__alt_mem_flash+0xfdfef300>
 2000a6c:	0013883a 	mov	r9,zero
 2000a70:	003f8406 	br	2000884 <__alt_mem_flash+0xfdfef884>
 2000a74:	0005883a 	mov	r2,zero
 2000a78:	0007883a 	mov	r3,zero
 2000a7c:	003e8906 	br	20004a4 <__alt_mem_flash+0xfdfef4a4>
 2000a80:	197ff804 	addi	r5,r3,-32
 2000a84:	01000804 	movi	r4,32
 2000a88:	414ad83a 	srl	r5,r8,r5
 2000a8c:	19002426 	beq	r3,r4,2000b20 <__adddf3+0x89c>
 2000a90:	01001004 	movi	r4,64
 2000a94:	20c7c83a 	sub	r3,r4,r3
 2000a98:	40c6983a 	sll	r3,r8,r3
 2000a9c:	1c46b03a 	or	r3,r3,r17
 2000aa0:	1806c03a 	cmpne	r3,r3,zero
 2000aa4:	28e2b03a 	or	r17,r5,r3
 2000aa8:	0007883a 	mov	r3,zero
 2000aac:	003f2306 	br	200073c <__alt_mem_flash+0xfdfef73c>
 2000ab0:	0007883a 	mov	r3,zero
 2000ab4:	5811883a 	mov	r8,r11
 2000ab8:	00bfffc4 	movi	r2,-1
 2000abc:	0401ffc4 	movi	r16,2047
 2000ac0:	003e7806 	br	20004a4 <__alt_mem_flash+0xfdfef4a4>
 2000ac4:	4462b03a 	or	r17,r8,r17
 2000ac8:	8822c03a 	cmpne	r17,r17,zero
 2000acc:	0009883a 	mov	r4,zero
 2000ad0:	003fa006 	br	2000954 <__alt_mem_flash+0xfdfef954>
 2000ad4:	4811883a 	mov	r8,r9
 2000ad8:	3023883a 	mov	r17,r6
 2000adc:	0401ffc4 	movi	r16,2047
 2000ae0:	003e0706 	br	2000300 <__alt_mem_flash+0xfdfef300>
 2000ae4:	4811883a 	mov	r8,r9
 2000ae8:	3023883a 	mov	r17,r6
 2000aec:	003e0406 	br	2000300 <__alt_mem_flash+0xfdfef300>
 2000af0:	21fff804 	addi	r7,r4,-32
 2000af4:	01400804 	movi	r5,32
 2000af8:	41ced83a 	srl	r7,r8,r7
 2000afc:	21400a26 	beq	r4,r5,2000b28 <__adddf3+0x8a4>
 2000b00:	01401004 	movi	r5,64
 2000b04:	2909c83a 	sub	r4,r5,r4
 2000b08:	4108983a 	sll	r4,r8,r4
 2000b0c:	2448b03a 	or	r4,r4,r17
 2000b10:	2008c03a 	cmpne	r4,r4,zero
 2000b14:	3922b03a 	or	r17,r7,r4
 2000b18:	0009883a 	mov	r4,zero
 2000b1c:	003f8d06 	br	2000954 <__alt_mem_flash+0xfdfef954>
 2000b20:	0007883a 	mov	r3,zero
 2000b24:	003fdd06 	br	2000a9c <__alt_mem_flash+0xfdfefa9c>
 2000b28:	0009883a 	mov	r4,zero
 2000b2c:	003ff706 	br	2000b0c <__alt_mem_flash+0xfdfefb0c>

02000b30 <__muldf3>:
 2000b30:	deffee04 	addi	sp,sp,-72
 2000b34:	dd000c15 	stw	r20,48(sp)
 2000b38:	2828d53a 	srli	r20,r5,20
 2000b3c:	ddc00f15 	stw	r23,60(sp)
 2000b40:	282ed7fa 	srli	r23,r5,31
 2000b44:	dc000815 	stw	r16,32(sp)
 2000b48:	04000434 	movhi	r16,16
 2000b4c:	dcc00b15 	stw	r19,44(sp)
 2000b50:	843fffc4 	addi	r16,r16,-1
 2000b54:	dfc01115 	stw	ra,68(sp)
 2000b58:	df001015 	stw	fp,64(sp)
 2000b5c:	dd800e15 	stw	r22,56(sp)
 2000b60:	dd400d15 	stw	r21,52(sp)
 2000b64:	dc800a15 	stw	r18,40(sp)
 2000b68:	dc400915 	stw	r17,36(sp)
 2000b6c:	a501ffcc 	andi	r20,r20,2047
 2000b70:	2c20703a 	and	r16,r5,r16
 2000b74:	b827883a 	mov	r19,r23
 2000b78:	ba403fcc 	andi	r9,r23,255
 2000b7c:	a0006026 	beq	r20,zero,2000d00 <__muldf3+0x1d0>
 2000b80:	0081ffc4 	movi	r2,2047
 2000b84:	202d883a 	mov	r22,r4
 2000b88:	a0803626 	beq	r20,r2,2000c64 <__muldf3+0x134>
 2000b8c:	84000434 	orhi	r16,r16,16
 2000b90:	200ad77a 	srli	r5,r4,29
 2000b94:	800490fa 	slli	r2,r16,3
 2000b98:	202c90fa 	slli	r22,r4,3
 2000b9c:	a53f0044 	addi	r20,r20,-1023
 2000ba0:	28a0b03a 	or	r16,r5,r2
 2000ba4:	002b883a 	mov	r21,zero
 2000ba8:	000b883a 	mov	r5,zero
 2000bac:	3804d53a 	srli	r2,r7,20
 2000bb0:	3838d7fa 	srli	fp,r7,31
 2000bb4:	04400434 	movhi	r17,16
 2000bb8:	8c7fffc4 	addi	r17,r17,-1
 2000bbc:	1081ffcc 	andi	r2,r2,2047
 2000bc0:	3025883a 	mov	r18,r6
 2000bc4:	3c62703a 	and	r17,r7,r17
 2000bc8:	e2803fcc 	andi	r10,fp,255
 2000bcc:	10006d26 	beq	r2,zero,2000d84 <__muldf3+0x254>
 2000bd0:	00c1ffc4 	movi	r3,2047
 2000bd4:	10c06526 	beq	r2,r3,2000d6c <__muldf3+0x23c>
 2000bd8:	8c400434 	orhi	r17,r17,16
 2000bdc:	300ed77a 	srli	r7,r6,29
 2000be0:	880690fa 	slli	r3,r17,3
 2000be4:	302490fa 	slli	r18,r6,3
 2000be8:	10bf0044 	addi	r2,r2,-1023
 2000bec:	38e2b03a 	or	r17,r7,r3
 2000bf0:	000f883a 	mov	r7,zero
 2000bf4:	a087883a 	add	r3,r20,r2
 2000bf8:	010003c4 	movi	r4,15
 2000bfc:	3d44b03a 	or	r2,r7,r21
 2000c00:	e5ccf03a 	xor	r6,fp,r23
 2000c04:	1a000044 	addi	r8,r3,1
 2000c08:	20809b36 	bltu	r4,r2,2000e78 <__muldf3+0x348>
 2000c0c:	100490ba 	slli	r2,r2,2
 2000c10:	01008034 	movhi	r4,512
 2000c14:	21030904 	addi	r4,r4,3108
 2000c18:	1105883a 	add	r2,r2,r4
 2000c1c:	10800017 	ldw	r2,0(r2)
 2000c20:	1000683a 	jmp	r2
 2000c24:	02000e78 	rdprs	r8,zero,57
 2000c28:	02000c84 	movi	r8,50
 2000c2c:	02000c84 	movi	r8,50
 2000c30:	02000c80 	call	2000c8 <__alt_mem_sdram-0x1dfff38>
 2000c34:	02000e54 	movui	r8,57
 2000c38:	02000e54 	movui	r8,57
 2000c3c:	02000e3c 	xorhi	r8,zero,56
 2000c40:	02000c80 	call	2000c8 <__alt_mem_sdram-0x1dfff38>
 2000c44:	02000e54 	movui	r8,57
 2000c48:	02000e3c 	xorhi	r8,zero,56
 2000c4c:	02000e54 	movui	r8,57
 2000c50:	02000c80 	call	2000c8 <__alt_mem_sdram-0x1dfff38>
 2000c54:	02000e64 	muli	r8,zero,57
 2000c58:	02000e64 	muli	r8,zero,57
 2000c5c:	02000e64 	muli	r8,zero,57
 2000c60:	020011c4 	movi	r8,71
 2000c64:	2404b03a 	or	r2,r4,r16
 2000c68:	1000711e 	bne	r2,zero,2000e30 <__muldf3+0x300>
 2000c6c:	05400204 	movi	r21,8
 2000c70:	0021883a 	mov	r16,zero
 2000c74:	002d883a 	mov	r22,zero
 2000c78:	01400084 	movi	r5,2
 2000c7c:	003fcb06 	br	2000bac <__alt_mem_flash+0xfdfefbac>
 2000c80:	500d883a 	mov	r6,r10
 2000c84:	00800084 	movi	r2,2
 2000c88:	38805926 	beq	r7,r2,2000df0 <__muldf3+0x2c0>
 2000c8c:	008000c4 	movi	r2,3
 2000c90:	3881bb26 	beq	r7,r2,2001380 <__muldf3+0x850>
 2000c94:	00800044 	movi	r2,1
 2000c98:	3881961e 	bne	r7,r2,20012f4 <__muldf3+0x7c4>
 2000c9c:	3027883a 	mov	r19,r6
 2000ca0:	0005883a 	mov	r2,zero
 2000ca4:	0021883a 	mov	r16,zero
 2000ca8:	002d883a 	mov	r22,zero
 2000cac:	1004953a 	slli	r2,r2,20
 2000cb0:	98c03fcc 	andi	r3,r19,255
 2000cb4:	04400434 	movhi	r17,16
 2000cb8:	8c7fffc4 	addi	r17,r17,-1
 2000cbc:	180697fa 	slli	r3,r3,31
 2000cc0:	8460703a 	and	r16,r16,r17
 2000cc4:	80a0b03a 	or	r16,r16,r2
 2000cc8:	80c6b03a 	or	r3,r16,r3
 2000ccc:	b005883a 	mov	r2,r22
 2000cd0:	dfc01117 	ldw	ra,68(sp)
 2000cd4:	df001017 	ldw	fp,64(sp)
 2000cd8:	ddc00f17 	ldw	r23,60(sp)
 2000cdc:	dd800e17 	ldw	r22,56(sp)
 2000ce0:	dd400d17 	ldw	r21,52(sp)
 2000ce4:	dd000c17 	ldw	r20,48(sp)
 2000ce8:	dcc00b17 	ldw	r19,44(sp)
 2000cec:	dc800a17 	ldw	r18,40(sp)
 2000cf0:	dc400917 	ldw	r17,36(sp)
 2000cf4:	dc000817 	ldw	r16,32(sp)
 2000cf8:	dec01204 	addi	sp,sp,72
 2000cfc:	f800283a 	ret
 2000d00:	2404b03a 	or	r2,r4,r16
 2000d04:	202b883a 	mov	r21,r4
 2000d08:	10004426 	beq	r2,zero,2000e1c <__muldf3+0x2ec>
 2000d0c:	80015126 	beq	r16,zero,2001254 <__muldf3+0x724>
 2000d10:	8009883a 	mov	r4,r16
 2000d14:	d9800715 	stw	r6,28(sp)
 2000d18:	d9c00215 	stw	r7,8(sp)
 2000d1c:	da400415 	stw	r9,16(sp)
 2000d20:	20017300 	call	2001730 <__clzsi2>
 2000d24:	d9800717 	ldw	r6,28(sp)
 2000d28:	d9c00217 	ldw	r7,8(sp)
 2000d2c:	da400417 	ldw	r9,16(sp)
 2000d30:	113ffd44 	addi	r4,r2,-11
 2000d34:	00c00704 	movi	r3,28
 2000d38:	19014216 	blt	r3,r4,2001244 <__muldf3+0x714>
 2000d3c:	00c00744 	movi	r3,29
 2000d40:	15bffe04 	addi	r22,r2,-8
 2000d44:	1907c83a 	sub	r3,r3,r4
 2000d48:	85a0983a 	sll	r16,r16,r22
 2000d4c:	a8c6d83a 	srl	r3,r21,r3
 2000d50:	adac983a 	sll	r22,r21,r22
 2000d54:	1c20b03a 	or	r16,r3,r16
 2000d58:	1080fcc4 	addi	r2,r2,1011
 2000d5c:	00a9c83a 	sub	r20,zero,r2
 2000d60:	002b883a 	mov	r21,zero
 2000d64:	000b883a 	mov	r5,zero
 2000d68:	003f9006 	br	2000bac <__alt_mem_flash+0xfdfefbac>
 2000d6c:	3446b03a 	or	r3,r6,r17
 2000d70:	1800281e 	bne	r3,zero,2000e14 <__muldf3+0x2e4>
 2000d74:	0023883a 	mov	r17,zero
 2000d78:	0025883a 	mov	r18,zero
 2000d7c:	01c00084 	movi	r7,2
 2000d80:	003f9c06 	br	2000bf4 <__alt_mem_flash+0xfdfefbf4>
 2000d84:	3446b03a 	or	r3,r6,r17
 2000d88:	18001e26 	beq	r3,zero,2000e04 <__muldf3+0x2d4>
 2000d8c:	88012126 	beq	r17,zero,2001214 <__muldf3+0x6e4>
 2000d90:	8809883a 	mov	r4,r17
 2000d94:	d9400215 	stw	r5,8(sp)
 2000d98:	d9800715 	stw	r6,28(sp)
 2000d9c:	da400415 	stw	r9,16(sp)
 2000da0:	da800315 	stw	r10,12(sp)
 2000da4:	20017300 	call	2001730 <__clzsi2>
 2000da8:	d9400217 	ldw	r5,8(sp)
 2000dac:	d9800717 	ldw	r6,28(sp)
 2000db0:	da400417 	ldw	r9,16(sp)
 2000db4:	da800317 	ldw	r10,12(sp)
 2000db8:	113ffd44 	addi	r4,r2,-11
 2000dbc:	00c00704 	movi	r3,28
 2000dc0:	19011016 	blt	r3,r4,2001204 <__muldf3+0x6d4>
 2000dc4:	00c00744 	movi	r3,29
 2000dc8:	14bffe04 	addi	r18,r2,-8
 2000dcc:	1907c83a 	sub	r3,r3,r4
 2000dd0:	8ca2983a 	sll	r17,r17,r18
 2000dd4:	30c6d83a 	srl	r3,r6,r3
 2000dd8:	34a4983a 	sll	r18,r6,r18
 2000ddc:	1c62b03a 	or	r17,r3,r17
 2000de0:	1080fcc4 	addi	r2,r2,1011
 2000de4:	0085c83a 	sub	r2,zero,r2
 2000de8:	000f883a 	mov	r7,zero
 2000dec:	003f8106 	br	2000bf4 <__alt_mem_flash+0xfdfefbf4>
 2000df0:	3027883a 	mov	r19,r6
 2000df4:	0081ffc4 	movi	r2,2047
 2000df8:	0021883a 	mov	r16,zero
 2000dfc:	002d883a 	mov	r22,zero
 2000e00:	003faa06 	br	2000cac <__alt_mem_flash+0xfdfefcac>
 2000e04:	0023883a 	mov	r17,zero
 2000e08:	0025883a 	mov	r18,zero
 2000e0c:	01c00044 	movi	r7,1
 2000e10:	003f7806 	br	2000bf4 <__alt_mem_flash+0xfdfefbf4>
 2000e14:	01c000c4 	movi	r7,3
 2000e18:	003f7606 	br	2000bf4 <__alt_mem_flash+0xfdfefbf4>
 2000e1c:	05400104 	movi	r21,4
 2000e20:	0021883a 	mov	r16,zero
 2000e24:	002d883a 	mov	r22,zero
 2000e28:	01400044 	movi	r5,1
 2000e2c:	003f5f06 	br	2000bac <__alt_mem_flash+0xfdfefbac>
 2000e30:	05400304 	movi	r21,12
 2000e34:	014000c4 	movi	r5,3
 2000e38:	003f5c06 	br	2000bac <__alt_mem_flash+0xfdfefbac>
 2000e3c:	04000434 	movhi	r16,16
 2000e40:	0027883a 	mov	r19,zero
 2000e44:	843fffc4 	addi	r16,r16,-1
 2000e48:	05bfffc4 	movi	r22,-1
 2000e4c:	0081ffc4 	movi	r2,2047
 2000e50:	003f9606 	br	2000cac <__alt_mem_flash+0xfdfefcac>
 2000e54:	8023883a 	mov	r17,r16
 2000e58:	b025883a 	mov	r18,r22
 2000e5c:	280f883a 	mov	r7,r5
 2000e60:	003f8806 	br	2000c84 <__alt_mem_flash+0xfdfefc84>
 2000e64:	8023883a 	mov	r17,r16
 2000e68:	b025883a 	mov	r18,r22
 2000e6c:	480d883a 	mov	r6,r9
 2000e70:	280f883a 	mov	r7,r5
 2000e74:	003f8306 	br	2000c84 <__alt_mem_flash+0xfdfefc84>
 2000e78:	b026d43a 	srli	r19,r22,16
 2000e7c:	902ed43a 	srli	r23,r18,16
 2000e80:	b5bfffcc 	andi	r22,r22,65535
 2000e84:	94bfffcc 	andi	r18,r18,65535
 2000e88:	b00b883a 	mov	r5,r22
 2000e8c:	9009883a 	mov	r4,r18
 2000e90:	d8c00515 	stw	r3,20(sp)
 2000e94:	d9800715 	stw	r6,28(sp)
 2000e98:	da000615 	stw	r8,24(sp)
 2000e9c:	20017940 	call	2001794 <__mulsi3>
 2000ea0:	980b883a 	mov	r5,r19
 2000ea4:	9009883a 	mov	r4,r18
 2000ea8:	1029883a 	mov	r20,r2
 2000eac:	20017940 	call	2001794 <__mulsi3>
 2000eb0:	b80b883a 	mov	r5,r23
 2000eb4:	9809883a 	mov	r4,r19
 2000eb8:	102b883a 	mov	r21,r2
 2000ebc:	20017940 	call	2001794 <__mulsi3>
 2000ec0:	b809883a 	mov	r4,r23
 2000ec4:	b00b883a 	mov	r5,r22
 2000ec8:	1039883a 	mov	fp,r2
 2000ecc:	20017940 	call	2001794 <__mulsi3>
 2000ed0:	a008d43a 	srli	r4,r20,16
 2000ed4:	1545883a 	add	r2,r2,r21
 2000ed8:	d8c00517 	ldw	r3,20(sp)
 2000edc:	2085883a 	add	r2,r4,r2
 2000ee0:	d9800717 	ldw	r6,28(sp)
 2000ee4:	da000617 	ldw	r8,24(sp)
 2000ee8:	1540022e 	bgeu	r2,r21,2000ef4 <__muldf3+0x3c4>
 2000eec:	01000074 	movhi	r4,1
 2000ef0:	e139883a 	add	fp,fp,r4
 2000ef4:	100e943a 	slli	r7,r2,16
 2000ef8:	1004d43a 	srli	r2,r2,16
 2000efc:	882ad43a 	srli	r21,r17,16
 2000f00:	a53fffcc 	andi	r20,r20,65535
 2000f04:	8c7fffcc 	andi	r17,r17,65535
 2000f08:	3d29883a 	add	r20,r7,r20
 2000f0c:	b00b883a 	mov	r5,r22
 2000f10:	8809883a 	mov	r4,r17
 2000f14:	d8c00515 	stw	r3,20(sp)
 2000f18:	d9800715 	stw	r6,28(sp)
 2000f1c:	da000615 	stw	r8,24(sp)
 2000f20:	dd000115 	stw	r20,4(sp)
 2000f24:	d8800015 	stw	r2,0(sp)
 2000f28:	20017940 	call	2001794 <__mulsi3>
 2000f2c:	980b883a 	mov	r5,r19
 2000f30:	8809883a 	mov	r4,r17
 2000f34:	d8800215 	stw	r2,8(sp)
 2000f38:	20017940 	call	2001794 <__mulsi3>
 2000f3c:	9809883a 	mov	r4,r19
 2000f40:	a80b883a 	mov	r5,r21
 2000f44:	1029883a 	mov	r20,r2
 2000f48:	20017940 	call	2001794 <__mulsi3>
 2000f4c:	b00b883a 	mov	r5,r22
 2000f50:	a809883a 	mov	r4,r21
 2000f54:	d8800415 	stw	r2,16(sp)
 2000f58:	20017940 	call	2001794 <__mulsi3>
 2000f5c:	d9c00217 	ldw	r7,8(sp)
 2000f60:	1505883a 	add	r2,r2,r20
 2000f64:	d8c00517 	ldw	r3,20(sp)
 2000f68:	3826d43a 	srli	r19,r7,16
 2000f6c:	d9800717 	ldw	r6,28(sp)
 2000f70:	da000617 	ldw	r8,24(sp)
 2000f74:	9885883a 	add	r2,r19,r2
 2000f78:	da400417 	ldw	r9,16(sp)
 2000f7c:	1500022e 	bgeu	r2,r20,2000f88 <__muldf3+0x458>
 2000f80:	01000074 	movhi	r4,1
 2000f84:	4913883a 	add	r9,r9,r4
 2000f88:	1028d43a 	srli	r20,r2,16
 2000f8c:	1004943a 	slli	r2,r2,16
 2000f90:	802cd43a 	srli	r22,r16,16
 2000f94:	843fffcc 	andi	r16,r16,65535
 2000f98:	3cffffcc 	andi	r19,r7,65535
 2000f9c:	9009883a 	mov	r4,r18
 2000fa0:	800b883a 	mov	r5,r16
 2000fa4:	a269883a 	add	r20,r20,r9
 2000fa8:	d8c00515 	stw	r3,20(sp)
 2000fac:	d9800715 	stw	r6,28(sp)
 2000fb0:	da000615 	stw	r8,24(sp)
 2000fb4:	14e7883a 	add	r19,r2,r19
 2000fb8:	20017940 	call	2001794 <__mulsi3>
 2000fbc:	9009883a 	mov	r4,r18
 2000fc0:	b00b883a 	mov	r5,r22
 2000fc4:	d8800315 	stw	r2,12(sp)
 2000fc8:	20017940 	call	2001794 <__mulsi3>
 2000fcc:	b809883a 	mov	r4,r23
 2000fd0:	b00b883a 	mov	r5,r22
 2000fd4:	d8800215 	stw	r2,8(sp)
 2000fd8:	20017940 	call	2001794 <__mulsi3>
 2000fdc:	b80b883a 	mov	r5,r23
 2000fe0:	8009883a 	mov	r4,r16
 2000fe4:	d8800415 	stw	r2,16(sp)
 2000fe8:	20017940 	call	2001794 <__mulsi3>
 2000fec:	da800317 	ldw	r10,12(sp)
 2000ff0:	d9c00217 	ldw	r7,8(sp)
 2000ff4:	d9000017 	ldw	r4,0(sp)
 2000ff8:	502ed43a 	srli	r23,r10,16
 2000ffc:	11c5883a 	add	r2,r2,r7
 2001000:	24e5883a 	add	r18,r4,r19
 2001004:	b885883a 	add	r2,r23,r2
 2001008:	d8c00517 	ldw	r3,20(sp)
 200100c:	d9800717 	ldw	r6,28(sp)
 2001010:	da000617 	ldw	r8,24(sp)
 2001014:	da400417 	ldw	r9,16(sp)
 2001018:	11c0022e 	bgeu	r2,r7,2001024 <__muldf3+0x4f4>
 200101c:	01000074 	movhi	r4,1
 2001020:	4913883a 	add	r9,r9,r4
 2001024:	100ed43a 	srli	r7,r2,16
 2001028:	1004943a 	slli	r2,r2,16
 200102c:	55ffffcc 	andi	r23,r10,65535
 2001030:	3a53883a 	add	r9,r7,r9
 2001034:	8809883a 	mov	r4,r17
 2001038:	800b883a 	mov	r5,r16
 200103c:	d8c00515 	stw	r3,20(sp)
 2001040:	d9800715 	stw	r6,28(sp)
 2001044:	da000615 	stw	r8,24(sp)
 2001048:	da400415 	stw	r9,16(sp)
 200104c:	15ef883a 	add	r23,r2,r23
 2001050:	20017940 	call	2001794 <__mulsi3>
 2001054:	8809883a 	mov	r4,r17
 2001058:	b00b883a 	mov	r5,r22
 200105c:	d8800215 	stw	r2,8(sp)
 2001060:	20017940 	call	2001794 <__mulsi3>
 2001064:	b00b883a 	mov	r5,r22
 2001068:	a809883a 	mov	r4,r21
 200106c:	d8800315 	stw	r2,12(sp)
 2001070:	20017940 	call	2001794 <__mulsi3>
 2001074:	8009883a 	mov	r4,r16
 2001078:	a80b883a 	mov	r5,r21
 200107c:	1023883a 	mov	r17,r2
 2001080:	20017940 	call	2001794 <__mulsi3>
 2001084:	d9c00217 	ldw	r7,8(sp)
 2001088:	da800317 	ldw	r10,12(sp)
 200108c:	d8c00517 	ldw	r3,20(sp)
 2001090:	3808d43a 	srli	r4,r7,16
 2001094:	1285883a 	add	r2,r2,r10
 2001098:	d9800717 	ldw	r6,28(sp)
 200109c:	2085883a 	add	r2,r4,r2
 20010a0:	da000617 	ldw	r8,24(sp)
 20010a4:	da400417 	ldw	r9,16(sp)
 20010a8:	1280022e 	bgeu	r2,r10,20010b4 <__muldf3+0x584>
 20010ac:	01000074 	movhi	r4,1
 20010b0:	8923883a 	add	r17,r17,r4
 20010b4:	1008943a 	slli	r4,r2,16
 20010b8:	39ffffcc 	andi	r7,r7,65535
 20010bc:	e4b9883a 	add	fp,fp,r18
 20010c0:	21cf883a 	add	r7,r4,r7
 20010c4:	e4e7803a 	cmpltu	r19,fp,r19
 20010c8:	3d0f883a 	add	r7,r7,r20
 20010cc:	bf39883a 	add	fp,r23,fp
 20010d0:	99c9883a 	add	r4,r19,r7
 20010d4:	e5ef803a 	cmpltu	r23,fp,r23
 20010d8:	490b883a 	add	r5,r9,r4
 20010dc:	1004d43a 	srli	r2,r2,16
 20010e0:	b965883a 	add	r18,r23,r5
 20010e4:	24c9803a 	cmpltu	r4,r4,r19
 20010e8:	3d29803a 	cmpltu	r20,r7,r20
 20010ec:	a128b03a 	or	r20,r20,r4
 20010f0:	95ef803a 	cmpltu	r23,r18,r23
 20010f4:	2a53803a 	cmpltu	r9,r5,r9
 20010f8:	a0a9883a 	add	r20,r20,r2
 20010fc:	4deeb03a 	or	r23,r9,r23
 2001100:	a5ef883a 	add	r23,r20,r23
 2001104:	bc63883a 	add	r17,r23,r17
 2001108:	e004927a 	slli	r2,fp,9
 200110c:	d9000117 	ldw	r4,4(sp)
 2001110:	882e927a 	slli	r23,r17,9
 2001114:	9022d5fa 	srli	r17,r18,23
 2001118:	e038d5fa 	srli	fp,fp,23
 200111c:	1104b03a 	or	r2,r2,r4
 2001120:	9024927a 	slli	r18,r18,9
 2001124:	1004c03a 	cmpne	r2,r2,zero
 2001128:	bc62b03a 	or	r17,r23,r17
 200112c:	1738b03a 	or	fp,r2,fp
 2001130:	8880402c 	andhi	r2,r17,256
 2001134:	e4a4b03a 	or	r18,fp,r18
 2001138:	10000726 	beq	r2,zero,2001158 <__muldf3+0x628>
 200113c:	9006d07a 	srli	r3,r18,1
 2001140:	880497fa 	slli	r2,r17,31
 2001144:	9480004c 	andi	r18,r18,1
 2001148:	8822d07a 	srli	r17,r17,1
 200114c:	1ca4b03a 	or	r18,r3,r18
 2001150:	14a4b03a 	or	r18,r2,r18
 2001154:	4007883a 	mov	r3,r8
 2001158:	1880ffc4 	addi	r2,r3,1023
 200115c:	0080460e 	bge	zero,r2,2001278 <__muldf3+0x748>
 2001160:	910001cc 	andi	r4,r18,7
 2001164:	20000726 	beq	r4,zero,2001184 <__muldf3+0x654>
 2001168:	910003cc 	andi	r4,r18,15
 200116c:	01400104 	movi	r5,4
 2001170:	21400426 	beq	r4,r5,2001184 <__muldf3+0x654>
 2001174:	9149883a 	add	r4,r18,r5
 2001178:	24a5803a 	cmpltu	r18,r4,r18
 200117c:	8ca3883a 	add	r17,r17,r18
 2001180:	2025883a 	mov	r18,r4
 2001184:	8900402c 	andhi	r4,r17,256
 2001188:	20000426 	beq	r4,zero,200119c <__muldf3+0x66c>
 200118c:	18810004 	addi	r2,r3,1024
 2001190:	00ffc034 	movhi	r3,65280
 2001194:	18ffffc4 	addi	r3,r3,-1
 2001198:	88e2703a 	and	r17,r17,r3
 200119c:	00c1ff84 	movi	r3,2046
 20011a0:	18bf1316 	blt	r3,r2,2000df0 <__alt_mem_flash+0xfdfefdf0>
 20011a4:	882c977a 	slli	r22,r17,29
 20011a8:	9024d0fa 	srli	r18,r18,3
 20011ac:	8822927a 	slli	r17,r17,9
 20011b0:	1081ffcc 	andi	r2,r2,2047
 20011b4:	b4acb03a 	or	r22,r22,r18
 20011b8:	8820d33a 	srli	r16,r17,12
 20011bc:	3027883a 	mov	r19,r6
 20011c0:	003eba06 	br	2000cac <__alt_mem_flash+0xfdfefcac>
 20011c4:	8080022c 	andhi	r2,r16,8
 20011c8:	10000926 	beq	r2,zero,20011f0 <__muldf3+0x6c0>
 20011cc:	8880022c 	andhi	r2,r17,8
 20011d0:	1000071e 	bne	r2,zero,20011f0 <__muldf3+0x6c0>
 20011d4:	00800434 	movhi	r2,16
 20011d8:	8c000234 	orhi	r16,r17,8
 20011dc:	10bfffc4 	addi	r2,r2,-1
 20011e0:	e027883a 	mov	r19,fp
 20011e4:	80a0703a 	and	r16,r16,r2
 20011e8:	902d883a 	mov	r22,r18
 20011ec:	003f1706 	br	2000e4c <__alt_mem_flash+0xfdfefe4c>
 20011f0:	00800434 	movhi	r2,16
 20011f4:	84000234 	orhi	r16,r16,8
 20011f8:	10bfffc4 	addi	r2,r2,-1
 20011fc:	80a0703a 	and	r16,r16,r2
 2001200:	003f1206 	br	2000e4c <__alt_mem_flash+0xfdfefe4c>
 2001204:	147ff604 	addi	r17,r2,-40
 2001208:	3462983a 	sll	r17,r6,r17
 200120c:	0025883a 	mov	r18,zero
 2001210:	003ef306 	br	2000de0 <__alt_mem_flash+0xfdfefde0>
 2001214:	3009883a 	mov	r4,r6
 2001218:	d9400215 	stw	r5,8(sp)
 200121c:	d9800715 	stw	r6,28(sp)
 2001220:	da400415 	stw	r9,16(sp)
 2001224:	da800315 	stw	r10,12(sp)
 2001228:	20017300 	call	2001730 <__clzsi2>
 200122c:	10800804 	addi	r2,r2,32
 2001230:	da800317 	ldw	r10,12(sp)
 2001234:	da400417 	ldw	r9,16(sp)
 2001238:	d9800717 	ldw	r6,28(sp)
 200123c:	d9400217 	ldw	r5,8(sp)
 2001240:	003edd06 	br	2000db8 <__alt_mem_flash+0xfdfefdb8>
 2001244:	143ff604 	addi	r16,r2,-40
 2001248:	ac20983a 	sll	r16,r21,r16
 200124c:	002d883a 	mov	r22,zero
 2001250:	003ec106 	br	2000d58 <__alt_mem_flash+0xfdfefd58>
 2001254:	d9800715 	stw	r6,28(sp)
 2001258:	d9c00215 	stw	r7,8(sp)
 200125c:	da400415 	stw	r9,16(sp)
 2001260:	20017300 	call	2001730 <__clzsi2>
 2001264:	10800804 	addi	r2,r2,32
 2001268:	da400417 	ldw	r9,16(sp)
 200126c:	d9c00217 	ldw	r7,8(sp)
 2001270:	d9800717 	ldw	r6,28(sp)
 2001274:	003eae06 	br	2000d30 <__alt_mem_flash+0xfdfefd30>
 2001278:	00c00044 	movi	r3,1
 200127c:	1887c83a 	sub	r3,r3,r2
 2001280:	01000e04 	movi	r4,56
 2001284:	20fe8516 	blt	r4,r3,2000c9c <__alt_mem_flash+0xfdfefc9c>
 2001288:	010007c4 	movi	r4,31
 200128c:	20c01b16 	blt	r4,r3,20012fc <__muldf3+0x7cc>
 2001290:	00800804 	movi	r2,32
 2001294:	10c5c83a 	sub	r2,r2,r3
 2001298:	888a983a 	sll	r5,r17,r2
 200129c:	90c8d83a 	srl	r4,r18,r3
 20012a0:	9084983a 	sll	r2,r18,r2
 20012a4:	88e2d83a 	srl	r17,r17,r3
 20012a8:	2906b03a 	or	r3,r5,r4
 20012ac:	1004c03a 	cmpne	r2,r2,zero
 20012b0:	1886b03a 	or	r3,r3,r2
 20012b4:	188001cc 	andi	r2,r3,7
 20012b8:	10000726 	beq	r2,zero,20012d8 <__muldf3+0x7a8>
 20012bc:	188003cc 	andi	r2,r3,15
 20012c0:	01000104 	movi	r4,4
 20012c4:	11000426 	beq	r2,r4,20012d8 <__muldf3+0x7a8>
 20012c8:	1805883a 	mov	r2,r3
 20012cc:	10c00104 	addi	r3,r2,4
 20012d0:	1885803a 	cmpltu	r2,r3,r2
 20012d4:	88a3883a 	add	r17,r17,r2
 20012d8:	8880202c 	andhi	r2,r17,128
 20012dc:	10001c26 	beq	r2,zero,2001350 <__muldf3+0x820>
 20012e0:	3027883a 	mov	r19,r6
 20012e4:	00800044 	movi	r2,1
 20012e8:	0021883a 	mov	r16,zero
 20012ec:	002d883a 	mov	r22,zero
 20012f0:	003e6e06 	br	2000cac <__alt_mem_flash+0xfdfefcac>
 20012f4:	4007883a 	mov	r3,r8
 20012f8:	003f9706 	br	2001158 <__alt_mem_flash+0xfdff0158>
 20012fc:	017ff844 	movi	r5,-31
 2001300:	2885c83a 	sub	r2,r5,r2
 2001304:	888ad83a 	srl	r5,r17,r2
 2001308:	00800804 	movi	r2,32
 200130c:	18801a26 	beq	r3,r2,2001378 <__muldf3+0x848>
 2001310:	01001004 	movi	r4,64
 2001314:	20c7c83a 	sub	r3,r4,r3
 2001318:	88e2983a 	sll	r17,r17,r3
 200131c:	8ca4b03a 	or	r18,r17,r18
 2001320:	9004c03a 	cmpne	r2,r18,zero
 2001324:	2884b03a 	or	r2,r5,r2
 2001328:	144001cc 	andi	r17,r2,7
 200132c:	88000d1e 	bne	r17,zero,2001364 <__muldf3+0x834>
 2001330:	0021883a 	mov	r16,zero
 2001334:	102cd0fa 	srli	r22,r2,3
 2001338:	3027883a 	mov	r19,r6
 200133c:	0005883a 	mov	r2,zero
 2001340:	b46cb03a 	or	r22,r22,r17
 2001344:	003e5906 	br	2000cac <__alt_mem_flash+0xfdfefcac>
 2001348:	1007883a 	mov	r3,r2
 200134c:	0023883a 	mov	r17,zero
 2001350:	8820927a 	slli	r16,r17,9
 2001354:	1805883a 	mov	r2,r3
 2001358:	8822977a 	slli	r17,r17,29
 200135c:	8020d33a 	srli	r16,r16,12
 2001360:	003ff406 	br	2001334 <__alt_mem_flash+0xfdff0334>
 2001364:	10c003cc 	andi	r3,r2,15
 2001368:	01000104 	movi	r4,4
 200136c:	193ff626 	beq	r3,r4,2001348 <__alt_mem_flash+0xfdff0348>
 2001370:	0023883a 	mov	r17,zero
 2001374:	003fd506 	br	20012cc <__alt_mem_flash+0xfdff02cc>
 2001378:	0023883a 	mov	r17,zero
 200137c:	003fe706 	br	200131c <__alt_mem_flash+0xfdff031c>
 2001380:	00800434 	movhi	r2,16
 2001384:	8c000234 	orhi	r16,r17,8
 2001388:	10bfffc4 	addi	r2,r2,-1
 200138c:	3027883a 	mov	r19,r6
 2001390:	80a0703a 	and	r16,r16,r2
 2001394:	902d883a 	mov	r22,r18
 2001398:	003eac06 	br	2000e4c <__alt_mem_flash+0xfdfefe4c>

0200139c <__floatsidf>:
 200139c:	defffd04 	addi	sp,sp,-12
 20013a0:	dfc00215 	stw	ra,8(sp)
 20013a4:	dc400115 	stw	r17,4(sp)
 20013a8:	dc000015 	stw	r16,0(sp)
 20013ac:	20002b26 	beq	r4,zero,200145c <__floatsidf+0xc0>
 20013b0:	2023883a 	mov	r17,r4
 20013b4:	2020d7fa 	srli	r16,r4,31
 20013b8:	20002d16 	blt	r4,zero,2001470 <__floatsidf+0xd4>
 20013bc:	8809883a 	mov	r4,r17
 20013c0:	20017300 	call	2001730 <__clzsi2>
 20013c4:	01410784 	movi	r5,1054
 20013c8:	288bc83a 	sub	r5,r5,r2
 20013cc:	01010cc4 	movi	r4,1075
 20013d0:	2149c83a 	sub	r4,r4,r5
 20013d4:	00c007c4 	movi	r3,31
 20013d8:	1900160e 	bge	r3,r4,2001434 <__floatsidf+0x98>
 20013dc:	00c104c4 	movi	r3,1043
 20013e0:	1947c83a 	sub	r3,r3,r5
 20013e4:	88c6983a 	sll	r3,r17,r3
 20013e8:	00800434 	movhi	r2,16
 20013ec:	10bfffc4 	addi	r2,r2,-1
 20013f0:	1886703a 	and	r3,r3,r2
 20013f4:	2941ffcc 	andi	r5,r5,2047
 20013f8:	800d883a 	mov	r6,r16
 20013fc:	0005883a 	mov	r2,zero
 2001400:	280a953a 	slli	r5,r5,20
 2001404:	31803fcc 	andi	r6,r6,255
 2001408:	01000434 	movhi	r4,16
 200140c:	300c97fa 	slli	r6,r6,31
 2001410:	213fffc4 	addi	r4,r4,-1
 2001414:	1906703a 	and	r3,r3,r4
 2001418:	1946b03a 	or	r3,r3,r5
 200141c:	1986b03a 	or	r3,r3,r6
 2001420:	dfc00217 	ldw	ra,8(sp)
 2001424:	dc400117 	ldw	r17,4(sp)
 2001428:	dc000017 	ldw	r16,0(sp)
 200142c:	dec00304 	addi	sp,sp,12
 2001430:	f800283a 	ret
 2001434:	00c002c4 	movi	r3,11
 2001438:	1887c83a 	sub	r3,r3,r2
 200143c:	88c6d83a 	srl	r3,r17,r3
 2001440:	8904983a 	sll	r2,r17,r4
 2001444:	01000434 	movhi	r4,16
 2001448:	213fffc4 	addi	r4,r4,-1
 200144c:	2941ffcc 	andi	r5,r5,2047
 2001450:	1906703a 	and	r3,r3,r4
 2001454:	800d883a 	mov	r6,r16
 2001458:	003fe906 	br	2001400 <__alt_mem_flash+0xfdff0400>
 200145c:	000d883a 	mov	r6,zero
 2001460:	000b883a 	mov	r5,zero
 2001464:	0007883a 	mov	r3,zero
 2001468:	0005883a 	mov	r2,zero
 200146c:	003fe406 	br	2001400 <__alt_mem_flash+0xfdff0400>
 2001470:	0123c83a 	sub	r17,zero,r4
 2001474:	003fd106 	br	20013bc <__alt_mem_flash+0xfdff03bc>

02001478 <__extendsfdf2>:
 2001478:	200ad5fa 	srli	r5,r4,23
 200147c:	defffd04 	addi	sp,sp,-12
 2001480:	dc400115 	stw	r17,4(sp)
 2001484:	29403fcc 	andi	r5,r5,255
 2001488:	29800044 	addi	r6,r5,1
 200148c:	04402034 	movhi	r17,128
 2001490:	dc000015 	stw	r16,0(sp)
 2001494:	8c7fffc4 	addi	r17,r17,-1
 2001498:	dfc00215 	stw	ra,8(sp)
 200149c:	31803fcc 	andi	r6,r6,255
 20014a0:	00800044 	movi	r2,1
 20014a4:	8922703a 	and	r17,r17,r4
 20014a8:	2020d7fa 	srli	r16,r4,31
 20014ac:	1180110e 	bge	r2,r6,20014f4 <__extendsfdf2+0x7c>
 20014b0:	880cd0fa 	srli	r6,r17,3
 20014b4:	8822977a 	slli	r17,r17,29
 20014b8:	2940e004 	addi	r5,r5,896
 20014bc:	2941ffcc 	andi	r5,r5,2047
 20014c0:	2804953a 	slli	r2,r5,20
 20014c4:	01400434 	movhi	r5,16
 20014c8:	800697fa 	slli	r3,r16,31
 20014cc:	297fffc4 	addi	r5,r5,-1
 20014d0:	314a703a 	and	r5,r6,r5
 20014d4:	288ab03a 	or	r5,r5,r2
 20014d8:	28c6b03a 	or	r3,r5,r3
 20014dc:	8805883a 	mov	r2,r17
 20014e0:	dfc00217 	ldw	ra,8(sp)
 20014e4:	dc400117 	ldw	r17,4(sp)
 20014e8:	dc000017 	ldw	r16,0(sp)
 20014ec:	dec00304 	addi	sp,sp,12
 20014f0:	f800283a 	ret
 20014f4:	2800111e 	bne	r5,zero,200153c <__extendsfdf2+0xc4>
 20014f8:	88001c26 	beq	r17,zero,200156c <__extendsfdf2+0xf4>
 20014fc:	8809883a 	mov	r4,r17
 2001500:	20017300 	call	2001730 <__clzsi2>
 2001504:	00c00284 	movi	r3,10
 2001508:	18801b16 	blt	r3,r2,2001578 <__extendsfdf2+0x100>
 200150c:	018002c4 	movi	r6,11
 2001510:	308dc83a 	sub	r6,r6,r2
 2001514:	11000544 	addi	r4,r2,21
 2001518:	8986d83a 	srl	r3,r17,r6
 200151c:	8922983a 	sll	r17,r17,r4
 2001520:	0180e244 	movi	r6,905
 2001524:	01400434 	movhi	r5,16
 2001528:	3085c83a 	sub	r2,r6,r2
 200152c:	297fffc4 	addi	r5,r5,-1
 2001530:	194c703a 	and	r6,r3,r5
 2001534:	1141ffcc 	andi	r5,r2,2047
 2001538:	003fe006 	br	20014bc <__alt_mem_flash+0xfdff04bc>
 200153c:	88000826 	beq	r17,zero,2001560 <__extendsfdf2+0xe8>
 2001540:	880cd0fa 	srli	r6,r17,3
 2001544:	00800434 	movhi	r2,16
 2001548:	10bfffc4 	addi	r2,r2,-1
 200154c:	31800234 	orhi	r6,r6,8
 2001550:	8822977a 	slli	r17,r17,29
 2001554:	308c703a 	and	r6,r6,r2
 2001558:	0141ffc4 	movi	r5,2047
 200155c:	003fd706 	br	20014bc <__alt_mem_flash+0xfdff04bc>
 2001560:	0141ffc4 	movi	r5,2047
 2001564:	000d883a 	mov	r6,zero
 2001568:	003fd406 	br	20014bc <__alt_mem_flash+0xfdff04bc>
 200156c:	000b883a 	mov	r5,zero
 2001570:	000d883a 	mov	r6,zero
 2001574:	003fd106 	br	20014bc <__alt_mem_flash+0xfdff04bc>
 2001578:	11bffd44 	addi	r6,r2,-11
 200157c:	8986983a 	sll	r3,r17,r6
 2001580:	0023883a 	mov	r17,zero
 2001584:	003fe606 	br	2001520 <__alt_mem_flash+0xfdff0520>

02001588 <__truncdfsf2>:
 2001588:	2810d53a 	srli	r8,r5,20
 200158c:	01c00434 	movhi	r7,16
 2001590:	39ffffc4 	addi	r7,r7,-1
 2001594:	29ce703a 	and	r7,r5,r7
 2001598:	4201ffcc 	andi	r8,r8,2047
 200159c:	380e90fa 	slli	r7,r7,3
 20015a0:	200cd77a 	srli	r6,r4,29
 20015a4:	42400044 	addi	r9,r8,1
 20015a8:	4a41ffcc 	andi	r9,r9,2047
 20015ac:	00c00044 	movi	r3,1
 20015b0:	280ad7fa 	srli	r5,r5,31
 20015b4:	31ceb03a 	or	r7,r6,r7
 20015b8:	200490fa 	slli	r2,r4,3
 20015bc:	1a40230e 	bge	r3,r9,200164c <__truncdfsf2+0xc4>
 20015c0:	40ff2004 	addi	r3,r8,-896
 20015c4:	01803f84 	movi	r6,254
 20015c8:	30c01516 	blt	r6,r3,2001620 <__truncdfsf2+0x98>
 20015cc:	00c0380e 	bge	zero,r3,20016b0 <__truncdfsf2+0x128>
 20015d0:	200c91ba 	slli	r6,r4,6
 20015d4:	380e90fa 	slli	r7,r7,3
 20015d8:	1004d77a 	srli	r2,r2,29
 20015dc:	300cc03a 	cmpne	r6,r6,zero
 20015e0:	31ccb03a 	or	r6,r6,r7
 20015e4:	308cb03a 	or	r6,r6,r2
 20015e8:	308001cc 	andi	r2,r6,7
 20015ec:	10000426 	beq	r2,zero,2001600 <__truncdfsf2+0x78>
 20015f0:	308003cc 	andi	r2,r6,15
 20015f4:	01000104 	movi	r4,4
 20015f8:	11000126 	beq	r2,r4,2001600 <__truncdfsf2+0x78>
 20015fc:	31800104 	addi	r6,r6,4
 2001600:	3081002c 	andhi	r2,r6,1024
 2001604:	10001626 	beq	r2,zero,2001660 <__truncdfsf2+0xd8>
 2001608:	18c00044 	addi	r3,r3,1
 200160c:	00803fc4 	movi	r2,255
 2001610:	18800326 	beq	r3,r2,2001620 <__truncdfsf2+0x98>
 2001614:	300c91ba 	slli	r6,r6,6
 2001618:	300cd27a 	srli	r6,r6,9
 200161c:	00000206 	br	2001628 <__truncdfsf2+0xa0>
 2001620:	00ffffc4 	movi	r3,-1
 2001624:	000d883a 	mov	r6,zero
 2001628:	18c03fcc 	andi	r3,r3,255
 200162c:	180895fa 	slli	r4,r3,23
 2001630:	00c02034 	movhi	r3,128
 2001634:	280a97fa 	slli	r5,r5,31
 2001638:	18ffffc4 	addi	r3,r3,-1
 200163c:	30c6703a 	and	r3,r6,r3
 2001640:	1906b03a 	or	r3,r3,r4
 2001644:	1944b03a 	or	r2,r3,r5
 2001648:	f800283a 	ret
 200164c:	40000b1e 	bne	r8,zero,200167c <__truncdfsf2+0xf4>
 2001650:	388cb03a 	or	r6,r7,r2
 2001654:	0007883a 	mov	r3,zero
 2001658:	30000426 	beq	r6,zero,200166c <__truncdfsf2+0xe4>
 200165c:	01800144 	movi	r6,5
 2001660:	00803fc4 	movi	r2,255
 2001664:	300cd0fa 	srli	r6,r6,3
 2001668:	18800a26 	beq	r3,r2,2001694 <__truncdfsf2+0x10c>
 200166c:	00802034 	movhi	r2,128
 2001670:	10bfffc4 	addi	r2,r2,-1
 2001674:	308c703a 	and	r6,r6,r2
 2001678:	003feb06 	br	2001628 <__alt_mem_flash+0xfdff0628>
 200167c:	3888b03a 	or	r4,r7,r2
 2001680:	203fe726 	beq	r4,zero,2001620 <__alt_mem_flash+0xfdff0620>
 2001684:	380c90fa 	slli	r6,r7,3
 2001688:	00c03fc4 	movi	r3,255
 200168c:	31808034 	orhi	r6,r6,512
 2001690:	003fd506 	br	20015e8 <__alt_mem_flash+0xfdff05e8>
 2001694:	303fe226 	beq	r6,zero,2001620 <__alt_mem_flash+0xfdff0620>
 2001698:	00802034 	movhi	r2,128
 200169c:	31801034 	orhi	r6,r6,64
 20016a0:	10bfffc4 	addi	r2,r2,-1
 20016a4:	00ffffc4 	movi	r3,-1
 20016a8:	308c703a 	and	r6,r6,r2
 20016ac:	003fde06 	br	2001628 <__alt_mem_flash+0xfdff0628>
 20016b0:	013ffa44 	movi	r4,-23
 20016b4:	19000e16 	blt	r3,r4,20016f0 <__truncdfsf2+0x168>
 20016b8:	01000784 	movi	r4,30
 20016bc:	20c9c83a 	sub	r4,r4,r3
 20016c0:	018007c4 	movi	r6,31
 20016c4:	39c02034 	orhi	r7,r7,128
 20016c8:	31000b16 	blt	r6,r4,20016f8 <__truncdfsf2+0x170>
 20016cc:	423f2084 	addi	r8,r8,-894
 20016d0:	120c983a 	sll	r6,r2,r8
 20016d4:	3a0e983a 	sll	r7,r7,r8
 20016d8:	1104d83a 	srl	r2,r2,r4
 20016dc:	300cc03a 	cmpne	r6,r6,zero
 20016e0:	31ceb03a 	or	r7,r6,r7
 20016e4:	388cb03a 	or	r6,r7,r2
 20016e8:	0007883a 	mov	r3,zero
 20016ec:	003fbe06 	br	20015e8 <__alt_mem_flash+0xfdff05e8>
 20016f0:	0007883a 	mov	r3,zero
 20016f4:	003fd906 	br	200165c <__alt_mem_flash+0xfdff065c>
 20016f8:	01bfff84 	movi	r6,-2
 20016fc:	30cdc83a 	sub	r6,r6,r3
 2001700:	00c00804 	movi	r3,32
 2001704:	398cd83a 	srl	r6,r7,r6
 2001708:	20c00726 	beq	r4,r3,2001728 <__truncdfsf2+0x1a0>
 200170c:	423f2884 	addi	r8,r8,-862
 2001710:	3a0e983a 	sll	r7,r7,r8
 2001714:	3884b03a 	or	r2,r7,r2
 2001718:	1004c03a 	cmpne	r2,r2,zero
 200171c:	118cb03a 	or	r6,r2,r6
 2001720:	0007883a 	mov	r3,zero
 2001724:	003fb006 	br	20015e8 <__alt_mem_flash+0xfdff05e8>
 2001728:	000f883a 	mov	r7,zero
 200172c:	003ff906 	br	2001714 <__alt_mem_flash+0xfdff0714>

02001730 <__clzsi2>:
 2001730:	00bfffd4 	movui	r2,65535
 2001734:	11000536 	bltu	r2,r4,200174c <__clzsi2+0x1c>
 2001738:	00803fc4 	movi	r2,255
 200173c:	11000f36 	bltu	r2,r4,200177c <__clzsi2+0x4c>
 2001740:	00800804 	movi	r2,32
 2001744:	0007883a 	mov	r3,zero
 2001748:	00000506 	br	2001760 <__clzsi2+0x30>
 200174c:	00804034 	movhi	r2,256
 2001750:	10bfffc4 	addi	r2,r2,-1
 2001754:	11000c2e 	bgeu	r2,r4,2001788 <__clzsi2+0x58>
 2001758:	00800204 	movi	r2,8
 200175c:	00c00604 	movi	r3,24
 2001760:	20c8d83a 	srl	r4,r4,r3
 2001764:	00c08074 	movhi	r3,513
 2001768:	18c63604 	addi	r3,r3,6360
 200176c:	1909883a 	add	r4,r3,r4
 2001770:	20c00003 	ldbu	r3,0(r4)
 2001774:	10c5c83a 	sub	r2,r2,r3
 2001778:	f800283a 	ret
 200177c:	00800604 	movi	r2,24
 2001780:	00c00204 	movi	r3,8
 2001784:	003ff606 	br	2001760 <__alt_mem_flash+0xfdff0760>
 2001788:	00800404 	movi	r2,16
 200178c:	1007883a 	mov	r3,r2
 2001790:	003ff306 	br	2001760 <__alt_mem_flash+0xfdff0760>

02001794 <__mulsi3>:
 2001794:	0005883a 	mov	r2,zero
 2001798:	20000726 	beq	r4,zero,20017b8 <__mulsi3+0x24>
 200179c:	20c0004c 	andi	r3,r4,1
 20017a0:	2008d07a 	srli	r4,r4,1
 20017a4:	18000126 	beq	r3,zero,20017ac <__mulsi3+0x18>
 20017a8:	1145883a 	add	r2,r2,r5
 20017ac:	294b883a 	add	r5,r5,r5
 20017b0:	203ffa1e 	bne	r4,zero,200179c <__alt_mem_flash+0xfdff079c>
 20017b4:	f800283a 	ret
 20017b8:	f800283a 	ret

020017bc <_fprintf_r>:
 20017bc:	defffe04 	addi	sp,sp,-8
 20017c0:	2809883a 	mov	r4,r5
 20017c4:	300b883a 	mov	r5,r6
 20017c8:	dfc00015 	stw	ra,0(sp)
 20017cc:	d9c00115 	stw	r7,4(sp)
 20017d0:	d9800104 	addi	r6,sp,4
 20017d4:	2003ae40 	call	2003ae4 <__vfprintf_internal>
 20017d8:	dfc00017 	ldw	ra,0(sp)
 20017dc:	dec00204 	addi	sp,sp,8
 20017e0:	f800283a 	ret

020017e4 <fprintf>:
 20017e4:	defffd04 	addi	sp,sp,-12
 20017e8:	dfc00015 	stw	ra,0(sp)
 20017ec:	d9800115 	stw	r6,4(sp)
 20017f0:	d9c00215 	stw	r7,8(sp)
 20017f4:	d9800104 	addi	r6,sp,4
 20017f8:	2003ae40 	call	2003ae4 <__vfprintf_internal>
 20017fc:	dfc00017 	ldw	ra,0(sp)
 2001800:	dec00304 	addi	sp,sp,12
 2001804:	f800283a 	ret

02001808 <___vfprintf_internal_r>:
 2001808:	deffb804 	addi	sp,sp,-288
 200180c:	dfc04715 	stw	ra,284(sp)
 2001810:	ddc04515 	stw	r23,276(sp)
 2001814:	dd404315 	stw	r21,268(sp)
 2001818:	d9002d15 	stw	r4,180(sp)
 200181c:	282f883a 	mov	r23,r5
 2001820:	302b883a 	mov	r21,r6
 2001824:	d9c02e15 	stw	r7,184(sp)
 2001828:	df004615 	stw	fp,280(sp)
 200182c:	dd804415 	stw	r22,272(sp)
 2001830:	dd004215 	stw	r20,264(sp)
 2001834:	dcc04115 	stw	r19,260(sp)
 2001838:	dc804015 	stw	r18,256(sp)
 200183c:	dc403f15 	stw	r17,252(sp)
 2001840:	dc003e15 	stw	r16,248(sp)
 2001844:	20062800 	call	2006280 <_localeconv_r>
 2001848:	10800017 	ldw	r2,0(r2)
 200184c:	1009883a 	mov	r4,r2
 2001850:	d8803415 	stw	r2,208(sp)
 2001854:	20083640 	call	2008364 <strlen>
 2001858:	d8803715 	stw	r2,220(sp)
 200185c:	d8802d17 	ldw	r2,180(sp)
 2001860:	10000226 	beq	r2,zero,200186c <___vfprintf_internal_r+0x64>
 2001864:	10800e17 	ldw	r2,56(r2)
 2001868:	1000fb26 	beq	r2,zero,2001c58 <___vfprintf_internal_r+0x450>
 200186c:	b880030b 	ldhu	r2,12(r23)
 2001870:	10c8000c 	andi	r3,r2,8192
 2001874:	1800061e 	bne	r3,zero,2001890 <___vfprintf_internal_r+0x88>
 2001878:	b9001917 	ldw	r4,100(r23)
 200187c:	00f7ffc4 	movi	r3,-8193
 2001880:	10880014 	ori	r2,r2,8192
 2001884:	20c6703a 	and	r3,r4,r3
 2001888:	b880030d 	sth	r2,12(r23)
 200188c:	b8c01915 	stw	r3,100(r23)
 2001890:	10c0020c 	andi	r3,r2,8
 2001894:	1800c326 	beq	r3,zero,2001ba4 <___vfprintf_internal_r+0x39c>
 2001898:	b8c00417 	ldw	r3,16(r23)
 200189c:	1800c126 	beq	r3,zero,2001ba4 <___vfprintf_internal_r+0x39c>
 20018a0:	1080068c 	andi	r2,r2,26
 20018a4:	00c00284 	movi	r3,10
 20018a8:	10c0c626 	beq	r2,r3,2001bc4 <___vfprintf_internal_r+0x3bc>
 20018ac:	d8c00404 	addi	r3,sp,16
 20018b0:	05008074 	movhi	r20,513
 20018b4:	d9001e04 	addi	r4,sp,120
 20018b8:	a5068784 	addi	r20,r20,6686
 20018bc:	d8c01e15 	stw	r3,120(sp)
 20018c0:	d8002015 	stw	zero,128(sp)
 20018c4:	d8001f15 	stw	zero,124(sp)
 20018c8:	d8003315 	stw	zero,204(sp)
 20018cc:	d8003615 	stw	zero,216(sp)
 20018d0:	d8003815 	stw	zero,224(sp)
 20018d4:	1811883a 	mov	r8,r3
 20018d8:	d8003915 	stw	zero,228(sp)
 20018dc:	d8003a15 	stw	zero,232(sp)
 20018e0:	d8002f15 	stw	zero,188(sp)
 20018e4:	d9002815 	stw	r4,160(sp)
 20018e8:	a8800007 	ldb	r2,0(r21)
 20018ec:	10028b26 	beq	r2,zero,200231c <___vfprintf_internal_r+0xb14>
 20018f0:	00c00944 	movi	r3,37
 20018f4:	a823883a 	mov	r17,r21
 20018f8:	10c0021e 	bne	r2,r3,2001904 <___vfprintf_internal_r+0xfc>
 20018fc:	00001406 	br	2001950 <___vfprintf_internal_r+0x148>
 2001900:	10c00326 	beq	r2,r3,2001910 <___vfprintf_internal_r+0x108>
 2001904:	8c400044 	addi	r17,r17,1
 2001908:	88800007 	ldb	r2,0(r17)
 200190c:	103ffc1e 	bne	r2,zero,2001900 <__alt_mem_flash+0xfdff0900>
 2001910:	8d61c83a 	sub	r16,r17,r21
 2001914:	80000e26 	beq	r16,zero,2001950 <___vfprintf_internal_r+0x148>
 2001918:	d8c02017 	ldw	r3,128(sp)
 200191c:	d8801f17 	ldw	r2,124(sp)
 2001920:	45400015 	stw	r21,0(r8)
 2001924:	1c07883a 	add	r3,r3,r16
 2001928:	10800044 	addi	r2,r2,1
 200192c:	d8c02015 	stw	r3,128(sp)
 2001930:	44000115 	stw	r16,4(r8)
 2001934:	d8801f15 	stw	r2,124(sp)
 2001938:	00c001c4 	movi	r3,7
 200193c:	1880a916 	blt	r3,r2,2001be4 <___vfprintf_internal_r+0x3dc>
 2001940:	42000204 	addi	r8,r8,8
 2001944:	d9402f17 	ldw	r5,188(sp)
 2001948:	2c0b883a 	add	r5,r5,r16
 200194c:	d9402f15 	stw	r5,188(sp)
 2001950:	88800007 	ldb	r2,0(r17)
 2001954:	1000aa26 	beq	r2,zero,2001c00 <___vfprintf_internal_r+0x3f8>
 2001958:	8d400044 	addi	r21,r17,1
 200195c:	8c400047 	ldb	r17,1(r17)
 2001960:	0021883a 	mov	r16,zero
 2001964:	00bfffc4 	movi	r2,-1
 2001968:	0025883a 	mov	r18,zero
 200196c:	dc002905 	stb	r16,164(sp)
 2001970:	d8002785 	stb	zero,158(sp)
 2001974:	d8002b05 	stb	zero,172(sp)
 2001978:	d8802a15 	stw	r2,168(sp)
 200197c:	d8003115 	stw	zero,196(sp)
 2001980:	04c01604 	movi	r19,88
 2001984:	05800244 	movi	r22,9
 2001988:	9021883a 	mov	r16,r18
 200198c:	4039883a 	mov	fp,r8
 2001990:	ad400044 	addi	r21,r21,1
 2001994:	88bff804 	addi	r2,r17,-32
 2001998:	98833236 	bltu	r19,r2,2002664 <___vfprintf_internal_r+0xe5c>
 200199c:	100490ba 	slli	r2,r2,2
 20019a0:	00c08034 	movhi	r3,512
 20019a4:	18c66d04 	addi	r3,r3,6580
 20019a8:	10c5883a 	add	r2,r2,r3
 20019ac:	10800017 	ldw	r2,0(r2)
 20019b0:	1000683a 	jmp	r2
 20019b4:	0200255c 	xori	r8,zero,149
 20019b8:	02002664 	muli	r8,zero,153
 20019bc:	02002664 	muli	r8,zero,153
 20019c0:	0200257c 	xorhi	r8,zero,149
 20019c4:	02002664 	muli	r8,zero,153
 20019c8:	02002664 	muli	r8,zero,153
 20019cc:	02002664 	muli	r8,zero,153
 20019d0:	02002664 	muli	r8,zero,153
 20019d4:	02002664 	muli	r8,zero,153
 20019d8:	02002664 	muli	r8,zero,153
 20019dc:	02001c64 	muli	r8,zero,113
 20019e0:	0200246c 	andhi	r8,zero,145
 20019e4:	02002664 	muli	r8,zero,153
 20019e8:	02001b28 	cmpgeui	r8,zero,108
 20019ec:	02001c88 	cmpgei	r8,zero,114
 20019f0:	02002664 	muli	r8,zero,153
 20019f4:	02001cd8 	cmpnei	r8,zero,115
 20019f8:	02001ce4 	muli	r8,zero,115
 20019fc:	02001ce4 	muli	r8,zero,115
 2001a00:	02001ce4 	muli	r8,zero,115
 2001a04:	02001ce4 	muli	r8,zero,115
 2001a08:	02001ce4 	muli	r8,zero,115
 2001a0c:	02001ce4 	muli	r8,zero,115
 2001a10:	02001ce4 	muli	r8,zero,115
 2001a14:	02001ce4 	muli	r8,zero,115
 2001a18:	02001ce4 	muli	r8,zero,115
 2001a1c:	02002664 	muli	r8,zero,153
 2001a20:	02002664 	muli	r8,zero,153
 2001a24:	02002664 	muli	r8,zero,153
 2001a28:	02002664 	muli	r8,zero,153
 2001a2c:	02002664 	muli	r8,zero,153
 2001a30:	02002664 	muli	r8,zero,153
 2001a34:	02002664 	muli	r8,zero,153
 2001a38:	02002664 	muli	r8,zero,153
 2001a3c:	02002664 	muli	r8,zero,153
 2001a40:	02002664 	muli	r8,zero,153
 2001a44:	02001d20 	cmpeqi	r8,zero,116
 2001a48:	02001de8 	cmpgeui	r8,zero,119
 2001a4c:	02002664 	muli	r8,zero,153
 2001a50:	02001de8 	cmpgeui	r8,zero,119
 2001a54:	02002664 	muli	r8,zero,153
 2001a58:	02002664 	muli	r8,zero,153
 2001a5c:	02002664 	muli	r8,zero,153
 2001a60:	02002664 	muli	r8,zero,153
 2001a64:	02001e94 	movui	r8,122
 2001a68:	02002664 	muli	r8,zero,153
 2001a6c:	02002664 	muli	r8,zero,153
 2001a70:	02001ea0 	cmpeqi	r8,zero,122
 2001a74:	02002664 	muli	r8,zero,153
 2001a78:	02002664 	muli	r8,zero,153
 2001a7c:	02002664 	muli	r8,zero,153
 2001a80:	02002664 	muli	r8,zero,153
 2001a84:	02002664 	muli	r8,zero,153
 2001a88:	02002324 	muli	r8,zero,140
 2001a8c:	02002664 	muli	r8,zero,153
 2001a90:	02002664 	muli	r8,zero,153
 2001a94:	02002390 	cmplti	r8,zero,142
 2001a98:	02002664 	muli	r8,zero,153
 2001a9c:	02002664 	muli	r8,zero,153
 2001aa0:	02002664 	muli	r8,zero,153
 2001aa4:	02002664 	muli	r8,zero,153
 2001aa8:	02002664 	muli	r8,zero,153
 2001aac:	02002664 	muli	r8,zero,153
 2001ab0:	02002664 	muli	r8,zero,153
 2001ab4:	02002664 	muli	r8,zero,153
 2001ab8:	02002664 	muli	r8,zero,153
 2001abc:	02002664 	muli	r8,zero,153
 2001ac0:	02002608 	cmpgei	r8,zero,152
 2001ac4:	02002588 	cmpgei	r8,zero,150
 2001ac8:	02001de8 	cmpgeui	r8,zero,119
 2001acc:	02001de8 	cmpgeui	r8,zero,119
 2001ad0:	02001de8 	cmpgeui	r8,zero,119
 2001ad4:	020025a8 	cmpgeui	r8,zero,150
 2001ad8:	02002588 	cmpgei	r8,zero,150
 2001adc:	02002664 	muli	r8,zero,153
 2001ae0:	02002664 	muli	r8,zero,153
 2001ae4:	020025b4 	movhi	r8,150
 2001ae8:	02002664 	muli	r8,zero,153
 2001aec:	020025c8 	cmpgei	r8,zero,151
 2001af0:	0200244c 	andi	r8,zero,145
 2001af4:	02001b34 	movhi	r8,108
 2001af8:	02002484 	movi	r8,146
 2001afc:	02002664 	muli	r8,zero,153
 2001b00:	02002490 	cmplti	r8,zero,146
 2001b04:	02002664 	muli	r8,zero,153
 2001b08:	020024f4 	movhi	r8,147
 2001b0c:	02002664 	muli	r8,zero,153
 2001b10:	02002664 	muli	r8,zero,153
 2001b14:	02002514 	movui	r8,148
 2001b18:	d8c03117 	ldw	r3,196(sp)
 2001b1c:	d8802e15 	stw	r2,184(sp)
 2001b20:	00c7c83a 	sub	r3,zero,r3
 2001b24:	d8c03115 	stw	r3,196(sp)
 2001b28:	84000114 	ori	r16,r16,4
 2001b2c:	ac400007 	ldb	r17,0(r21)
 2001b30:	003f9706 	br	2001990 <__alt_mem_flash+0xfdff0990>
 2001b34:	00800c04 	movi	r2,48
 2001b38:	d8802705 	stb	r2,156(sp)
 2001b3c:	00801e04 	movi	r2,120
 2001b40:	d8802745 	stb	r2,157(sp)
 2001b44:	d9002a17 	ldw	r4,168(sp)
 2001b48:	d8802e17 	ldw	r2,184(sp)
 2001b4c:	d8002785 	stb	zero,158(sp)
 2001b50:	e011883a 	mov	r8,fp
 2001b54:	10c00104 	addi	r3,r2,4
 2001b58:	14c00017 	ldw	r19,0(r2)
 2001b5c:	002d883a 	mov	r22,zero
 2001b60:	80800094 	ori	r2,r16,2
 2001b64:	2002ca16 	blt	r4,zero,2002690 <___vfprintf_internal_r+0xe88>
 2001b68:	00bfdfc4 	movi	r2,-129
 2001b6c:	80a4703a 	and	r18,r16,r2
 2001b70:	d8c02e15 	stw	r3,184(sp)
 2001b74:	94800094 	ori	r18,r18,2
 2001b78:	9802b41e 	bne	r19,zero,200264c <___vfprintf_internal_r+0xe44>
 2001b7c:	01408074 	movhi	r5,513
 2001b80:	29468004 	addi	r5,r5,6656
 2001b84:	d9403915 	stw	r5,228(sp)
 2001b88:	04401e04 	movi	r17,120
 2001b8c:	d8802a17 	ldw	r2,168(sp)
 2001b90:	0039883a 	mov	fp,zero
 2001b94:	1001fa26 	beq	r2,zero,2002380 <___vfprintf_internal_r+0xb78>
 2001b98:	0027883a 	mov	r19,zero
 2001b9c:	002d883a 	mov	r22,zero
 2001ba0:	00021906 	br	2002408 <___vfprintf_internal_r+0xc00>
 2001ba4:	d9002d17 	ldw	r4,180(sp)
 2001ba8:	b80b883a 	mov	r5,r23
 2001bac:	2003bbc0 	call	2003bbc <__swsetup_r>
 2001bb0:	1005dc1e 	bne	r2,zero,2003324 <___vfprintf_internal_r+0x1b1c>
 2001bb4:	b880030b 	ldhu	r2,12(r23)
 2001bb8:	00c00284 	movi	r3,10
 2001bbc:	1080068c 	andi	r2,r2,26
 2001bc0:	10ff3a1e 	bne	r2,r3,20018ac <__alt_mem_flash+0xfdff08ac>
 2001bc4:	b880038f 	ldh	r2,14(r23)
 2001bc8:	103f3816 	blt	r2,zero,20018ac <__alt_mem_flash+0xfdff08ac>
 2001bcc:	d9c02e17 	ldw	r7,184(sp)
 2001bd0:	d9002d17 	ldw	r4,180(sp)
 2001bd4:	a80d883a 	mov	r6,r21
 2001bd8:	b80b883a 	mov	r5,r23
 2001bdc:	2003b000 	call	2003b00 <__sbprintf>
 2001be0:	00001106 	br	2001c28 <___vfprintf_internal_r+0x420>
 2001be4:	d9002d17 	ldw	r4,180(sp)
 2001be8:	d9801e04 	addi	r6,sp,120
 2001bec:	b80b883a 	mov	r5,r23
 2001bf0:	20084f80 	call	20084f8 <__sprint_r>
 2001bf4:	1000081e 	bne	r2,zero,2001c18 <___vfprintf_internal_r+0x410>
 2001bf8:	da000404 	addi	r8,sp,16
 2001bfc:	003f5106 	br	2001944 <__alt_mem_flash+0xfdff0944>
 2001c00:	d8802017 	ldw	r2,128(sp)
 2001c04:	10000426 	beq	r2,zero,2001c18 <___vfprintf_internal_r+0x410>
 2001c08:	d9002d17 	ldw	r4,180(sp)
 2001c0c:	d9801e04 	addi	r6,sp,120
 2001c10:	b80b883a 	mov	r5,r23
 2001c14:	20084f80 	call	20084f8 <__sprint_r>
 2001c18:	b880030b 	ldhu	r2,12(r23)
 2001c1c:	1080100c 	andi	r2,r2,64
 2001c20:	1005c01e 	bne	r2,zero,2003324 <___vfprintf_internal_r+0x1b1c>
 2001c24:	d8802f17 	ldw	r2,188(sp)
 2001c28:	dfc04717 	ldw	ra,284(sp)
 2001c2c:	df004617 	ldw	fp,280(sp)
 2001c30:	ddc04517 	ldw	r23,276(sp)
 2001c34:	dd804417 	ldw	r22,272(sp)
 2001c38:	dd404317 	ldw	r21,268(sp)
 2001c3c:	dd004217 	ldw	r20,264(sp)
 2001c40:	dcc04117 	ldw	r19,260(sp)
 2001c44:	dc804017 	ldw	r18,256(sp)
 2001c48:	dc403f17 	ldw	r17,252(sp)
 2001c4c:	dc003e17 	ldw	r16,248(sp)
 2001c50:	dec04804 	addi	sp,sp,288
 2001c54:	f800283a 	ret
 2001c58:	d9002d17 	ldw	r4,180(sp)
 2001c5c:	2005bc80 	call	2005bc8 <__sinit>
 2001c60:	003f0206 	br	200186c <__alt_mem_flash+0xfdff086c>
 2001c64:	d9002e17 	ldw	r4,184(sp)
 2001c68:	d9402e17 	ldw	r5,184(sp)
 2001c6c:	21000017 	ldw	r4,0(r4)
 2001c70:	28800104 	addi	r2,r5,4
 2001c74:	d9003115 	stw	r4,196(sp)
 2001c78:	203fa716 	blt	r4,zero,2001b18 <__alt_mem_flash+0xfdff0b18>
 2001c7c:	d8802e15 	stw	r2,184(sp)
 2001c80:	ac400007 	ldb	r17,0(r21)
 2001c84:	003f4206 	br	2001990 <__alt_mem_flash+0xfdff0990>
 2001c88:	ac400007 	ldb	r17,0(r21)
 2001c8c:	01000a84 	movi	r4,42
 2001c90:	a8c00044 	addi	r3,r21,1
 2001c94:	89075826 	beq	r17,r4,20039f8 <___vfprintf_internal_r+0x21f0>
 2001c98:	8cbff404 	addi	r18,r17,-48
 2001c9c:	b486ae36 	bltu	r22,r18,2003758 <___vfprintf_internal_r+0x1f50>
 2001ca0:	0009883a 	mov	r4,zero
 2001ca4:	1823883a 	mov	r17,r3
 2001ca8:	01400284 	movi	r5,10
 2001cac:	20017940 	call	2001794 <__mulsi3>
 2001cb0:	88c00007 	ldb	r3,0(r17)
 2001cb4:	1489883a 	add	r4,r2,r18
 2001cb8:	8d400044 	addi	r21,r17,1
 2001cbc:	1cbff404 	addi	r18,r3,-48
 2001cc0:	a823883a 	mov	r17,r21
 2001cc4:	b4bff82e 	bgeu	r22,r18,2001ca8 <__alt_mem_flash+0xfdff0ca8>
 2001cc8:	1823883a 	mov	r17,r3
 2001ccc:	2005f616 	blt	r4,zero,20034a8 <___vfprintf_internal_r+0x1ca0>
 2001cd0:	d9002a15 	stw	r4,168(sp)
 2001cd4:	003f2f06 	br	2001994 <__alt_mem_flash+0xfdff0994>
 2001cd8:	84002014 	ori	r16,r16,128
 2001cdc:	ac400007 	ldb	r17,0(r21)
 2001ce0:	003f2b06 	br	2001990 <__alt_mem_flash+0xfdff0990>
 2001ce4:	8cbff404 	addi	r18,r17,-48
 2001ce8:	d8003115 	stw	zero,196(sp)
 2001cec:	0009883a 	mov	r4,zero
 2001cf0:	a823883a 	mov	r17,r21
 2001cf4:	01400284 	movi	r5,10
 2001cf8:	20017940 	call	2001794 <__mulsi3>
 2001cfc:	88c00007 	ldb	r3,0(r17)
 2001d00:	9089883a 	add	r4,r18,r2
 2001d04:	ad400044 	addi	r21,r21,1
 2001d08:	1cbff404 	addi	r18,r3,-48
 2001d0c:	a823883a 	mov	r17,r21
 2001d10:	b4bff82e 	bgeu	r22,r18,2001cf4 <__alt_mem_flash+0xfdff0cf4>
 2001d14:	1823883a 	mov	r17,r3
 2001d18:	d9003115 	stw	r4,196(sp)
 2001d1c:	003f1d06 	br	2001994 <__alt_mem_flash+0xfdff0994>
 2001d20:	8025883a 	mov	r18,r16
 2001d24:	dc002903 	ldbu	r16,164(sp)
 2001d28:	e011883a 	mov	r8,fp
 2001d2c:	84003fcc 	andi	r16,r16,255
 2001d30:	8007531e 	bne	r16,zero,2003a80 <___vfprintf_internal_r+0x2278>
 2001d34:	94800414 	ori	r18,r18,16
 2001d38:	9080080c 	andi	r2,r18,32
 2001d3c:	1003a326 	beq	r2,zero,2002bcc <___vfprintf_internal_r+0x13c4>
 2001d40:	d9002e17 	ldw	r4,184(sp)
 2001d44:	20800117 	ldw	r2,4(r4)
 2001d48:	24c00017 	ldw	r19,0(r4)
 2001d4c:	21000204 	addi	r4,r4,8
 2001d50:	d9002e15 	stw	r4,184(sp)
 2001d54:	102d883a 	mov	r22,r2
 2001d58:	10047316 	blt	r2,zero,2002f28 <___vfprintf_internal_r+0x1720>
 2001d5c:	d9002a17 	ldw	r4,168(sp)
 2001d60:	df002783 	ldbu	fp,158(sp)
 2001d64:	2003e416 	blt	r4,zero,2002cf8 <___vfprintf_internal_r+0x14f0>
 2001d68:	00ffdfc4 	movi	r3,-129
 2001d6c:	9d84b03a 	or	r2,r19,r22
 2001d70:	90e4703a 	and	r18,r18,r3
 2001d74:	10018026 	beq	r2,zero,2002378 <___vfprintf_internal_r+0xb70>
 2001d78:	b003ab26 	beq	r22,zero,2002c28 <___vfprintf_internal_r+0x1420>
 2001d7c:	dc402915 	stw	r17,164(sp)
 2001d80:	dc001e04 	addi	r16,sp,120
 2001d84:	b023883a 	mov	r17,r22
 2001d88:	402d883a 	mov	r22,r8
 2001d8c:	9809883a 	mov	r4,r19
 2001d90:	880b883a 	mov	r5,r17
 2001d94:	01800284 	movi	r6,10
 2001d98:	000f883a 	mov	r7,zero
 2001d9c:	200b5c40 	call	200b5c4 <__umoddi3>
 2001da0:	10800c04 	addi	r2,r2,48
 2001da4:	843fffc4 	addi	r16,r16,-1
 2001da8:	9809883a 	mov	r4,r19
 2001dac:	880b883a 	mov	r5,r17
 2001db0:	80800005 	stb	r2,0(r16)
 2001db4:	01800284 	movi	r6,10
 2001db8:	000f883a 	mov	r7,zero
 2001dbc:	200afc80 	call	200afc8 <__udivdi3>
 2001dc0:	1027883a 	mov	r19,r2
 2001dc4:	10c4b03a 	or	r2,r2,r3
 2001dc8:	1823883a 	mov	r17,r3
 2001dcc:	103fef1e 	bne	r2,zero,2001d8c <__alt_mem_flash+0xfdff0d8c>
 2001dd0:	d8c02817 	ldw	r3,160(sp)
 2001dd4:	dc402917 	ldw	r17,164(sp)
 2001dd8:	b011883a 	mov	r8,r22
 2001ddc:	1c07c83a 	sub	r3,r3,r16
 2001de0:	d8c02b15 	stw	r3,172(sp)
 2001de4:	00005f06 	br	2001f64 <___vfprintf_internal_r+0x75c>
 2001de8:	8025883a 	mov	r18,r16
 2001dec:	dc002903 	ldbu	r16,164(sp)
 2001df0:	e011883a 	mov	r8,fp
 2001df4:	84003fcc 	andi	r16,r16,255
 2001df8:	80071e1e 	bne	r16,zero,2003a74 <___vfprintf_internal_r+0x226c>
 2001dfc:	9080020c 	andi	r2,r18,8
 2001e00:	1004af26 	beq	r2,zero,20030c0 <___vfprintf_internal_r+0x18b8>
 2001e04:	d9002e17 	ldw	r4,184(sp)
 2001e08:	d9402e17 	ldw	r5,184(sp)
 2001e0c:	d8802e17 	ldw	r2,184(sp)
 2001e10:	21000017 	ldw	r4,0(r4)
 2001e14:	29400117 	ldw	r5,4(r5)
 2001e18:	10800204 	addi	r2,r2,8
 2001e1c:	d9003615 	stw	r4,216(sp)
 2001e20:	d9403815 	stw	r5,224(sp)
 2001e24:	d8802e15 	stw	r2,184(sp)
 2001e28:	d9003617 	ldw	r4,216(sp)
 2001e2c:	d9403817 	ldw	r5,224(sp)
 2001e30:	da003d15 	stw	r8,244(sp)
 2001e34:	04000044 	movi	r16,1
 2001e38:	20080840 	call	2008084 <__fpclassifyd>
 2001e3c:	da003d17 	ldw	r8,244(sp)
 2001e40:	1404441e 	bne	r2,r16,2002f54 <___vfprintf_internal_r+0x174c>
 2001e44:	d9003617 	ldw	r4,216(sp)
 2001e48:	d9403817 	ldw	r5,224(sp)
 2001e4c:	000d883a 	mov	r6,zero
 2001e50:	000f883a 	mov	r7,zero
 2001e54:	200c8700 	call	200c870 <__ledf2>
 2001e58:	da003d17 	ldw	r8,244(sp)
 2001e5c:	1005e316 	blt	r2,zero,20035ec <___vfprintf_internal_r+0x1de4>
 2001e60:	df002783 	ldbu	fp,158(sp)
 2001e64:	008011c4 	movi	r2,71
 2001e68:	1445580e 	bge	r2,r17,20033cc <___vfprintf_internal_r+0x1bc4>
 2001e6c:	04008074 	movhi	r16,513
 2001e70:	84067804 	addi	r16,r16,6624
 2001e74:	00c000c4 	movi	r3,3
 2001e78:	00bfdfc4 	movi	r2,-129
 2001e7c:	d8c02915 	stw	r3,164(sp)
 2001e80:	90a4703a 	and	r18,r18,r2
 2001e84:	d8c02b15 	stw	r3,172(sp)
 2001e88:	d8002a15 	stw	zero,168(sp)
 2001e8c:	d8003215 	stw	zero,200(sp)
 2001e90:	00003a06 	br	2001f7c <___vfprintf_internal_r+0x774>
 2001e94:	84000214 	ori	r16,r16,8
 2001e98:	ac400007 	ldb	r17,0(r21)
 2001e9c:	003ebc06 	br	2001990 <__alt_mem_flash+0xfdff0990>
 2001ea0:	8025883a 	mov	r18,r16
 2001ea4:	dc002903 	ldbu	r16,164(sp)
 2001ea8:	e011883a 	mov	r8,fp
 2001eac:	84003fcc 	andi	r16,r16,255
 2001eb0:	8007001e 	bne	r16,zero,2003ab4 <___vfprintf_internal_r+0x22ac>
 2001eb4:	94800414 	ori	r18,r18,16
 2001eb8:	9080080c 	andi	r2,r18,32
 2001ebc:	1002fa26 	beq	r2,zero,2002aa8 <___vfprintf_internal_r+0x12a0>
 2001ec0:	d9002e17 	ldw	r4,184(sp)
 2001ec4:	d9402a17 	ldw	r5,168(sp)
 2001ec8:	d8002785 	stb	zero,158(sp)
 2001ecc:	20800204 	addi	r2,r4,8
 2001ed0:	24c00017 	ldw	r19,0(r4)
 2001ed4:	25800117 	ldw	r22,4(r4)
 2001ed8:	2804b116 	blt	r5,zero,20031a0 <___vfprintf_internal_r+0x1998>
 2001edc:	013fdfc4 	movi	r4,-129
 2001ee0:	9d86b03a 	or	r3,r19,r22
 2001ee4:	d8802e15 	stw	r2,184(sp)
 2001ee8:	9124703a 	and	r18,r18,r4
 2001eec:	1802fb1e 	bne	r3,zero,2002adc <___vfprintf_internal_r+0x12d4>
 2001ef0:	d8c02a17 	ldw	r3,168(sp)
 2001ef4:	0039883a 	mov	fp,zero
 2001ef8:	1805e526 	beq	r3,zero,2003690 <___vfprintf_internal_r+0x1e88>
 2001efc:	0027883a 	mov	r19,zero
 2001f00:	002d883a 	mov	r22,zero
 2001f04:	dc001e04 	addi	r16,sp,120
 2001f08:	9806d0fa 	srli	r3,r19,3
 2001f0c:	b008977a 	slli	r4,r22,29
 2001f10:	b02cd0fa 	srli	r22,r22,3
 2001f14:	9cc001cc 	andi	r19,r19,7
 2001f18:	98800c04 	addi	r2,r19,48
 2001f1c:	843fffc4 	addi	r16,r16,-1
 2001f20:	20e6b03a 	or	r19,r4,r3
 2001f24:	80800005 	stb	r2,0(r16)
 2001f28:	9d86b03a 	or	r3,r19,r22
 2001f2c:	183ff61e 	bne	r3,zero,2001f08 <__alt_mem_flash+0xfdff0f08>
 2001f30:	90c0004c 	andi	r3,r18,1
 2001f34:	18014126 	beq	r3,zero,200243c <___vfprintf_internal_r+0xc34>
 2001f38:	10803fcc 	andi	r2,r2,255
 2001f3c:	1080201c 	xori	r2,r2,128
 2001f40:	10bfe004 	addi	r2,r2,-128
 2001f44:	00c00c04 	movi	r3,48
 2001f48:	10c13c26 	beq	r2,r3,200243c <___vfprintf_internal_r+0xc34>
 2001f4c:	80ffffc5 	stb	r3,-1(r16)
 2001f50:	d8c02817 	ldw	r3,160(sp)
 2001f54:	80bfffc4 	addi	r2,r16,-1
 2001f58:	1021883a 	mov	r16,r2
 2001f5c:	1887c83a 	sub	r3,r3,r2
 2001f60:	d8c02b15 	stw	r3,172(sp)
 2001f64:	d8802b17 	ldw	r2,172(sp)
 2001f68:	d9002a17 	ldw	r4,168(sp)
 2001f6c:	1100010e 	bge	r2,r4,2001f74 <___vfprintf_internal_r+0x76c>
 2001f70:	2005883a 	mov	r2,r4
 2001f74:	d8802915 	stw	r2,164(sp)
 2001f78:	d8003215 	stw	zero,200(sp)
 2001f7c:	e7003fcc 	andi	fp,fp,255
 2001f80:	e700201c 	xori	fp,fp,128
 2001f84:	e73fe004 	addi	fp,fp,-128
 2001f88:	e0000326 	beq	fp,zero,2001f98 <___vfprintf_internal_r+0x790>
 2001f8c:	d8c02917 	ldw	r3,164(sp)
 2001f90:	18c00044 	addi	r3,r3,1
 2001f94:	d8c02915 	stw	r3,164(sp)
 2001f98:	90c0008c 	andi	r3,r18,2
 2001f9c:	d8c02c15 	stw	r3,176(sp)
 2001fa0:	18000326 	beq	r3,zero,2001fb0 <___vfprintf_internal_r+0x7a8>
 2001fa4:	d8c02917 	ldw	r3,164(sp)
 2001fa8:	18c00084 	addi	r3,r3,2
 2001fac:	d8c02915 	stw	r3,164(sp)
 2001fb0:	90c0210c 	andi	r3,r18,132
 2001fb4:	d8c03015 	stw	r3,192(sp)
 2001fb8:	1801c51e 	bne	r3,zero,20026d0 <___vfprintf_internal_r+0xec8>
 2001fbc:	d9003117 	ldw	r4,196(sp)
 2001fc0:	d8c02917 	ldw	r3,164(sp)
 2001fc4:	20e7c83a 	sub	r19,r4,r3
 2001fc8:	04c1c10e 	bge	zero,r19,20026d0 <___vfprintf_internal_r+0xec8>
 2001fcc:	02400404 	movi	r9,16
 2001fd0:	d8c02017 	ldw	r3,128(sp)
 2001fd4:	d8801f17 	ldw	r2,124(sp)
 2001fd8:	4cc52f0e 	bge	r9,r19,2003498 <___vfprintf_internal_r+0x1c90>
 2001fdc:	01408074 	movhi	r5,513
 2001fe0:	29468b84 	addi	r5,r5,6702
 2001fe4:	dc403b15 	stw	r17,236(sp)
 2001fe8:	d9403515 	stw	r5,212(sp)
 2001fec:	9823883a 	mov	r17,r19
 2001ff0:	482d883a 	mov	r22,r9
 2001ff4:	9027883a 	mov	r19,r18
 2001ff8:	070001c4 	movi	fp,7
 2001ffc:	8025883a 	mov	r18,r16
 2002000:	dc002d17 	ldw	r16,180(sp)
 2002004:	00000306 	br	2002014 <___vfprintf_internal_r+0x80c>
 2002008:	8c7ffc04 	addi	r17,r17,-16
 200200c:	42000204 	addi	r8,r8,8
 2002010:	b440130e 	bge	r22,r17,2002060 <___vfprintf_internal_r+0x858>
 2002014:	01008074 	movhi	r4,513
 2002018:	18c00404 	addi	r3,r3,16
 200201c:	10800044 	addi	r2,r2,1
 2002020:	21068b84 	addi	r4,r4,6702
 2002024:	41000015 	stw	r4,0(r8)
 2002028:	45800115 	stw	r22,4(r8)
 200202c:	d8c02015 	stw	r3,128(sp)
 2002030:	d8801f15 	stw	r2,124(sp)
 2002034:	e0bff40e 	bge	fp,r2,2002008 <__alt_mem_flash+0xfdff1008>
 2002038:	d9801e04 	addi	r6,sp,120
 200203c:	b80b883a 	mov	r5,r23
 2002040:	8009883a 	mov	r4,r16
 2002044:	20084f80 	call	20084f8 <__sprint_r>
 2002048:	103ef31e 	bne	r2,zero,2001c18 <__alt_mem_flash+0xfdff0c18>
 200204c:	8c7ffc04 	addi	r17,r17,-16
 2002050:	d8c02017 	ldw	r3,128(sp)
 2002054:	d8801f17 	ldw	r2,124(sp)
 2002058:	da000404 	addi	r8,sp,16
 200205c:	b47fed16 	blt	r22,r17,2002014 <__alt_mem_flash+0xfdff1014>
 2002060:	9021883a 	mov	r16,r18
 2002064:	9825883a 	mov	r18,r19
 2002068:	8827883a 	mov	r19,r17
 200206c:	dc403b17 	ldw	r17,236(sp)
 2002070:	d9403517 	ldw	r5,212(sp)
 2002074:	98c7883a 	add	r3,r19,r3
 2002078:	10800044 	addi	r2,r2,1
 200207c:	41400015 	stw	r5,0(r8)
 2002080:	44c00115 	stw	r19,4(r8)
 2002084:	d8c02015 	stw	r3,128(sp)
 2002088:	d8801f15 	stw	r2,124(sp)
 200208c:	010001c4 	movi	r4,7
 2002090:	2082c516 	blt	r4,r2,2002ba8 <___vfprintf_internal_r+0x13a0>
 2002094:	df002787 	ldb	fp,158(sp)
 2002098:	42000204 	addi	r8,r8,8
 200209c:	e0000c26 	beq	fp,zero,20020d0 <___vfprintf_internal_r+0x8c8>
 20020a0:	d8801f17 	ldw	r2,124(sp)
 20020a4:	d9002784 	addi	r4,sp,158
 20020a8:	18c00044 	addi	r3,r3,1
 20020ac:	10800044 	addi	r2,r2,1
 20020b0:	41000015 	stw	r4,0(r8)
 20020b4:	01000044 	movi	r4,1
 20020b8:	41000115 	stw	r4,4(r8)
 20020bc:	d8c02015 	stw	r3,128(sp)
 20020c0:	d8801f15 	stw	r2,124(sp)
 20020c4:	010001c4 	movi	r4,7
 20020c8:	20825e16 	blt	r4,r2,2002a44 <___vfprintf_internal_r+0x123c>
 20020cc:	42000204 	addi	r8,r8,8
 20020d0:	d8802c17 	ldw	r2,176(sp)
 20020d4:	10000c26 	beq	r2,zero,2002108 <___vfprintf_internal_r+0x900>
 20020d8:	d8801f17 	ldw	r2,124(sp)
 20020dc:	d9002704 	addi	r4,sp,156
 20020e0:	18c00084 	addi	r3,r3,2
 20020e4:	10800044 	addi	r2,r2,1
 20020e8:	41000015 	stw	r4,0(r8)
 20020ec:	01000084 	movi	r4,2
 20020f0:	41000115 	stw	r4,4(r8)
 20020f4:	d8c02015 	stw	r3,128(sp)
 20020f8:	d8801f15 	stw	r2,124(sp)
 20020fc:	010001c4 	movi	r4,7
 2002100:	20825816 	blt	r4,r2,2002a64 <___vfprintf_internal_r+0x125c>
 2002104:	42000204 	addi	r8,r8,8
 2002108:	d9003017 	ldw	r4,192(sp)
 200210c:	00802004 	movi	r2,128
 2002110:	2081bb26 	beq	r4,r2,2002800 <___vfprintf_internal_r+0xff8>
 2002114:	d9402a17 	ldw	r5,168(sp)
 2002118:	d8802b17 	ldw	r2,172(sp)
 200211c:	28adc83a 	sub	r22,r5,r2
 2002120:	0580310e 	bge	zero,r22,20021e8 <___vfprintf_internal_r+0x9e0>
 2002124:	07000404 	movi	fp,16
 2002128:	d8801f17 	ldw	r2,124(sp)
 200212c:	e584360e 	bge	fp,r22,2003208 <___vfprintf_internal_r+0x1a00>
 2002130:	01408074 	movhi	r5,513
 2002134:	29468784 	addi	r5,r5,6686
 2002138:	dc402a15 	stw	r17,168(sp)
 200213c:	d9402c15 	stw	r5,176(sp)
 2002140:	b023883a 	mov	r17,r22
 2002144:	04c001c4 	movi	r19,7
 2002148:	a82d883a 	mov	r22,r21
 200214c:	902b883a 	mov	r21,r18
 2002150:	8025883a 	mov	r18,r16
 2002154:	dc002d17 	ldw	r16,180(sp)
 2002158:	00000306 	br	2002168 <___vfprintf_internal_r+0x960>
 200215c:	8c7ffc04 	addi	r17,r17,-16
 2002160:	42000204 	addi	r8,r8,8
 2002164:	e440110e 	bge	fp,r17,20021ac <___vfprintf_internal_r+0x9a4>
 2002168:	18c00404 	addi	r3,r3,16
 200216c:	10800044 	addi	r2,r2,1
 2002170:	45000015 	stw	r20,0(r8)
 2002174:	47000115 	stw	fp,4(r8)
 2002178:	d8c02015 	stw	r3,128(sp)
 200217c:	d8801f15 	stw	r2,124(sp)
 2002180:	98bff60e 	bge	r19,r2,200215c <__alt_mem_flash+0xfdff115c>
 2002184:	d9801e04 	addi	r6,sp,120
 2002188:	b80b883a 	mov	r5,r23
 200218c:	8009883a 	mov	r4,r16
 2002190:	20084f80 	call	20084f8 <__sprint_r>
 2002194:	103ea01e 	bne	r2,zero,2001c18 <__alt_mem_flash+0xfdff0c18>
 2002198:	8c7ffc04 	addi	r17,r17,-16
 200219c:	d8c02017 	ldw	r3,128(sp)
 20021a0:	d8801f17 	ldw	r2,124(sp)
 20021a4:	da000404 	addi	r8,sp,16
 20021a8:	e47fef16 	blt	fp,r17,2002168 <__alt_mem_flash+0xfdff1168>
 20021ac:	9021883a 	mov	r16,r18
 20021b0:	a825883a 	mov	r18,r21
 20021b4:	b02b883a 	mov	r21,r22
 20021b8:	882d883a 	mov	r22,r17
 20021bc:	dc402a17 	ldw	r17,168(sp)
 20021c0:	d9002c17 	ldw	r4,176(sp)
 20021c4:	1d87883a 	add	r3,r3,r22
 20021c8:	10800044 	addi	r2,r2,1
 20021cc:	41000015 	stw	r4,0(r8)
 20021d0:	45800115 	stw	r22,4(r8)
 20021d4:	d8c02015 	stw	r3,128(sp)
 20021d8:	d8801f15 	stw	r2,124(sp)
 20021dc:	010001c4 	movi	r4,7
 20021e0:	20821016 	blt	r4,r2,2002a24 <___vfprintf_internal_r+0x121c>
 20021e4:	42000204 	addi	r8,r8,8
 20021e8:	9080400c 	andi	r2,r18,256
 20021ec:	10013a1e 	bne	r2,zero,20026d8 <___vfprintf_internal_r+0xed0>
 20021f0:	d9402b17 	ldw	r5,172(sp)
 20021f4:	d8801f17 	ldw	r2,124(sp)
 20021f8:	44000015 	stw	r16,0(r8)
 20021fc:	1947883a 	add	r3,r3,r5
 2002200:	10800044 	addi	r2,r2,1
 2002204:	41400115 	stw	r5,4(r8)
 2002208:	d8c02015 	stw	r3,128(sp)
 200220c:	d8801f15 	stw	r2,124(sp)
 2002210:	010001c4 	movi	r4,7
 2002214:	2081f516 	blt	r4,r2,20029ec <___vfprintf_internal_r+0x11e4>
 2002218:	42000204 	addi	r8,r8,8
 200221c:	9480010c 	andi	r18,r18,4
 2002220:	90003226 	beq	r18,zero,20022ec <___vfprintf_internal_r+0xae4>
 2002224:	d9403117 	ldw	r5,196(sp)
 2002228:	d8802917 	ldw	r2,164(sp)
 200222c:	28a1c83a 	sub	r16,r5,r2
 2002230:	04002e0e 	bge	zero,r16,20022ec <___vfprintf_internal_r+0xae4>
 2002234:	04400404 	movi	r17,16
 2002238:	d8801f17 	ldw	r2,124(sp)
 200223c:	8c04c40e 	bge	r17,r16,2003550 <___vfprintf_internal_r+0x1d48>
 2002240:	01408074 	movhi	r5,513
 2002244:	29468b84 	addi	r5,r5,6702
 2002248:	d9403515 	stw	r5,212(sp)
 200224c:	048001c4 	movi	r18,7
 2002250:	dcc02d17 	ldw	r19,180(sp)
 2002254:	00000306 	br	2002264 <___vfprintf_internal_r+0xa5c>
 2002258:	843ffc04 	addi	r16,r16,-16
 200225c:	42000204 	addi	r8,r8,8
 2002260:	8c00130e 	bge	r17,r16,20022b0 <___vfprintf_internal_r+0xaa8>
 2002264:	01008074 	movhi	r4,513
 2002268:	18c00404 	addi	r3,r3,16
 200226c:	10800044 	addi	r2,r2,1
 2002270:	21068b84 	addi	r4,r4,6702
 2002274:	41000015 	stw	r4,0(r8)
 2002278:	44400115 	stw	r17,4(r8)
 200227c:	d8c02015 	stw	r3,128(sp)
 2002280:	d8801f15 	stw	r2,124(sp)
 2002284:	90bff40e 	bge	r18,r2,2002258 <__alt_mem_flash+0xfdff1258>
 2002288:	d9801e04 	addi	r6,sp,120
 200228c:	b80b883a 	mov	r5,r23
 2002290:	9809883a 	mov	r4,r19
 2002294:	20084f80 	call	20084f8 <__sprint_r>
 2002298:	103e5f1e 	bne	r2,zero,2001c18 <__alt_mem_flash+0xfdff0c18>
 200229c:	843ffc04 	addi	r16,r16,-16
 20022a0:	d8c02017 	ldw	r3,128(sp)
 20022a4:	d8801f17 	ldw	r2,124(sp)
 20022a8:	da000404 	addi	r8,sp,16
 20022ac:	8c3fed16 	blt	r17,r16,2002264 <__alt_mem_flash+0xfdff1264>
 20022b0:	d9403517 	ldw	r5,212(sp)
 20022b4:	1c07883a 	add	r3,r3,r16
 20022b8:	10800044 	addi	r2,r2,1
 20022bc:	41400015 	stw	r5,0(r8)
 20022c0:	44000115 	stw	r16,4(r8)
 20022c4:	d8c02015 	stw	r3,128(sp)
 20022c8:	d8801f15 	stw	r2,124(sp)
 20022cc:	010001c4 	movi	r4,7
 20022d0:	2080060e 	bge	r4,r2,20022ec <___vfprintf_internal_r+0xae4>
 20022d4:	d9002d17 	ldw	r4,180(sp)
 20022d8:	d9801e04 	addi	r6,sp,120
 20022dc:	b80b883a 	mov	r5,r23
 20022e0:	20084f80 	call	20084f8 <__sprint_r>
 20022e4:	103e4c1e 	bne	r2,zero,2001c18 <__alt_mem_flash+0xfdff0c18>
 20022e8:	d8c02017 	ldw	r3,128(sp)
 20022ec:	d8803117 	ldw	r2,196(sp)
 20022f0:	d9002917 	ldw	r4,164(sp)
 20022f4:	1100010e 	bge	r2,r4,20022fc <___vfprintf_internal_r+0xaf4>
 20022f8:	2005883a 	mov	r2,r4
 20022fc:	d9402f17 	ldw	r5,188(sp)
 2002300:	288b883a 	add	r5,r5,r2
 2002304:	d9402f15 	stw	r5,188(sp)
 2002308:	1801c01e 	bne	r3,zero,2002a0c <___vfprintf_internal_r+0x1204>
 200230c:	a8800007 	ldb	r2,0(r21)
 2002310:	d8001f15 	stw	zero,124(sp)
 2002314:	da000404 	addi	r8,sp,16
 2002318:	103d751e 	bne	r2,zero,20018f0 <__alt_mem_flash+0xfdff08f0>
 200231c:	a823883a 	mov	r17,r21
 2002320:	003d8b06 	br	2001950 <__alt_mem_flash+0xfdff0950>
 2002324:	8025883a 	mov	r18,r16
 2002328:	dc002903 	ldbu	r16,164(sp)
 200232c:	e011883a 	mov	r8,fp
 2002330:	84003fcc 	andi	r16,r16,255
 2002334:	8005e51e 	bne	r16,zero,2003acc <___vfprintf_internal_r+0x22c4>
 2002338:	94800414 	ori	r18,r18,16
 200233c:	9080080c 	andi	r2,r18,32
 2002340:	10022b26 	beq	r2,zero,2002bf0 <___vfprintf_internal_r+0x13e8>
 2002344:	d9002e17 	ldw	r4,184(sp)
 2002348:	d9402a17 	ldw	r5,168(sp)
 200234c:	d8002785 	stb	zero,158(sp)
 2002350:	20c00204 	addi	r3,r4,8
 2002354:	24c00017 	ldw	r19,0(r4)
 2002358:	25800117 	ldw	r22,4(r4)
 200235c:	28042e16 	blt	r5,zero,2003418 <___vfprintf_internal_r+0x1c10>
 2002360:	013fdfc4 	movi	r4,-129
 2002364:	9d84b03a 	or	r2,r19,r22
 2002368:	d8c02e15 	stw	r3,184(sp)
 200236c:	9124703a 	and	r18,r18,r4
 2002370:	0039883a 	mov	fp,zero
 2002374:	103e801e 	bne	r2,zero,2001d78 <__alt_mem_flash+0xfdff0d78>
 2002378:	d9002a17 	ldw	r4,168(sp)
 200237c:	2002e01e 	bne	r4,zero,2002f00 <___vfprintf_internal_r+0x16f8>
 2002380:	d8002a15 	stw	zero,168(sp)
 2002384:	d8002b15 	stw	zero,172(sp)
 2002388:	dc001e04 	addi	r16,sp,120
 200238c:	003ef506 	br	2001f64 <__alt_mem_flash+0xfdff0f64>
 2002390:	8025883a 	mov	r18,r16
 2002394:	dc002903 	ldbu	r16,164(sp)
 2002398:	e011883a 	mov	r8,fp
 200239c:	84003fcc 	andi	r16,r16,255
 20023a0:	8005ba1e 	bne	r16,zero,2003a8c <___vfprintf_internal_r+0x2284>
 20023a4:	01008074 	movhi	r4,513
 20023a8:	21067b04 	addi	r4,r4,6636
 20023ac:	d9003915 	stw	r4,228(sp)
 20023b0:	9080080c 	andi	r2,r18,32
 20023b4:	10006126 	beq	r2,zero,200253c <___vfprintf_internal_r+0xd34>
 20023b8:	d9402e17 	ldw	r5,184(sp)
 20023bc:	2cc00017 	ldw	r19,0(r5)
 20023c0:	2d800117 	ldw	r22,4(r5)
 20023c4:	29400204 	addi	r5,r5,8
 20023c8:	d9402e15 	stw	r5,184(sp)
 20023cc:	9080004c 	andi	r2,r18,1
 20023d0:	1001ac26 	beq	r2,zero,2002a84 <___vfprintf_internal_r+0x127c>
 20023d4:	9d84b03a 	or	r2,r19,r22
 20023d8:	10038526 	beq	r2,zero,20031f0 <___vfprintf_internal_r+0x19e8>
 20023dc:	d8c02a17 	ldw	r3,168(sp)
 20023e0:	00800c04 	movi	r2,48
 20023e4:	d8802705 	stb	r2,156(sp)
 20023e8:	dc402745 	stb	r17,157(sp)
 20023ec:	d8002785 	stb	zero,158(sp)
 20023f0:	90800094 	ori	r2,r18,2
 20023f4:	18047916 	blt	r3,zero,20035dc <___vfprintf_internal_r+0x1dd4>
 20023f8:	00bfdfc4 	movi	r2,-129
 20023fc:	90a4703a 	and	r18,r18,r2
 2002400:	94800094 	ori	r18,r18,2
 2002404:	0039883a 	mov	fp,zero
 2002408:	d9003917 	ldw	r4,228(sp)
 200240c:	dc001e04 	addi	r16,sp,120
 2002410:	988003cc 	andi	r2,r19,15
 2002414:	b006973a 	slli	r3,r22,28
 2002418:	2085883a 	add	r2,r4,r2
 200241c:	9826d13a 	srli	r19,r19,4
 2002420:	10800003 	ldbu	r2,0(r2)
 2002424:	b02cd13a 	srli	r22,r22,4
 2002428:	843fffc4 	addi	r16,r16,-1
 200242c:	1ce6b03a 	or	r19,r3,r19
 2002430:	80800005 	stb	r2,0(r16)
 2002434:	9d84b03a 	or	r2,r19,r22
 2002438:	103ff51e 	bne	r2,zero,2002410 <__alt_mem_flash+0xfdff1410>
 200243c:	d8c02817 	ldw	r3,160(sp)
 2002440:	1c07c83a 	sub	r3,r3,r16
 2002444:	d8c02b15 	stw	r3,172(sp)
 2002448:	003ec606 	br	2001f64 <__alt_mem_flash+0xfdff0f64>
 200244c:	8025883a 	mov	r18,r16
 2002450:	dc002903 	ldbu	r16,164(sp)
 2002454:	e011883a 	mov	r8,fp
 2002458:	84003fcc 	andi	r16,r16,255
 200245c:	803e9626 	beq	r16,zero,2001eb8 <__alt_mem_flash+0xfdff0eb8>
 2002460:	d8c02b03 	ldbu	r3,172(sp)
 2002464:	d8c02785 	stb	r3,158(sp)
 2002468:	003e9306 	br	2001eb8 <__alt_mem_flash+0xfdff0eb8>
 200246c:	00c00044 	movi	r3,1
 2002470:	d8c02905 	stb	r3,164(sp)
 2002474:	00c00ac4 	movi	r3,43
 2002478:	d8c02b05 	stb	r3,172(sp)
 200247c:	ac400007 	ldb	r17,0(r21)
 2002480:	003d4306 	br	2001990 <__alt_mem_flash+0xfdff0990>
 2002484:	84000814 	ori	r16,r16,32
 2002488:	ac400007 	ldb	r17,0(r21)
 200248c:	003d4006 	br	2001990 <__alt_mem_flash+0xfdff0990>
 2002490:	d8802e17 	ldw	r2,184(sp)
 2002494:	8025883a 	mov	r18,r16
 2002498:	d8002785 	stb	zero,158(sp)
 200249c:	14000017 	ldw	r16,0(r2)
 20024a0:	e011883a 	mov	r8,fp
 20024a4:	14c00104 	addi	r19,r2,4
 20024a8:	80042d26 	beq	r16,zero,2003560 <___vfprintf_internal_r+0x1d58>
 20024ac:	d8c02a17 	ldw	r3,168(sp)
 20024b0:	1803e416 	blt	r3,zero,2003444 <___vfprintf_internal_r+0x1c3c>
 20024b4:	180d883a 	mov	r6,r3
 20024b8:	000b883a 	mov	r5,zero
 20024bc:	8009883a 	mov	r4,r16
 20024c0:	df003d15 	stw	fp,244(sp)
 20024c4:	2006c780 	call	2006c78 <memchr>
 20024c8:	da003d17 	ldw	r8,244(sp)
 20024cc:	10046826 	beq	r2,zero,2003670 <___vfprintf_internal_r+0x1e68>
 20024d0:	1405c83a 	sub	r2,r2,r16
 20024d4:	d8802b15 	stw	r2,172(sp)
 20024d8:	1003e016 	blt	r2,zero,200345c <___vfprintf_internal_r+0x1c54>
 20024dc:	df002783 	ldbu	fp,158(sp)
 20024e0:	d8802915 	stw	r2,164(sp)
 20024e4:	dcc02e15 	stw	r19,184(sp)
 20024e8:	d8002a15 	stw	zero,168(sp)
 20024ec:	d8003215 	stw	zero,200(sp)
 20024f0:	003ea206 	br	2001f7c <__alt_mem_flash+0xfdff0f7c>
 20024f4:	8025883a 	mov	r18,r16
 20024f8:	dc002903 	ldbu	r16,164(sp)
 20024fc:	e011883a 	mov	r8,fp
 2002500:	84003fcc 	andi	r16,r16,255
 2002504:	803f8d26 	beq	r16,zero,200233c <__alt_mem_flash+0xfdff133c>
 2002508:	d8c02b03 	ldbu	r3,172(sp)
 200250c:	d8c02785 	stb	r3,158(sp)
 2002510:	003f8a06 	br	200233c <__alt_mem_flash+0xfdff133c>
 2002514:	8025883a 	mov	r18,r16
 2002518:	dc002903 	ldbu	r16,164(sp)
 200251c:	e011883a 	mov	r8,fp
 2002520:	84003fcc 	andi	r16,r16,255
 2002524:	8005661e 	bne	r16,zero,2003ac0 <___vfprintf_internal_r+0x22b8>
 2002528:	01008074 	movhi	r4,513
 200252c:	21068004 	addi	r4,r4,6656
 2002530:	d9003915 	stw	r4,228(sp)
 2002534:	9080080c 	andi	r2,r18,32
 2002538:	103f9f1e 	bne	r2,zero,20023b8 <__alt_mem_flash+0xfdff13b8>
 200253c:	9080040c 	andi	r2,r18,16
 2002540:	1002eb26 	beq	r2,zero,20030f0 <___vfprintf_internal_r+0x18e8>
 2002544:	d8802e17 	ldw	r2,184(sp)
 2002548:	002d883a 	mov	r22,zero
 200254c:	14c00017 	ldw	r19,0(r2)
 2002550:	10800104 	addi	r2,r2,4
 2002554:	d8802e15 	stw	r2,184(sp)
 2002558:	003f9c06 	br	20023cc <__alt_mem_flash+0xfdff13cc>
 200255c:	d8802b07 	ldb	r2,172(sp)
 2002560:	1002e11e 	bne	r2,zero,20030e8 <___vfprintf_internal_r+0x18e0>
 2002564:	00c00044 	movi	r3,1
 2002568:	d8c02905 	stb	r3,164(sp)
 200256c:	00c00804 	movi	r3,32
 2002570:	d8c02b05 	stb	r3,172(sp)
 2002574:	ac400007 	ldb	r17,0(r21)
 2002578:	003d0506 	br	2001990 <__alt_mem_flash+0xfdff0990>
 200257c:	84000054 	ori	r16,r16,1
 2002580:	ac400007 	ldb	r17,0(r21)
 2002584:	003d0206 	br	2001990 <__alt_mem_flash+0xfdff0990>
 2002588:	8025883a 	mov	r18,r16
 200258c:	dc002903 	ldbu	r16,164(sp)
 2002590:	e011883a 	mov	r8,fp
 2002594:	84003fcc 	andi	r16,r16,255
 2002598:	803de726 	beq	r16,zero,2001d38 <__alt_mem_flash+0xfdff0d38>
 200259c:	d8c02b03 	ldbu	r3,172(sp)
 20025a0:	d8c02785 	stb	r3,158(sp)
 20025a4:	003de406 	br	2001d38 <__alt_mem_flash+0xfdff0d38>
 20025a8:	84001014 	ori	r16,r16,64
 20025ac:	ac400007 	ldb	r17,0(r21)
 20025b0:	003cf706 	br	2001990 <__alt_mem_flash+0xfdff0990>
 20025b4:	ac400007 	ldb	r17,0(r21)
 20025b8:	00801b04 	movi	r2,108
 20025bc:	88838f26 	beq	r17,r2,20033fc <___vfprintf_internal_r+0x1bf4>
 20025c0:	84000414 	ori	r16,r16,16
 20025c4:	003cf206 	br	2001990 <__alt_mem_flash+0xfdff0990>
 20025c8:	8025883a 	mov	r18,r16
 20025cc:	dc002903 	ldbu	r16,164(sp)
 20025d0:	e011883a 	mov	r8,fp
 20025d4:	84003fcc 	andi	r16,r16,255
 20025d8:	80053f1e 	bne	r16,zero,2003ad8 <___vfprintf_internal_r+0x22d0>
 20025dc:	9080080c 	andi	r2,r18,32
 20025e0:	1002d226 	beq	r2,zero,200312c <___vfprintf_internal_r+0x1924>
 20025e4:	d9002e17 	ldw	r4,184(sp)
 20025e8:	d9402f17 	ldw	r5,188(sp)
 20025ec:	20800017 	ldw	r2,0(r4)
 20025f0:	2807d7fa 	srai	r3,r5,31
 20025f4:	21000104 	addi	r4,r4,4
 20025f8:	d9002e15 	stw	r4,184(sp)
 20025fc:	11400015 	stw	r5,0(r2)
 2002600:	10c00115 	stw	r3,4(r2)
 2002604:	003cb806 	br	20018e8 <__alt_mem_flash+0xfdff08e8>
 2002608:	d8c02e17 	ldw	r3,184(sp)
 200260c:	d9002e17 	ldw	r4,184(sp)
 2002610:	8025883a 	mov	r18,r16
 2002614:	18800017 	ldw	r2,0(r3)
 2002618:	21000104 	addi	r4,r4,4
 200261c:	00c00044 	movi	r3,1
 2002620:	e011883a 	mov	r8,fp
 2002624:	d8c02915 	stw	r3,164(sp)
 2002628:	d8002785 	stb	zero,158(sp)
 200262c:	d8801405 	stb	r2,80(sp)
 2002630:	d9002e15 	stw	r4,184(sp)
 2002634:	d8c02b15 	stw	r3,172(sp)
 2002638:	d8002a15 	stw	zero,168(sp)
 200263c:	d8003215 	stw	zero,200(sp)
 2002640:	dc001404 	addi	r16,sp,80
 2002644:	0039883a 	mov	fp,zero
 2002648:	003e5306 	br	2001f98 <__alt_mem_flash+0xfdff0f98>
 200264c:	01008074 	movhi	r4,513
 2002650:	21068004 	addi	r4,r4,6656
 2002654:	0039883a 	mov	fp,zero
 2002658:	d9003915 	stw	r4,228(sp)
 200265c:	04401e04 	movi	r17,120
 2002660:	003f6906 	br	2002408 <__alt_mem_flash+0xfdff1408>
 2002664:	8025883a 	mov	r18,r16
 2002668:	dc002903 	ldbu	r16,164(sp)
 200266c:	e011883a 	mov	r8,fp
 2002670:	84003fcc 	andi	r16,r16,255
 2002674:	8005081e 	bne	r16,zero,2003a98 <___vfprintf_internal_r+0x2290>
 2002678:	883d6126 	beq	r17,zero,2001c00 <__alt_mem_flash+0xfdff0c00>
 200267c:	00c00044 	movi	r3,1
 2002680:	d8c02915 	stw	r3,164(sp)
 2002684:	dc401405 	stb	r17,80(sp)
 2002688:	d8002785 	stb	zero,158(sp)
 200268c:	003fe906 	br	2002634 <__alt_mem_flash+0xfdff1634>
 2002690:	01408074 	movhi	r5,513
 2002694:	29468004 	addi	r5,r5,6656
 2002698:	d9403915 	stw	r5,228(sp)
 200269c:	d8c02e15 	stw	r3,184(sp)
 20026a0:	1025883a 	mov	r18,r2
 20026a4:	04401e04 	movi	r17,120
 20026a8:	9d84b03a 	or	r2,r19,r22
 20026ac:	1000fc1e 	bne	r2,zero,2002aa0 <___vfprintf_internal_r+0x1298>
 20026b0:	0039883a 	mov	fp,zero
 20026b4:	00800084 	movi	r2,2
 20026b8:	10803fcc 	andi	r2,r2,255
 20026bc:	00c00044 	movi	r3,1
 20026c0:	10c20f26 	beq	r2,r3,2002f00 <___vfprintf_internal_r+0x16f8>
 20026c4:	00c00084 	movi	r3,2
 20026c8:	10fd3326 	beq	r2,r3,2001b98 <__alt_mem_flash+0xfdff0b98>
 20026cc:	003e0b06 	br	2001efc <__alt_mem_flash+0xfdff0efc>
 20026d0:	d8c02017 	ldw	r3,128(sp)
 20026d4:	003e7106 	br	200209c <__alt_mem_flash+0xfdff109c>
 20026d8:	00801944 	movi	r2,101
 20026dc:	14407e0e 	bge	r2,r17,20028d8 <___vfprintf_internal_r+0x10d0>
 20026e0:	d9003617 	ldw	r4,216(sp)
 20026e4:	d9403817 	ldw	r5,224(sp)
 20026e8:	000d883a 	mov	r6,zero
 20026ec:	000f883a 	mov	r7,zero
 20026f0:	d8c03c15 	stw	r3,240(sp)
 20026f4:	da003d15 	stw	r8,244(sp)
 20026f8:	200c70c0 	call	200c70c <__eqdf2>
 20026fc:	d8c03c17 	ldw	r3,240(sp)
 2002700:	da003d17 	ldw	r8,244(sp)
 2002704:	1000f71e 	bne	r2,zero,2002ae4 <___vfprintf_internal_r+0x12dc>
 2002708:	d8801f17 	ldw	r2,124(sp)
 200270c:	01008074 	movhi	r4,513
 2002710:	21068704 	addi	r4,r4,6684
 2002714:	18c00044 	addi	r3,r3,1
 2002718:	10800044 	addi	r2,r2,1
 200271c:	41000015 	stw	r4,0(r8)
 2002720:	01000044 	movi	r4,1
 2002724:	41000115 	stw	r4,4(r8)
 2002728:	d8c02015 	stw	r3,128(sp)
 200272c:	d8801f15 	stw	r2,124(sp)
 2002730:	010001c4 	movi	r4,7
 2002734:	2082b816 	blt	r4,r2,2003218 <___vfprintf_internal_r+0x1a10>
 2002738:	42000204 	addi	r8,r8,8
 200273c:	d8802617 	ldw	r2,152(sp)
 2002740:	d9403317 	ldw	r5,204(sp)
 2002744:	11400216 	blt	r2,r5,2002750 <___vfprintf_internal_r+0xf48>
 2002748:	9080004c 	andi	r2,r18,1
 200274c:	103eb326 	beq	r2,zero,200221c <__alt_mem_flash+0xfdff121c>
 2002750:	d8803717 	ldw	r2,220(sp)
 2002754:	d9003417 	ldw	r4,208(sp)
 2002758:	d9403717 	ldw	r5,220(sp)
 200275c:	1887883a 	add	r3,r3,r2
 2002760:	d8801f17 	ldw	r2,124(sp)
 2002764:	41000015 	stw	r4,0(r8)
 2002768:	41400115 	stw	r5,4(r8)
 200276c:	10800044 	addi	r2,r2,1
 2002770:	d8c02015 	stw	r3,128(sp)
 2002774:	d8801f15 	stw	r2,124(sp)
 2002778:	010001c4 	movi	r4,7
 200277c:	20832916 	blt	r4,r2,2003424 <___vfprintf_internal_r+0x1c1c>
 2002780:	42000204 	addi	r8,r8,8
 2002784:	d8803317 	ldw	r2,204(sp)
 2002788:	143fffc4 	addi	r16,r2,-1
 200278c:	043ea30e 	bge	zero,r16,200221c <__alt_mem_flash+0xfdff121c>
 2002790:	04400404 	movi	r17,16
 2002794:	d8801f17 	ldw	r2,124(sp)
 2002798:	8c00880e 	bge	r17,r16,20029bc <___vfprintf_internal_r+0x11b4>
 200279c:	01408074 	movhi	r5,513
 20027a0:	29468784 	addi	r5,r5,6686
 20027a4:	d9402c15 	stw	r5,176(sp)
 20027a8:	058001c4 	movi	r22,7
 20027ac:	dcc02d17 	ldw	r19,180(sp)
 20027b0:	00000306 	br	20027c0 <___vfprintf_internal_r+0xfb8>
 20027b4:	42000204 	addi	r8,r8,8
 20027b8:	843ffc04 	addi	r16,r16,-16
 20027bc:	8c00820e 	bge	r17,r16,20029c8 <___vfprintf_internal_r+0x11c0>
 20027c0:	18c00404 	addi	r3,r3,16
 20027c4:	10800044 	addi	r2,r2,1
 20027c8:	45000015 	stw	r20,0(r8)
 20027cc:	44400115 	stw	r17,4(r8)
 20027d0:	d8c02015 	stw	r3,128(sp)
 20027d4:	d8801f15 	stw	r2,124(sp)
 20027d8:	b0bff60e 	bge	r22,r2,20027b4 <__alt_mem_flash+0xfdff17b4>
 20027dc:	d9801e04 	addi	r6,sp,120
 20027e0:	b80b883a 	mov	r5,r23
 20027e4:	9809883a 	mov	r4,r19
 20027e8:	20084f80 	call	20084f8 <__sprint_r>
 20027ec:	103d0a1e 	bne	r2,zero,2001c18 <__alt_mem_flash+0xfdff0c18>
 20027f0:	d8c02017 	ldw	r3,128(sp)
 20027f4:	d8801f17 	ldw	r2,124(sp)
 20027f8:	da000404 	addi	r8,sp,16
 20027fc:	003fee06 	br	20027b8 <__alt_mem_flash+0xfdff17b8>
 2002800:	d9403117 	ldw	r5,196(sp)
 2002804:	d8802917 	ldw	r2,164(sp)
 2002808:	28adc83a 	sub	r22,r5,r2
 200280c:	05be410e 	bge	zero,r22,2002114 <__alt_mem_flash+0xfdff1114>
 2002810:	07000404 	movi	fp,16
 2002814:	d8801f17 	ldw	r2,124(sp)
 2002818:	e5838f0e 	bge	fp,r22,2003658 <___vfprintf_internal_r+0x1e50>
 200281c:	01408074 	movhi	r5,513
 2002820:	29468784 	addi	r5,r5,6686
 2002824:	dc403015 	stw	r17,192(sp)
 2002828:	d9402c15 	stw	r5,176(sp)
 200282c:	b023883a 	mov	r17,r22
 2002830:	04c001c4 	movi	r19,7
 2002834:	a82d883a 	mov	r22,r21
 2002838:	902b883a 	mov	r21,r18
 200283c:	8025883a 	mov	r18,r16
 2002840:	dc002d17 	ldw	r16,180(sp)
 2002844:	00000306 	br	2002854 <___vfprintf_internal_r+0x104c>
 2002848:	8c7ffc04 	addi	r17,r17,-16
 200284c:	42000204 	addi	r8,r8,8
 2002850:	e440110e 	bge	fp,r17,2002898 <___vfprintf_internal_r+0x1090>
 2002854:	18c00404 	addi	r3,r3,16
 2002858:	10800044 	addi	r2,r2,1
 200285c:	45000015 	stw	r20,0(r8)
 2002860:	47000115 	stw	fp,4(r8)
 2002864:	d8c02015 	stw	r3,128(sp)
 2002868:	d8801f15 	stw	r2,124(sp)
 200286c:	98bff60e 	bge	r19,r2,2002848 <__alt_mem_flash+0xfdff1848>
 2002870:	d9801e04 	addi	r6,sp,120
 2002874:	b80b883a 	mov	r5,r23
 2002878:	8009883a 	mov	r4,r16
 200287c:	20084f80 	call	20084f8 <__sprint_r>
 2002880:	103ce51e 	bne	r2,zero,2001c18 <__alt_mem_flash+0xfdff0c18>
 2002884:	8c7ffc04 	addi	r17,r17,-16
 2002888:	d8c02017 	ldw	r3,128(sp)
 200288c:	d8801f17 	ldw	r2,124(sp)
 2002890:	da000404 	addi	r8,sp,16
 2002894:	e47fef16 	blt	fp,r17,2002854 <__alt_mem_flash+0xfdff1854>
 2002898:	9021883a 	mov	r16,r18
 200289c:	a825883a 	mov	r18,r21
 20028a0:	b02b883a 	mov	r21,r22
 20028a4:	882d883a 	mov	r22,r17
 20028a8:	dc403017 	ldw	r17,192(sp)
 20028ac:	d9002c17 	ldw	r4,176(sp)
 20028b0:	1d87883a 	add	r3,r3,r22
 20028b4:	10800044 	addi	r2,r2,1
 20028b8:	41000015 	stw	r4,0(r8)
 20028bc:	45800115 	stw	r22,4(r8)
 20028c0:	d8c02015 	stw	r3,128(sp)
 20028c4:	d8801f15 	stw	r2,124(sp)
 20028c8:	010001c4 	movi	r4,7
 20028cc:	20818e16 	blt	r4,r2,2002f08 <___vfprintf_internal_r+0x1700>
 20028d0:	42000204 	addi	r8,r8,8
 20028d4:	003e0f06 	br	2002114 <__alt_mem_flash+0xfdff1114>
 20028d8:	d9403317 	ldw	r5,204(sp)
 20028dc:	00800044 	movi	r2,1
 20028e0:	18c00044 	addi	r3,r3,1
 20028e4:	1141530e 	bge	r2,r5,2002e34 <___vfprintf_internal_r+0x162c>
 20028e8:	dc401f17 	ldw	r17,124(sp)
 20028ec:	00800044 	movi	r2,1
 20028f0:	40800115 	stw	r2,4(r8)
 20028f4:	8c400044 	addi	r17,r17,1
 20028f8:	44000015 	stw	r16,0(r8)
 20028fc:	d8c02015 	stw	r3,128(sp)
 2002900:	dc401f15 	stw	r17,124(sp)
 2002904:	008001c4 	movi	r2,7
 2002908:	14416b16 	blt	r2,r17,2002eb8 <___vfprintf_internal_r+0x16b0>
 200290c:	42000204 	addi	r8,r8,8
 2002910:	d8803717 	ldw	r2,220(sp)
 2002914:	d9003417 	ldw	r4,208(sp)
 2002918:	8c400044 	addi	r17,r17,1
 200291c:	10c7883a 	add	r3,r2,r3
 2002920:	40800115 	stw	r2,4(r8)
 2002924:	41000015 	stw	r4,0(r8)
 2002928:	d8c02015 	stw	r3,128(sp)
 200292c:	dc401f15 	stw	r17,124(sp)
 2002930:	008001c4 	movi	r2,7
 2002934:	14416916 	blt	r2,r17,2002edc <___vfprintf_internal_r+0x16d4>
 2002938:	45800204 	addi	r22,r8,8
 200293c:	d9003617 	ldw	r4,216(sp)
 2002940:	d9403817 	ldw	r5,224(sp)
 2002944:	000d883a 	mov	r6,zero
 2002948:	000f883a 	mov	r7,zero
 200294c:	d8c03c15 	stw	r3,240(sp)
 2002950:	200c70c0 	call	200c70c <__eqdf2>
 2002954:	d8c03c17 	ldw	r3,240(sp)
 2002958:	1000bc26 	beq	r2,zero,2002c4c <___vfprintf_internal_r+0x1444>
 200295c:	d9403317 	ldw	r5,204(sp)
 2002960:	84000044 	addi	r16,r16,1
 2002964:	8c400044 	addi	r17,r17,1
 2002968:	28bfffc4 	addi	r2,r5,-1
 200296c:	1887883a 	add	r3,r3,r2
 2002970:	b0800115 	stw	r2,4(r22)
 2002974:	b4000015 	stw	r16,0(r22)
 2002978:	d8c02015 	stw	r3,128(sp)
 200297c:	dc401f15 	stw	r17,124(sp)
 2002980:	008001c4 	movi	r2,7
 2002984:	14414316 	blt	r2,r17,2002e94 <___vfprintf_internal_r+0x168c>
 2002988:	b5800204 	addi	r22,r22,8
 200298c:	d9003a17 	ldw	r4,232(sp)
 2002990:	df0022c4 	addi	fp,sp,139
 2002994:	8c400044 	addi	r17,r17,1
 2002998:	20c7883a 	add	r3,r4,r3
 200299c:	b7000015 	stw	fp,0(r22)
 20029a0:	b1000115 	stw	r4,4(r22)
 20029a4:	d8c02015 	stw	r3,128(sp)
 20029a8:	dc401f15 	stw	r17,124(sp)
 20029ac:	008001c4 	movi	r2,7
 20029b0:	14400e16 	blt	r2,r17,20029ec <___vfprintf_internal_r+0x11e4>
 20029b4:	b2000204 	addi	r8,r22,8
 20029b8:	003e1806 	br	200221c <__alt_mem_flash+0xfdff121c>
 20029bc:	01008074 	movhi	r4,513
 20029c0:	21068784 	addi	r4,r4,6686
 20029c4:	d9002c15 	stw	r4,176(sp)
 20029c8:	d9002c17 	ldw	r4,176(sp)
 20029cc:	1c07883a 	add	r3,r3,r16
 20029d0:	44000115 	stw	r16,4(r8)
 20029d4:	41000015 	stw	r4,0(r8)
 20029d8:	10800044 	addi	r2,r2,1
 20029dc:	d8c02015 	stw	r3,128(sp)
 20029e0:	d8801f15 	stw	r2,124(sp)
 20029e4:	010001c4 	movi	r4,7
 20029e8:	20be0b0e 	bge	r4,r2,2002218 <__alt_mem_flash+0xfdff1218>
 20029ec:	d9002d17 	ldw	r4,180(sp)
 20029f0:	d9801e04 	addi	r6,sp,120
 20029f4:	b80b883a 	mov	r5,r23
 20029f8:	20084f80 	call	20084f8 <__sprint_r>
 20029fc:	103c861e 	bne	r2,zero,2001c18 <__alt_mem_flash+0xfdff0c18>
 2002a00:	d8c02017 	ldw	r3,128(sp)
 2002a04:	da000404 	addi	r8,sp,16
 2002a08:	003e0406 	br	200221c <__alt_mem_flash+0xfdff121c>
 2002a0c:	d9002d17 	ldw	r4,180(sp)
 2002a10:	d9801e04 	addi	r6,sp,120
 2002a14:	b80b883a 	mov	r5,r23
 2002a18:	20084f80 	call	20084f8 <__sprint_r>
 2002a1c:	103e3b26 	beq	r2,zero,200230c <__alt_mem_flash+0xfdff130c>
 2002a20:	003c7d06 	br	2001c18 <__alt_mem_flash+0xfdff0c18>
 2002a24:	d9002d17 	ldw	r4,180(sp)
 2002a28:	d9801e04 	addi	r6,sp,120
 2002a2c:	b80b883a 	mov	r5,r23
 2002a30:	20084f80 	call	20084f8 <__sprint_r>
 2002a34:	103c781e 	bne	r2,zero,2001c18 <__alt_mem_flash+0xfdff0c18>
 2002a38:	d8c02017 	ldw	r3,128(sp)
 2002a3c:	da000404 	addi	r8,sp,16
 2002a40:	003de906 	br	20021e8 <__alt_mem_flash+0xfdff11e8>
 2002a44:	d9002d17 	ldw	r4,180(sp)
 2002a48:	d9801e04 	addi	r6,sp,120
 2002a4c:	b80b883a 	mov	r5,r23
 2002a50:	20084f80 	call	20084f8 <__sprint_r>
 2002a54:	103c701e 	bne	r2,zero,2001c18 <__alt_mem_flash+0xfdff0c18>
 2002a58:	d8c02017 	ldw	r3,128(sp)
 2002a5c:	da000404 	addi	r8,sp,16
 2002a60:	003d9b06 	br	20020d0 <__alt_mem_flash+0xfdff10d0>
 2002a64:	d9002d17 	ldw	r4,180(sp)
 2002a68:	d9801e04 	addi	r6,sp,120
 2002a6c:	b80b883a 	mov	r5,r23
 2002a70:	20084f80 	call	20084f8 <__sprint_r>
 2002a74:	103c681e 	bne	r2,zero,2001c18 <__alt_mem_flash+0xfdff0c18>
 2002a78:	d8c02017 	ldw	r3,128(sp)
 2002a7c:	da000404 	addi	r8,sp,16
 2002a80:	003da106 	br	2002108 <__alt_mem_flash+0xfdff1108>
 2002a84:	d9402a17 	ldw	r5,168(sp)
 2002a88:	d8002785 	stb	zero,158(sp)
 2002a8c:	283f0616 	blt	r5,zero,20026a8 <__alt_mem_flash+0xfdff16a8>
 2002a90:	00ffdfc4 	movi	r3,-129
 2002a94:	9d84b03a 	or	r2,r19,r22
 2002a98:	90e4703a 	and	r18,r18,r3
 2002a9c:	103c3b26 	beq	r2,zero,2001b8c <__alt_mem_flash+0xfdff0b8c>
 2002aa0:	0039883a 	mov	fp,zero
 2002aa4:	003e5806 	br	2002408 <__alt_mem_flash+0xfdff1408>
 2002aa8:	9080040c 	andi	r2,r18,16
 2002aac:	1001b326 	beq	r2,zero,200317c <___vfprintf_internal_r+0x1974>
 2002ab0:	d8c02e17 	ldw	r3,184(sp)
 2002ab4:	d9002a17 	ldw	r4,168(sp)
 2002ab8:	d8002785 	stb	zero,158(sp)
 2002abc:	18800104 	addi	r2,r3,4
 2002ac0:	1cc00017 	ldw	r19,0(r3)
 2002ac4:	002d883a 	mov	r22,zero
 2002ac8:	2001b516 	blt	r4,zero,20031a0 <___vfprintf_internal_r+0x1998>
 2002acc:	00ffdfc4 	movi	r3,-129
 2002ad0:	d8802e15 	stw	r2,184(sp)
 2002ad4:	90e4703a 	and	r18,r18,r3
 2002ad8:	983d0526 	beq	r19,zero,2001ef0 <__alt_mem_flash+0xfdff0ef0>
 2002adc:	0039883a 	mov	fp,zero
 2002ae0:	003d0806 	br	2001f04 <__alt_mem_flash+0xfdff0f04>
 2002ae4:	dc402617 	ldw	r17,152(sp)
 2002ae8:	0441d30e 	bge	zero,r17,2003238 <___vfprintf_internal_r+0x1a30>
 2002aec:	dc403217 	ldw	r17,200(sp)
 2002af0:	d8803317 	ldw	r2,204(sp)
 2002af4:	1440010e 	bge	r2,r17,2002afc <___vfprintf_internal_r+0x12f4>
 2002af8:	1023883a 	mov	r17,r2
 2002afc:	04400a0e 	bge	zero,r17,2002b28 <___vfprintf_internal_r+0x1320>
 2002b00:	d8801f17 	ldw	r2,124(sp)
 2002b04:	1c47883a 	add	r3,r3,r17
 2002b08:	44000015 	stw	r16,0(r8)
 2002b0c:	10800044 	addi	r2,r2,1
 2002b10:	44400115 	stw	r17,4(r8)
 2002b14:	d8c02015 	stw	r3,128(sp)
 2002b18:	d8801f15 	stw	r2,124(sp)
 2002b1c:	010001c4 	movi	r4,7
 2002b20:	20826516 	blt	r4,r2,20034b8 <___vfprintf_internal_r+0x1cb0>
 2002b24:	42000204 	addi	r8,r8,8
 2002b28:	88026116 	blt	r17,zero,20034b0 <___vfprintf_internal_r+0x1ca8>
 2002b2c:	d9003217 	ldw	r4,200(sp)
 2002b30:	2463c83a 	sub	r17,r4,r17
 2002b34:	04407b0e 	bge	zero,r17,2002d24 <___vfprintf_internal_r+0x151c>
 2002b38:	05800404 	movi	r22,16
 2002b3c:	d8801f17 	ldw	r2,124(sp)
 2002b40:	b4419d0e 	bge	r22,r17,20031b8 <___vfprintf_internal_r+0x19b0>
 2002b44:	01008074 	movhi	r4,513
 2002b48:	21068784 	addi	r4,r4,6686
 2002b4c:	d9002c15 	stw	r4,176(sp)
 2002b50:	070001c4 	movi	fp,7
 2002b54:	dcc02d17 	ldw	r19,180(sp)
 2002b58:	00000306 	br	2002b68 <___vfprintf_internal_r+0x1360>
 2002b5c:	42000204 	addi	r8,r8,8
 2002b60:	8c7ffc04 	addi	r17,r17,-16
 2002b64:	b441970e 	bge	r22,r17,20031c4 <___vfprintf_internal_r+0x19bc>
 2002b68:	18c00404 	addi	r3,r3,16
 2002b6c:	10800044 	addi	r2,r2,1
 2002b70:	45000015 	stw	r20,0(r8)
 2002b74:	45800115 	stw	r22,4(r8)
 2002b78:	d8c02015 	stw	r3,128(sp)
 2002b7c:	d8801f15 	stw	r2,124(sp)
 2002b80:	e0bff60e 	bge	fp,r2,2002b5c <__alt_mem_flash+0xfdff1b5c>
 2002b84:	d9801e04 	addi	r6,sp,120
 2002b88:	b80b883a 	mov	r5,r23
 2002b8c:	9809883a 	mov	r4,r19
 2002b90:	20084f80 	call	20084f8 <__sprint_r>
 2002b94:	103c201e 	bne	r2,zero,2001c18 <__alt_mem_flash+0xfdff0c18>
 2002b98:	d8c02017 	ldw	r3,128(sp)
 2002b9c:	d8801f17 	ldw	r2,124(sp)
 2002ba0:	da000404 	addi	r8,sp,16
 2002ba4:	003fee06 	br	2002b60 <__alt_mem_flash+0xfdff1b60>
 2002ba8:	d9002d17 	ldw	r4,180(sp)
 2002bac:	d9801e04 	addi	r6,sp,120
 2002bb0:	b80b883a 	mov	r5,r23
 2002bb4:	20084f80 	call	20084f8 <__sprint_r>
 2002bb8:	103c171e 	bne	r2,zero,2001c18 <__alt_mem_flash+0xfdff0c18>
 2002bbc:	d8c02017 	ldw	r3,128(sp)
 2002bc0:	df002787 	ldb	fp,158(sp)
 2002bc4:	da000404 	addi	r8,sp,16
 2002bc8:	003d3406 	br	200209c <__alt_mem_flash+0xfdff109c>
 2002bcc:	9080040c 	andi	r2,r18,16
 2002bd0:	10016126 	beq	r2,zero,2003158 <___vfprintf_internal_r+0x1950>
 2002bd4:	d9402e17 	ldw	r5,184(sp)
 2002bd8:	2cc00017 	ldw	r19,0(r5)
 2002bdc:	29400104 	addi	r5,r5,4
 2002be0:	d9402e15 	stw	r5,184(sp)
 2002be4:	982dd7fa 	srai	r22,r19,31
 2002be8:	b005883a 	mov	r2,r22
 2002bec:	003c5a06 	br	2001d58 <__alt_mem_flash+0xfdff0d58>
 2002bf0:	9080040c 	andi	r2,r18,16
 2002bf4:	10003526 	beq	r2,zero,2002ccc <___vfprintf_internal_r+0x14c4>
 2002bf8:	d8c02e17 	ldw	r3,184(sp)
 2002bfc:	d9002a17 	ldw	r4,168(sp)
 2002c00:	d8002785 	stb	zero,158(sp)
 2002c04:	18800104 	addi	r2,r3,4
 2002c08:	1cc00017 	ldw	r19,0(r3)
 2002c0c:	002d883a 	mov	r22,zero
 2002c10:	20003716 	blt	r4,zero,2002cf0 <___vfprintf_internal_r+0x14e8>
 2002c14:	00ffdfc4 	movi	r3,-129
 2002c18:	d8802e15 	stw	r2,184(sp)
 2002c1c:	90e4703a 	and	r18,r18,r3
 2002c20:	0039883a 	mov	fp,zero
 2002c24:	983dd426 	beq	r19,zero,2002378 <__alt_mem_flash+0xfdff1378>
 2002c28:	00800244 	movi	r2,9
 2002c2c:	14fc5336 	bltu	r2,r19,2001d7c <__alt_mem_flash+0xfdff0d7c>
 2002c30:	d8c02817 	ldw	r3,160(sp)
 2002c34:	dc001dc4 	addi	r16,sp,119
 2002c38:	9cc00c04 	addi	r19,r19,48
 2002c3c:	1c07c83a 	sub	r3,r3,r16
 2002c40:	dcc01dc5 	stb	r19,119(sp)
 2002c44:	d8c02b15 	stw	r3,172(sp)
 2002c48:	003cc606 	br	2001f64 <__alt_mem_flash+0xfdff0f64>
 2002c4c:	d8803317 	ldw	r2,204(sp)
 2002c50:	143fffc4 	addi	r16,r2,-1
 2002c54:	043f4d0e 	bge	zero,r16,200298c <__alt_mem_flash+0xfdff198c>
 2002c58:	07000404 	movi	fp,16
 2002c5c:	e400810e 	bge	fp,r16,2002e64 <___vfprintf_internal_r+0x165c>
 2002c60:	01408074 	movhi	r5,513
 2002c64:	29468784 	addi	r5,r5,6686
 2002c68:	d9402c15 	stw	r5,176(sp)
 2002c6c:	01c001c4 	movi	r7,7
 2002c70:	dcc02d17 	ldw	r19,180(sp)
 2002c74:	00000306 	br	2002c84 <___vfprintf_internal_r+0x147c>
 2002c78:	b5800204 	addi	r22,r22,8
 2002c7c:	843ffc04 	addi	r16,r16,-16
 2002c80:	e4007b0e 	bge	fp,r16,2002e70 <___vfprintf_internal_r+0x1668>
 2002c84:	18c00404 	addi	r3,r3,16
 2002c88:	8c400044 	addi	r17,r17,1
 2002c8c:	b5000015 	stw	r20,0(r22)
 2002c90:	b7000115 	stw	fp,4(r22)
 2002c94:	d8c02015 	stw	r3,128(sp)
 2002c98:	dc401f15 	stw	r17,124(sp)
 2002c9c:	3c7ff60e 	bge	r7,r17,2002c78 <__alt_mem_flash+0xfdff1c78>
 2002ca0:	d9801e04 	addi	r6,sp,120
 2002ca4:	b80b883a 	mov	r5,r23
 2002ca8:	9809883a 	mov	r4,r19
 2002cac:	d9c03c15 	stw	r7,240(sp)
 2002cb0:	20084f80 	call	20084f8 <__sprint_r>
 2002cb4:	d9c03c17 	ldw	r7,240(sp)
 2002cb8:	103bd71e 	bne	r2,zero,2001c18 <__alt_mem_flash+0xfdff0c18>
 2002cbc:	d8c02017 	ldw	r3,128(sp)
 2002cc0:	dc401f17 	ldw	r17,124(sp)
 2002cc4:	dd800404 	addi	r22,sp,16
 2002cc8:	003fec06 	br	2002c7c <__alt_mem_flash+0xfdff1c7c>
 2002ccc:	9080100c 	andi	r2,r18,64
 2002cd0:	d8002785 	stb	zero,158(sp)
 2002cd4:	10010e26 	beq	r2,zero,2003110 <___vfprintf_internal_r+0x1908>
 2002cd8:	d9402e17 	ldw	r5,184(sp)
 2002cdc:	d8c02a17 	ldw	r3,168(sp)
 2002ce0:	002d883a 	mov	r22,zero
 2002ce4:	28800104 	addi	r2,r5,4
 2002ce8:	2cc0000b 	ldhu	r19,0(r5)
 2002cec:	183fc90e 	bge	r3,zero,2002c14 <__alt_mem_flash+0xfdff1c14>
 2002cf0:	d8802e15 	stw	r2,184(sp)
 2002cf4:	0039883a 	mov	fp,zero
 2002cf8:	9d84b03a 	or	r2,r19,r22
 2002cfc:	103c1e1e 	bne	r2,zero,2001d78 <__alt_mem_flash+0xfdff0d78>
 2002d00:	00800044 	movi	r2,1
 2002d04:	003e6c06 	br	20026b8 <__alt_mem_flash+0xfdff16b8>
 2002d08:	d9002d17 	ldw	r4,180(sp)
 2002d0c:	d9801e04 	addi	r6,sp,120
 2002d10:	b80b883a 	mov	r5,r23
 2002d14:	20084f80 	call	20084f8 <__sprint_r>
 2002d18:	103bbf1e 	bne	r2,zero,2001c18 <__alt_mem_flash+0xfdff0c18>
 2002d1c:	d8c02017 	ldw	r3,128(sp)
 2002d20:	da000404 	addi	r8,sp,16
 2002d24:	d9003217 	ldw	r4,200(sp)
 2002d28:	d8802617 	ldw	r2,152(sp)
 2002d2c:	d9403317 	ldw	r5,204(sp)
 2002d30:	8123883a 	add	r17,r16,r4
 2002d34:	11400216 	blt	r2,r5,2002d40 <___vfprintf_internal_r+0x1538>
 2002d38:	9100004c 	andi	r4,r18,1
 2002d3c:	20000d26 	beq	r4,zero,2002d74 <___vfprintf_internal_r+0x156c>
 2002d40:	d9003717 	ldw	r4,220(sp)
 2002d44:	d9403417 	ldw	r5,208(sp)
 2002d48:	1907883a 	add	r3,r3,r4
 2002d4c:	d9001f17 	ldw	r4,124(sp)
 2002d50:	41400015 	stw	r5,0(r8)
 2002d54:	d9403717 	ldw	r5,220(sp)
 2002d58:	21000044 	addi	r4,r4,1
 2002d5c:	d8c02015 	stw	r3,128(sp)
 2002d60:	41400115 	stw	r5,4(r8)
 2002d64:	d9001f15 	stw	r4,124(sp)
 2002d68:	014001c4 	movi	r5,7
 2002d6c:	2901e816 	blt	r5,r4,2003510 <___vfprintf_internal_r+0x1d08>
 2002d70:	42000204 	addi	r8,r8,8
 2002d74:	d9003317 	ldw	r4,204(sp)
 2002d78:	8121883a 	add	r16,r16,r4
 2002d7c:	2085c83a 	sub	r2,r4,r2
 2002d80:	8461c83a 	sub	r16,r16,r17
 2002d84:	1400010e 	bge	r2,r16,2002d8c <___vfprintf_internal_r+0x1584>
 2002d88:	1021883a 	mov	r16,r2
 2002d8c:	04000a0e 	bge	zero,r16,2002db8 <___vfprintf_internal_r+0x15b0>
 2002d90:	d9001f17 	ldw	r4,124(sp)
 2002d94:	1c07883a 	add	r3,r3,r16
 2002d98:	44400015 	stw	r17,0(r8)
 2002d9c:	21000044 	addi	r4,r4,1
 2002da0:	44000115 	stw	r16,4(r8)
 2002da4:	d8c02015 	stw	r3,128(sp)
 2002da8:	d9001f15 	stw	r4,124(sp)
 2002dac:	014001c4 	movi	r5,7
 2002db0:	2901fb16 	blt	r5,r4,20035a0 <___vfprintf_internal_r+0x1d98>
 2002db4:	42000204 	addi	r8,r8,8
 2002db8:	8001f716 	blt	r16,zero,2003598 <___vfprintf_internal_r+0x1d90>
 2002dbc:	1421c83a 	sub	r16,r2,r16
 2002dc0:	043d160e 	bge	zero,r16,200221c <__alt_mem_flash+0xfdff121c>
 2002dc4:	04400404 	movi	r17,16
 2002dc8:	d8801f17 	ldw	r2,124(sp)
 2002dcc:	8c3efb0e 	bge	r17,r16,20029bc <__alt_mem_flash+0xfdff19bc>
 2002dd0:	01408074 	movhi	r5,513
 2002dd4:	29468784 	addi	r5,r5,6686
 2002dd8:	d9402c15 	stw	r5,176(sp)
 2002ddc:	058001c4 	movi	r22,7
 2002de0:	dcc02d17 	ldw	r19,180(sp)
 2002de4:	00000306 	br	2002df4 <___vfprintf_internal_r+0x15ec>
 2002de8:	42000204 	addi	r8,r8,8
 2002dec:	843ffc04 	addi	r16,r16,-16
 2002df0:	8c3ef50e 	bge	r17,r16,20029c8 <__alt_mem_flash+0xfdff19c8>
 2002df4:	18c00404 	addi	r3,r3,16
 2002df8:	10800044 	addi	r2,r2,1
 2002dfc:	45000015 	stw	r20,0(r8)
 2002e00:	44400115 	stw	r17,4(r8)
 2002e04:	d8c02015 	stw	r3,128(sp)
 2002e08:	d8801f15 	stw	r2,124(sp)
 2002e0c:	b0bff60e 	bge	r22,r2,2002de8 <__alt_mem_flash+0xfdff1de8>
 2002e10:	d9801e04 	addi	r6,sp,120
 2002e14:	b80b883a 	mov	r5,r23
 2002e18:	9809883a 	mov	r4,r19
 2002e1c:	20084f80 	call	20084f8 <__sprint_r>
 2002e20:	103b7d1e 	bne	r2,zero,2001c18 <__alt_mem_flash+0xfdff0c18>
 2002e24:	d8c02017 	ldw	r3,128(sp)
 2002e28:	d8801f17 	ldw	r2,124(sp)
 2002e2c:	da000404 	addi	r8,sp,16
 2002e30:	003fee06 	br	2002dec <__alt_mem_flash+0xfdff1dec>
 2002e34:	9088703a 	and	r4,r18,r2
 2002e38:	203eab1e 	bne	r4,zero,20028e8 <__alt_mem_flash+0xfdff18e8>
 2002e3c:	dc401f17 	ldw	r17,124(sp)
 2002e40:	40800115 	stw	r2,4(r8)
 2002e44:	44000015 	stw	r16,0(r8)
 2002e48:	8c400044 	addi	r17,r17,1
 2002e4c:	d8c02015 	stw	r3,128(sp)
 2002e50:	dc401f15 	stw	r17,124(sp)
 2002e54:	008001c4 	movi	r2,7
 2002e58:	14400e16 	blt	r2,r17,2002e94 <___vfprintf_internal_r+0x168c>
 2002e5c:	45800204 	addi	r22,r8,8
 2002e60:	003eca06 	br	200298c <__alt_mem_flash+0xfdff198c>
 2002e64:	01008074 	movhi	r4,513
 2002e68:	21068784 	addi	r4,r4,6686
 2002e6c:	d9002c15 	stw	r4,176(sp)
 2002e70:	d8802c17 	ldw	r2,176(sp)
 2002e74:	1c07883a 	add	r3,r3,r16
 2002e78:	8c400044 	addi	r17,r17,1
 2002e7c:	b0800015 	stw	r2,0(r22)
 2002e80:	b4000115 	stw	r16,4(r22)
 2002e84:	d8c02015 	stw	r3,128(sp)
 2002e88:	dc401f15 	stw	r17,124(sp)
 2002e8c:	008001c4 	movi	r2,7
 2002e90:	147ebd0e 	bge	r2,r17,2002988 <__alt_mem_flash+0xfdff1988>
 2002e94:	d9002d17 	ldw	r4,180(sp)
 2002e98:	d9801e04 	addi	r6,sp,120
 2002e9c:	b80b883a 	mov	r5,r23
 2002ea0:	20084f80 	call	20084f8 <__sprint_r>
 2002ea4:	103b5c1e 	bne	r2,zero,2001c18 <__alt_mem_flash+0xfdff0c18>
 2002ea8:	d8c02017 	ldw	r3,128(sp)
 2002eac:	dc401f17 	ldw	r17,124(sp)
 2002eb0:	dd800404 	addi	r22,sp,16
 2002eb4:	003eb506 	br	200298c <__alt_mem_flash+0xfdff198c>
 2002eb8:	d9002d17 	ldw	r4,180(sp)
 2002ebc:	d9801e04 	addi	r6,sp,120
 2002ec0:	b80b883a 	mov	r5,r23
 2002ec4:	20084f80 	call	20084f8 <__sprint_r>
 2002ec8:	103b531e 	bne	r2,zero,2001c18 <__alt_mem_flash+0xfdff0c18>
 2002ecc:	d8c02017 	ldw	r3,128(sp)
 2002ed0:	dc401f17 	ldw	r17,124(sp)
 2002ed4:	da000404 	addi	r8,sp,16
 2002ed8:	003e8d06 	br	2002910 <__alt_mem_flash+0xfdff1910>
 2002edc:	d9002d17 	ldw	r4,180(sp)
 2002ee0:	d9801e04 	addi	r6,sp,120
 2002ee4:	b80b883a 	mov	r5,r23
 2002ee8:	20084f80 	call	20084f8 <__sprint_r>
 2002eec:	103b4a1e 	bne	r2,zero,2001c18 <__alt_mem_flash+0xfdff0c18>
 2002ef0:	d8c02017 	ldw	r3,128(sp)
 2002ef4:	dc401f17 	ldw	r17,124(sp)
 2002ef8:	dd800404 	addi	r22,sp,16
 2002efc:	003e8f06 	br	200293c <__alt_mem_flash+0xfdff193c>
 2002f00:	0027883a 	mov	r19,zero
 2002f04:	003f4a06 	br	2002c30 <__alt_mem_flash+0xfdff1c30>
 2002f08:	d9002d17 	ldw	r4,180(sp)
 2002f0c:	d9801e04 	addi	r6,sp,120
 2002f10:	b80b883a 	mov	r5,r23
 2002f14:	20084f80 	call	20084f8 <__sprint_r>
 2002f18:	103b3f1e 	bne	r2,zero,2001c18 <__alt_mem_flash+0xfdff0c18>
 2002f1c:	d8c02017 	ldw	r3,128(sp)
 2002f20:	da000404 	addi	r8,sp,16
 2002f24:	003c7b06 	br	2002114 <__alt_mem_flash+0xfdff1114>
 2002f28:	d9402a17 	ldw	r5,168(sp)
 2002f2c:	04e7c83a 	sub	r19,zero,r19
 2002f30:	07000b44 	movi	fp,45
 2002f34:	9804c03a 	cmpne	r2,r19,zero
 2002f38:	05adc83a 	sub	r22,zero,r22
 2002f3c:	df002785 	stb	fp,158(sp)
 2002f40:	b0adc83a 	sub	r22,r22,r2
 2002f44:	28017b16 	blt	r5,zero,2003534 <___vfprintf_internal_r+0x1d2c>
 2002f48:	00bfdfc4 	movi	r2,-129
 2002f4c:	90a4703a 	and	r18,r18,r2
 2002f50:	003b8906 	br	2001d78 <__alt_mem_flash+0xfdff0d78>
 2002f54:	d9003617 	ldw	r4,216(sp)
 2002f58:	d9403817 	ldw	r5,224(sp)
 2002f5c:	da003d15 	stw	r8,244(sp)
 2002f60:	20080840 	call	2008084 <__fpclassifyd>
 2002f64:	da003d17 	ldw	r8,244(sp)
 2002f68:	1000f026 	beq	r2,zero,200332c <___vfprintf_internal_r+0x1b24>
 2002f6c:	d9002a17 	ldw	r4,168(sp)
 2002f70:	05bff7c4 	movi	r22,-33
 2002f74:	00bfffc4 	movi	r2,-1
 2002f78:	8dac703a 	and	r22,r17,r22
 2002f7c:	20820026 	beq	r4,r2,2003780 <___vfprintf_internal_r+0x1f78>
 2002f80:	008011c4 	movi	r2,71
 2002f84:	b081f726 	beq	r22,r2,2003764 <___vfprintf_internal_r+0x1f5c>
 2002f88:	d9003817 	ldw	r4,224(sp)
 2002f8c:	90c04014 	ori	r3,r18,256
 2002f90:	d8c02c15 	stw	r3,176(sp)
 2002f94:	20021516 	blt	r4,zero,20037ec <___vfprintf_internal_r+0x1fe4>
 2002f98:	dcc03817 	ldw	r19,224(sp)
 2002f9c:	d8002905 	stb	zero,164(sp)
 2002fa0:	00801984 	movi	r2,102
 2002fa4:	8881f926 	beq	r17,r2,200378c <___vfprintf_internal_r+0x1f84>
 2002fa8:	00801184 	movi	r2,70
 2002fac:	88821c26 	beq	r17,r2,2003820 <___vfprintf_internal_r+0x2018>
 2002fb0:	00801144 	movi	r2,69
 2002fb4:	b081ef26 	beq	r22,r2,2003774 <___vfprintf_internal_r+0x1f6c>
 2002fb8:	d8c02a17 	ldw	r3,168(sp)
 2002fbc:	d8802104 	addi	r2,sp,132
 2002fc0:	d8800315 	stw	r2,12(sp)
 2002fc4:	d9403617 	ldw	r5,216(sp)
 2002fc8:	d8802504 	addi	r2,sp,148
 2002fcc:	d9002d17 	ldw	r4,180(sp)
 2002fd0:	d8800215 	stw	r2,8(sp)
 2002fd4:	d8802604 	addi	r2,sp,152
 2002fd8:	d8c00015 	stw	r3,0(sp)
 2002fdc:	d8800115 	stw	r2,4(sp)
 2002fe0:	01c00084 	movi	r7,2
 2002fe4:	980d883a 	mov	r6,r19
 2002fe8:	d8c03c15 	stw	r3,240(sp)
 2002fec:	da003d15 	stw	r8,244(sp)
 2002ff0:	2003f380 	call	2003f38 <_dtoa_r>
 2002ff4:	1021883a 	mov	r16,r2
 2002ff8:	008019c4 	movi	r2,103
 2002ffc:	d8c03c17 	ldw	r3,240(sp)
 2003000:	da003d17 	ldw	r8,244(sp)
 2003004:	88817126 	beq	r17,r2,20035cc <___vfprintf_internal_r+0x1dc4>
 2003008:	008011c4 	movi	r2,71
 200300c:	88829126 	beq	r17,r2,2003a54 <___vfprintf_internal_r+0x224c>
 2003010:	80f9883a 	add	fp,r16,r3
 2003014:	d9003617 	ldw	r4,216(sp)
 2003018:	000d883a 	mov	r6,zero
 200301c:	000f883a 	mov	r7,zero
 2003020:	980b883a 	mov	r5,r19
 2003024:	da003d15 	stw	r8,244(sp)
 2003028:	200c70c0 	call	200c70c <__eqdf2>
 200302c:	da003d17 	ldw	r8,244(sp)
 2003030:	10018d26 	beq	r2,zero,2003668 <___vfprintf_internal_r+0x1e60>
 2003034:	d8802117 	ldw	r2,132(sp)
 2003038:	1700062e 	bgeu	r2,fp,2003054 <___vfprintf_internal_r+0x184c>
 200303c:	01000c04 	movi	r4,48
 2003040:	10c00044 	addi	r3,r2,1
 2003044:	d8c02115 	stw	r3,132(sp)
 2003048:	11000005 	stb	r4,0(r2)
 200304c:	d8802117 	ldw	r2,132(sp)
 2003050:	173ffb36 	bltu	r2,fp,2003040 <__alt_mem_flash+0xfdff2040>
 2003054:	1405c83a 	sub	r2,r2,r16
 2003058:	d8803315 	stw	r2,204(sp)
 200305c:	008011c4 	movi	r2,71
 2003060:	b0817626 	beq	r22,r2,200363c <___vfprintf_internal_r+0x1e34>
 2003064:	00801944 	movi	r2,101
 2003068:	1442800e 	bge	r2,r17,2003a6c <___vfprintf_internal_r+0x2264>
 200306c:	d8c02617 	ldw	r3,152(sp)
 2003070:	00801984 	movi	r2,102
 2003074:	d8c03215 	stw	r3,200(sp)
 2003078:	8881fe26 	beq	r17,r2,2003874 <___vfprintf_internal_r+0x206c>
 200307c:	d8c03217 	ldw	r3,200(sp)
 2003080:	d9003317 	ldw	r4,204(sp)
 2003084:	1901dd16 	blt	r3,r4,20037fc <___vfprintf_internal_r+0x1ff4>
 2003088:	9480004c 	andi	r18,r18,1
 200308c:	90022b1e 	bne	r18,zero,200393c <___vfprintf_internal_r+0x2134>
 2003090:	1805883a 	mov	r2,r3
 2003094:	18028316 	blt	r3,zero,2003aa4 <___vfprintf_internal_r+0x229c>
 2003098:	d8c03217 	ldw	r3,200(sp)
 200309c:	044019c4 	movi	r17,103
 20030a0:	d8c02b15 	stw	r3,172(sp)
 20030a4:	df002907 	ldb	fp,164(sp)
 20030a8:	e001531e 	bne	fp,zero,20035f8 <___vfprintf_internal_r+0x1df0>
 20030ac:	df002783 	ldbu	fp,158(sp)
 20030b0:	d8802915 	stw	r2,164(sp)
 20030b4:	dc802c17 	ldw	r18,176(sp)
 20030b8:	d8002a15 	stw	zero,168(sp)
 20030bc:	003baf06 	br	2001f7c <__alt_mem_flash+0xfdff0f7c>
 20030c0:	d8c02e17 	ldw	r3,184(sp)
 20030c4:	d9002e17 	ldw	r4,184(sp)
 20030c8:	d9402e17 	ldw	r5,184(sp)
 20030cc:	18c00017 	ldw	r3,0(r3)
 20030d0:	21000117 	ldw	r4,4(r4)
 20030d4:	29400204 	addi	r5,r5,8
 20030d8:	d8c03615 	stw	r3,216(sp)
 20030dc:	d9003815 	stw	r4,224(sp)
 20030e0:	d9402e15 	stw	r5,184(sp)
 20030e4:	003b5006 	br	2001e28 <__alt_mem_flash+0xfdff0e28>
 20030e8:	ac400007 	ldb	r17,0(r21)
 20030ec:	003a2806 	br	2001990 <__alt_mem_flash+0xfdff0990>
 20030f0:	9080100c 	andi	r2,r18,64
 20030f4:	1000a826 	beq	r2,zero,2003398 <___vfprintf_internal_r+0x1b90>
 20030f8:	d8c02e17 	ldw	r3,184(sp)
 20030fc:	002d883a 	mov	r22,zero
 2003100:	1cc0000b 	ldhu	r19,0(r3)
 2003104:	18c00104 	addi	r3,r3,4
 2003108:	d8c02e15 	stw	r3,184(sp)
 200310c:	003caf06 	br	20023cc <__alt_mem_flash+0xfdff13cc>
 2003110:	d9002e17 	ldw	r4,184(sp)
 2003114:	d9402a17 	ldw	r5,168(sp)
 2003118:	002d883a 	mov	r22,zero
 200311c:	20800104 	addi	r2,r4,4
 2003120:	24c00017 	ldw	r19,0(r4)
 2003124:	283ebb0e 	bge	r5,zero,2002c14 <__alt_mem_flash+0xfdff1c14>
 2003128:	003ef106 	br	2002cf0 <__alt_mem_flash+0xfdff1cf0>
 200312c:	9080040c 	andi	r2,r18,16
 2003130:	1000921e 	bne	r2,zero,200337c <___vfprintf_internal_r+0x1b74>
 2003134:	9480100c 	andi	r18,r18,64
 2003138:	90013926 	beq	r18,zero,2003620 <___vfprintf_internal_r+0x1e18>
 200313c:	d9402e17 	ldw	r5,184(sp)
 2003140:	d8c02f17 	ldw	r3,188(sp)
 2003144:	28800017 	ldw	r2,0(r5)
 2003148:	29400104 	addi	r5,r5,4
 200314c:	d9402e15 	stw	r5,184(sp)
 2003150:	10c0000d 	sth	r3,0(r2)
 2003154:	0039e406 	br	20018e8 <__alt_mem_flash+0xfdff08e8>
 2003158:	9080100c 	andi	r2,r18,64
 200315c:	10008026 	beq	r2,zero,2003360 <___vfprintf_internal_r+0x1b58>
 2003160:	d8802e17 	ldw	r2,184(sp)
 2003164:	14c0000f 	ldh	r19,0(r2)
 2003168:	10800104 	addi	r2,r2,4
 200316c:	d8802e15 	stw	r2,184(sp)
 2003170:	982dd7fa 	srai	r22,r19,31
 2003174:	b005883a 	mov	r2,r22
 2003178:	003af706 	br	2001d58 <__alt_mem_flash+0xfdff0d58>
 200317c:	9080100c 	andi	r2,r18,64
 2003180:	d8002785 	stb	zero,158(sp)
 2003184:	10008a1e 	bne	r2,zero,20033b0 <___vfprintf_internal_r+0x1ba8>
 2003188:	d9002e17 	ldw	r4,184(sp)
 200318c:	d9402a17 	ldw	r5,168(sp)
 2003190:	002d883a 	mov	r22,zero
 2003194:	20800104 	addi	r2,r4,4
 2003198:	24c00017 	ldw	r19,0(r4)
 200319c:	283e4b0e 	bge	r5,zero,2002acc <__alt_mem_flash+0xfdff1acc>
 20031a0:	9d86b03a 	or	r3,r19,r22
 20031a4:	d8802e15 	stw	r2,184(sp)
 20031a8:	183e4c1e 	bne	r3,zero,2002adc <__alt_mem_flash+0xfdff1adc>
 20031ac:	0039883a 	mov	fp,zero
 20031b0:	0005883a 	mov	r2,zero
 20031b4:	003d4006 	br	20026b8 <__alt_mem_flash+0xfdff16b8>
 20031b8:	01408074 	movhi	r5,513
 20031bc:	29468784 	addi	r5,r5,6686
 20031c0:	d9402c15 	stw	r5,176(sp)
 20031c4:	d9402c17 	ldw	r5,176(sp)
 20031c8:	1c47883a 	add	r3,r3,r17
 20031cc:	10800044 	addi	r2,r2,1
 20031d0:	41400015 	stw	r5,0(r8)
 20031d4:	44400115 	stw	r17,4(r8)
 20031d8:	d8c02015 	stw	r3,128(sp)
 20031dc:	d8801f15 	stw	r2,124(sp)
 20031e0:	010001c4 	movi	r4,7
 20031e4:	20bec816 	blt	r4,r2,2002d08 <__alt_mem_flash+0xfdff1d08>
 20031e8:	42000204 	addi	r8,r8,8
 20031ec:	003ecd06 	br	2002d24 <__alt_mem_flash+0xfdff1d24>
 20031f0:	d9002a17 	ldw	r4,168(sp)
 20031f4:	d8002785 	stb	zero,158(sp)
 20031f8:	203d2d16 	blt	r4,zero,20026b0 <__alt_mem_flash+0xfdff16b0>
 20031fc:	00bfdfc4 	movi	r2,-129
 2003200:	90a4703a 	and	r18,r18,r2
 2003204:	003a6106 	br	2001b8c <__alt_mem_flash+0xfdff0b8c>
 2003208:	01008074 	movhi	r4,513
 200320c:	21068784 	addi	r4,r4,6686
 2003210:	d9002c15 	stw	r4,176(sp)
 2003214:	003bea06 	br	20021c0 <__alt_mem_flash+0xfdff11c0>
 2003218:	d9002d17 	ldw	r4,180(sp)
 200321c:	d9801e04 	addi	r6,sp,120
 2003220:	b80b883a 	mov	r5,r23
 2003224:	20084f80 	call	20084f8 <__sprint_r>
 2003228:	103a7b1e 	bne	r2,zero,2001c18 <__alt_mem_flash+0xfdff0c18>
 200322c:	d8c02017 	ldw	r3,128(sp)
 2003230:	da000404 	addi	r8,sp,16
 2003234:	003d4106 	br	200273c <__alt_mem_flash+0xfdff173c>
 2003238:	d8801f17 	ldw	r2,124(sp)
 200323c:	01408074 	movhi	r5,513
 2003240:	01000044 	movi	r4,1
 2003244:	18c00044 	addi	r3,r3,1
 2003248:	10800044 	addi	r2,r2,1
 200324c:	29468704 	addi	r5,r5,6684
 2003250:	41000115 	stw	r4,4(r8)
 2003254:	41400015 	stw	r5,0(r8)
 2003258:	d8c02015 	stw	r3,128(sp)
 200325c:	d8801f15 	stw	r2,124(sp)
 2003260:	010001c4 	movi	r4,7
 2003264:	20805c16 	blt	r4,r2,20033d8 <___vfprintf_internal_r+0x1bd0>
 2003268:	42000204 	addi	r8,r8,8
 200326c:	8800041e 	bne	r17,zero,2003280 <___vfprintf_internal_r+0x1a78>
 2003270:	d8803317 	ldw	r2,204(sp)
 2003274:	1000021e 	bne	r2,zero,2003280 <___vfprintf_internal_r+0x1a78>
 2003278:	9080004c 	andi	r2,r18,1
 200327c:	103be726 	beq	r2,zero,200221c <__alt_mem_flash+0xfdff121c>
 2003280:	d9003717 	ldw	r4,220(sp)
 2003284:	d8801f17 	ldw	r2,124(sp)
 2003288:	d9403417 	ldw	r5,208(sp)
 200328c:	20c7883a 	add	r3,r4,r3
 2003290:	10800044 	addi	r2,r2,1
 2003294:	41000115 	stw	r4,4(r8)
 2003298:	41400015 	stw	r5,0(r8)
 200329c:	d8c02015 	stw	r3,128(sp)
 20032a0:	d8801f15 	stw	r2,124(sp)
 20032a4:	010001c4 	movi	r4,7
 20032a8:	20812116 	blt	r4,r2,2003730 <___vfprintf_internal_r+0x1f28>
 20032ac:	42000204 	addi	r8,r8,8
 20032b0:	0463c83a 	sub	r17,zero,r17
 20032b4:	0440730e 	bge	zero,r17,2003484 <___vfprintf_internal_r+0x1c7c>
 20032b8:	05800404 	movi	r22,16
 20032bc:	b440860e 	bge	r22,r17,20034d8 <___vfprintf_internal_r+0x1cd0>
 20032c0:	01408074 	movhi	r5,513
 20032c4:	29468784 	addi	r5,r5,6686
 20032c8:	d9402c15 	stw	r5,176(sp)
 20032cc:	070001c4 	movi	fp,7
 20032d0:	dcc02d17 	ldw	r19,180(sp)
 20032d4:	00000306 	br	20032e4 <___vfprintf_internal_r+0x1adc>
 20032d8:	42000204 	addi	r8,r8,8
 20032dc:	8c7ffc04 	addi	r17,r17,-16
 20032e0:	b440800e 	bge	r22,r17,20034e4 <___vfprintf_internal_r+0x1cdc>
 20032e4:	18c00404 	addi	r3,r3,16
 20032e8:	10800044 	addi	r2,r2,1
 20032ec:	45000015 	stw	r20,0(r8)
 20032f0:	45800115 	stw	r22,4(r8)
 20032f4:	d8c02015 	stw	r3,128(sp)
 20032f8:	d8801f15 	stw	r2,124(sp)
 20032fc:	e0bff60e 	bge	fp,r2,20032d8 <__alt_mem_flash+0xfdff22d8>
 2003300:	d9801e04 	addi	r6,sp,120
 2003304:	b80b883a 	mov	r5,r23
 2003308:	9809883a 	mov	r4,r19
 200330c:	20084f80 	call	20084f8 <__sprint_r>
 2003310:	103a411e 	bne	r2,zero,2001c18 <__alt_mem_flash+0xfdff0c18>
 2003314:	d8c02017 	ldw	r3,128(sp)
 2003318:	d8801f17 	ldw	r2,124(sp)
 200331c:	da000404 	addi	r8,sp,16
 2003320:	003fee06 	br	20032dc <__alt_mem_flash+0xfdff22dc>
 2003324:	00bfffc4 	movi	r2,-1
 2003328:	003a3f06 	br	2001c28 <__alt_mem_flash+0xfdff0c28>
 200332c:	008011c4 	movi	r2,71
 2003330:	1440b816 	blt	r2,r17,2003614 <___vfprintf_internal_r+0x1e0c>
 2003334:	04008074 	movhi	r16,513
 2003338:	84067904 	addi	r16,r16,6628
 200333c:	00c000c4 	movi	r3,3
 2003340:	00bfdfc4 	movi	r2,-129
 2003344:	d8c02915 	stw	r3,164(sp)
 2003348:	90a4703a 	and	r18,r18,r2
 200334c:	df002783 	ldbu	fp,158(sp)
 2003350:	d8c02b15 	stw	r3,172(sp)
 2003354:	d8002a15 	stw	zero,168(sp)
 2003358:	d8003215 	stw	zero,200(sp)
 200335c:	003b0706 	br	2001f7c <__alt_mem_flash+0xfdff0f7c>
 2003360:	d8c02e17 	ldw	r3,184(sp)
 2003364:	1cc00017 	ldw	r19,0(r3)
 2003368:	18c00104 	addi	r3,r3,4
 200336c:	d8c02e15 	stw	r3,184(sp)
 2003370:	982dd7fa 	srai	r22,r19,31
 2003374:	b005883a 	mov	r2,r22
 2003378:	003a7706 	br	2001d58 <__alt_mem_flash+0xfdff0d58>
 200337c:	d8c02e17 	ldw	r3,184(sp)
 2003380:	d9002f17 	ldw	r4,188(sp)
 2003384:	18800017 	ldw	r2,0(r3)
 2003388:	18c00104 	addi	r3,r3,4
 200338c:	d8c02e15 	stw	r3,184(sp)
 2003390:	11000015 	stw	r4,0(r2)
 2003394:	00395406 	br	20018e8 <__alt_mem_flash+0xfdff08e8>
 2003398:	d9002e17 	ldw	r4,184(sp)
 200339c:	002d883a 	mov	r22,zero
 20033a0:	24c00017 	ldw	r19,0(r4)
 20033a4:	21000104 	addi	r4,r4,4
 20033a8:	d9002e15 	stw	r4,184(sp)
 20033ac:	003c0706 	br	20023cc <__alt_mem_flash+0xfdff13cc>
 20033b0:	d9402e17 	ldw	r5,184(sp)
 20033b4:	d8c02a17 	ldw	r3,168(sp)
 20033b8:	002d883a 	mov	r22,zero
 20033bc:	28800104 	addi	r2,r5,4
 20033c0:	2cc0000b 	ldhu	r19,0(r5)
 20033c4:	183dc10e 	bge	r3,zero,2002acc <__alt_mem_flash+0xfdff1acc>
 20033c8:	003f7506 	br	20031a0 <__alt_mem_flash+0xfdff21a0>
 20033cc:	04008074 	movhi	r16,513
 20033d0:	84067704 	addi	r16,r16,6620
 20033d4:	003aa706 	br	2001e74 <__alt_mem_flash+0xfdff0e74>
 20033d8:	d9002d17 	ldw	r4,180(sp)
 20033dc:	d9801e04 	addi	r6,sp,120
 20033e0:	b80b883a 	mov	r5,r23
 20033e4:	20084f80 	call	20084f8 <__sprint_r>
 20033e8:	103a0b1e 	bne	r2,zero,2001c18 <__alt_mem_flash+0xfdff0c18>
 20033ec:	dc402617 	ldw	r17,152(sp)
 20033f0:	d8c02017 	ldw	r3,128(sp)
 20033f4:	da000404 	addi	r8,sp,16
 20033f8:	003f9c06 	br	200326c <__alt_mem_flash+0xfdff226c>
 20033fc:	ac400043 	ldbu	r17,1(r21)
 2003400:	84000814 	ori	r16,r16,32
 2003404:	ad400044 	addi	r21,r21,1
 2003408:	8c403fcc 	andi	r17,r17,255
 200340c:	8c40201c 	xori	r17,r17,128
 2003410:	8c7fe004 	addi	r17,r17,-128
 2003414:	00395e06 	br	2001990 <__alt_mem_flash+0xfdff0990>
 2003418:	d8c02e15 	stw	r3,184(sp)
 200341c:	0039883a 	mov	fp,zero
 2003420:	003e3506 	br	2002cf8 <__alt_mem_flash+0xfdff1cf8>
 2003424:	d9002d17 	ldw	r4,180(sp)
 2003428:	d9801e04 	addi	r6,sp,120
 200342c:	b80b883a 	mov	r5,r23
 2003430:	20084f80 	call	20084f8 <__sprint_r>
 2003434:	1039f81e 	bne	r2,zero,2001c18 <__alt_mem_flash+0xfdff0c18>
 2003438:	d8c02017 	ldw	r3,128(sp)
 200343c:	da000404 	addi	r8,sp,16
 2003440:	003cd006 	br	2002784 <__alt_mem_flash+0xfdff1784>
 2003444:	8009883a 	mov	r4,r16
 2003448:	df003d15 	stw	fp,244(sp)
 200344c:	20083640 	call	2008364 <strlen>
 2003450:	d8802b15 	stw	r2,172(sp)
 2003454:	da003d17 	ldw	r8,244(sp)
 2003458:	103c200e 	bge	r2,zero,20024dc <__alt_mem_flash+0xfdff14dc>
 200345c:	0005883a 	mov	r2,zero
 2003460:	003c1e06 	br	20024dc <__alt_mem_flash+0xfdff14dc>
 2003464:	d9002d17 	ldw	r4,180(sp)
 2003468:	d9801e04 	addi	r6,sp,120
 200346c:	b80b883a 	mov	r5,r23
 2003470:	20084f80 	call	20084f8 <__sprint_r>
 2003474:	1039e81e 	bne	r2,zero,2001c18 <__alt_mem_flash+0xfdff0c18>
 2003478:	d8c02017 	ldw	r3,128(sp)
 200347c:	d8801f17 	ldw	r2,124(sp)
 2003480:	da000404 	addi	r8,sp,16
 2003484:	d9403317 	ldw	r5,204(sp)
 2003488:	10800044 	addi	r2,r2,1
 200348c:	44000015 	stw	r16,0(r8)
 2003490:	28c7883a 	add	r3,r5,r3
 2003494:	003b5b06 	br	2002204 <__alt_mem_flash+0xfdff1204>
 2003498:	01008074 	movhi	r4,513
 200349c:	21068b84 	addi	r4,r4,6702
 20034a0:	d9003515 	stw	r4,212(sp)
 20034a4:	003af206 	br	2002070 <__alt_mem_flash+0xfdff1070>
 20034a8:	013fffc4 	movi	r4,-1
 20034ac:	003a0806 	br	2001cd0 <__alt_mem_flash+0xfdff0cd0>
 20034b0:	0023883a 	mov	r17,zero
 20034b4:	003d9d06 	br	2002b2c <__alt_mem_flash+0xfdff1b2c>
 20034b8:	d9002d17 	ldw	r4,180(sp)
 20034bc:	d9801e04 	addi	r6,sp,120
 20034c0:	b80b883a 	mov	r5,r23
 20034c4:	20084f80 	call	20084f8 <__sprint_r>
 20034c8:	1039d31e 	bne	r2,zero,2001c18 <__alt_mem_flash+0xfdff0c18>
 20034cc:	d8c02017 	ldw	r3,128(sp)
 20034d0:	da000404 	addi	r8,sp,16
 20034d4:	003d9406 	br	2002b28 <__alt_mem_flash+0xfdff1b28>
 20034d8:	01008074 	movhi	r4,513
 20034dc:	21068784 	addi	r4,r4,6686
 20034e0:	d9002c15 	stw	r4,176(sp)
 20034e4:	d9002c17 	ldw	r4,176(sp)
 20034e8:	1c47883a 	add	r3,r3,r17
 20034ec:	10800044 	addi	r2,r2,1
 20034f0:	41000015 	stw	r4,0(r8)
 20034f4:	44400115 	stw	r17,4(r8)
 20034f8:	d8c02015 	stw	r3,128(sp)
 20034fc:	d8801f15 	stw	r2,124(sp)
 2003500:	010001c4 	movi	r4,7
 2003504:	20bfd716 	blt	r4,r2,2003464 <__alt_mem_flash+0xfdff2464>
 2003508:	42000204 	addi	r8,r8,8
 200350c:	003fdd06 	br	2003484 <__alt_mem_flash+0xfdff2484>
 2003510:	d9002d17 	ldw	r4,180(sp)
 2003514:	d9801e04 	addi	r6,sp,120
 2003518:	b80b883a 	mov	r5,r23
 200351c:	20084f80 	call	20084f8 <__sprint_r>
 2003520:	1039bd1e 	bne	r2,zero,2001c18 <__alt_mem_flash+0xfdff0c18>
 2003524:	d8802617 	ldw	r2,152(sp)
 2003528:	d8c02017 	ldw	r3,128(sp)
 200352c:	da000404 	addi	r8,sp,16
 2003530:	003e1006 	br	2002d74 <__alt_mem_flash+0xfdff1d74>
 2003534:	00800044 	movi	r2,1
 2003538:	10803fcc 	andi	r2,r2,255
 200353c:	00c00044 	movi	r3,1
 2003540:	10fa0d26 	beq	r2,r3,2001d78 <__alt_mem_flash+0xfdff0d78>
 2003544:	00c00084 	movi	r3,2
 2003548:	10fbaf26 	beq	r2,r3,2002408 <__alt_mem_flash+0xfdff1408>
 200354c:	003a6d06 	br	2001f04 <__alt_mem_flash+0xfdff0f04>
 2003550:	01008074 	movhi	r4,513
 2003554:	21068b84 	addi	r4,r4,6702
 2003558:	d9003515 	stw	r4,212(sp)
 200355c:	003b5406 	br	20022b0 <__alt_mem_flash+0xfdff12b0>
 2003560:	d8802a17 	ldw	r2,168(sp)
 2003564:	00c00184 	movi	r3,6
 2003568:	1880012e 	bgeu	r3,r2,2003570 <___vfprintf_internal_r+0x1d68>
 200356c:	1805883a 	mov	r2,r3
 2003570:	d8802b15 	stw	r2,172(sp)
 2003574:	1000ef16 	blt	r2,zero,2003934 <___vfprintf_internal_r+0x212c>
 2003578:	04008074 	movhi	r16,513
 200357c:	d8802915 	stw	r2,164(sp)
 2003580:	dcc02e15 	stw	r19,184(sp)
 2003584:	d8002a15 	stw	zero,168(sp)
 2003588:	d8003215 	stw	zero,200(sp)
 200358c:	84068504 	addi	r16,r16,6676
 2003590:	0039883a 	mov	fp,zero
 2003594:	003a8006 	br	2001f98 <__alt_mem_flash+0xfdff0f98>
 2003598:	0021883a 	mov	r16,zero
 200359c:	003e0706 	br	2002dbc <__alt_mem_flash+0xfdff1dbc>
 20035a0:	d9002d17 	ldw	r4,180(sp)
 20035a4:	d9801e04 	addi	r6,sp,120
 20035a8:	b80b883a 	mov	r5,r23
 20035ac:	20084f80 	call	20084f8 <__sprint_r>
 20035b0:	1039991e 	bne	r2,zero,2001c18 <__alt_mem_flash+0xfdff0c18>
 20035b4:	d8802617 	ldw	r2,152(sp)
 20035b8:	d9403317 	ldw	r5,204(sp)
 20035bc:	d8c02017 	ldw	r3,128(sp)
 20035c0:	da000404 	addi	r8,sp,16
 20035c4:	2885c83a 	sub	r2,r5,r2
 20035c8:	003dfb06 	br	2002db8 <__alt_mem_flash+0xfdff1db8>
 20035cc:	9080004c 	andi	r2,r18,1
 20035d0:	103e8f1e 	bne	r2,zero,2003010 <__alt_mem_flash+0xfdff2010>
 20035d4:	d8802117 	ldw	r2,132(sp)
 20035d8:	003e9e06 	br	2003054 <__alt_mem_flash+0xfdff2054>
 20035dc:	1025883a 	mov	r18,r2
 20035e0:	0039883a 	mov	fp,zero
 20035e4:	00800084 	movi	r2,2
 20035e8:	003fd306 	br	2003538 <__alt_mem_flash+0xfdff2538>
 20035ec:	07000b44 	movi	fp,45
 20035f0:	df002785 	stb	fp,158(sp)
 20035f4:	003a1b06 	br	2001e64 <__alt_mem_flash+0xfdff0e64>
 20035f8:	00c00b44 	movi	r3,45
 20035fc:	d8c02785 	stb	r3,158(sp)
 2003600:	d8802915 	stw	r2,164(sp)
 2003604:	dc802c17 	ldw	r18,176(sp)
 2003608:	d8002a15 	stw	zero,168(sp)
 200360c:	07000b44 	movi	fp,45
 2003610:	003a5e06 	br	2001f8c <__alt_mem_flash+0xfdff0f8c>
 2003614:	04008074 	movhi	r16,513
 2003618:	84067a04 	addi	r16,r16,6632
 200361c:	003f4706 	br	200333c <__alt_mem_flash+0xfdff233c>
 2003620:	d9002e17 	ldw	r4,184(sp)
 2003624:	d9402f17 	ldw	r5,188(sp)
 2003628:	20800017 	ldw	r2,0(r4)
 200362c:	21000104 	addi	r4,r4,4
 2003630:	d9002e15 	stw	r4,184(sp)
 2003634:	11400015 	stw	r5,0(r2)
 2003638:	0038ab06 	br	20018e8 <__alt_mem_flash+0xfdff08e8>
 200363c:	dd802617 	ldw	r22,152(sp)
 2003640:	00bfff44 	movi	r2,-3
 2003644:	b0801c16 	blt	r22,r2,20036b8 <___vfprintf_internal_r+0x1eb0>
 2003648:	d9402a17 	ldw	r5,168(sp)
 200364c:	2d801a16 	blt	r5,r22,20036b8 <___vfprintf_internal_r+0x1eb0>
 2003650:	dd803215 	stw	r22,200(sp)
 2003654:	003e8906 	br	200307c <__alt_mem_flash+0xfdff207c>
 2003658:	01008074 	movhi	r4,513
 200365c:	21068784 	addi	r4,r4,6686
 2003660:	d9002c15 	stw	r4,176(sp)
 2003664:	003c9106 	br	20028ac <__alt_mem_flash+0xfdff18ac>
 2003668:	e005883a 	mov	r2,fp
 200366c:	003e7906 	br	2003054 <__alt_mem_flash+0xfdff2054>
 2003670:	d9002a17 	ldw	r4,168(sp)
 2003674:	df002783 	ldbu	fp,158(sp)
 2003678:	dcc02e15 	stw	r19,184(sp)
 200367c:	d9002915 	stw	r4,164(sp)
 2003680:	d9002b15 	stw	r4,172(sp)
 2003684:	d8002a15 	stw	zero,168(sp)
 2003688:	d8003215 	stw	zero,200(sp)
 200368c:	003a3b06 	br	2001f7c <__alt_mem_flash+0xfdff0f7c>
 2003690:	9080004c 	andi	r2,r18,1
 2003694:	0039883a 	mov	fp,zero
 2003698:	10000426 	beq	r2,zero,20036ac <___vfprintf_internal_r+0x1ea4>
 200369c:	00800c04 	movi	r2,48
 20036a0:	dc001dc4 	addi	r16,sp,119
 20036a4:	d8801dc5 	stb	r2,119(sp)
 20036a8:	003b6406 	br	200243c <__alt_mem_flash+0xfdff143c>
 20036ac:	d8002b15 	stw	zero,172(sp)
 20036b0:	dc001e04 	addi	r16,sp,120
 20036b4:	003a2b06 	br	2001f64 <__alt_mem_flash+0xfdff0f64>
 20036b8:	8c7fff84 	addi	r17,r17,-2
 20036bc:	b5bfffc4 	addi	r22,r22,-1
 20036c0:	dd802615 	stw	r22,152(sp)
 20036c4:	dc4022c5 	stb	r17,139(sp)
 20036c8:	b000bf16 	blt	r22,zero,20039c8 <___vfprintf_internal_r+0x21c0>
 20036cc:	00800ac4 	movi	r2,43
 20036d0:	d8802305 	stb	r2,140(sp)
 20036d4:	00800244 	movi	r2,9
 20036d8:	15807016 	blt	r2,r22,200389c <___vfprintf_internal_r+0x2094>
 20036dc:	00800c04 	movi	r2,48
 20036e0:	b5800c04 	addi	r22,r22,48
 20036e4:	d8802345 	stb	r2,141(sp)
 20036e8:	dd802385 	stb	r22,142(sp)
 20036ec:	d88023c4 	addi	r2,sp,143
 20036f0:	df0022c4 	addi	fp,sp,139
 20036f4:	d8c03317 	ldw	r3,204(sp)
 20036f8:	1739c83a 	sub	fp,r2,fp
 20036fc:	d9003317 	ldw	r4,204(sp)
 2003700:	e0c7883a 	add	r3,fp,r3
 2003704:	df003a15 	stw	fp,232(sp)
 2003708:	d8c02b15 	stw	r3,172(sp)
 200370c:	00800044 	movi	r2,1
 2003710:	1100b30e 	bge	r2,r4,20039e0 <___vfprintf_internal_r+0x21d8>
 2003714:	d8c02b17 	ldw	r3,172(sp)
 2003718:	18c00044 	addi	r3,r3,1
 200371c:	d8c02b15 	stw	r3,172(sp)
 2003720:	1805883a 	mov	r2,r3
 2003724:	1800ac16 	blt	r3,zero,20039d8 <___vfprintf_internal_r+0x21d0>
 2003728:	d8003215 	stw	zero,200(sp)
 200372c:	003e5d06 	br	20030a4 <__alt_mem_flash+0xfdff20a4>
 2003730:	d9002d17 	ldw	r4,180(sp)
 2003734:	d9801e04 	addi	r6,sp,120
 2003738:	b80b883a 	mov	r5,r23
 200373c:	20084f80 	call	20084f8 <__sprint_r>
 2003740:	1039351e 	bne	r2,zero,2001c18 <__alt_mem_flash+0xfdff0c18>
 2003744:	dc402617 	ldw	r17,152(sp)
 2003748:	d8c02017 	ldw	r3,128(sp)
 200374c:	d8801f17 	ldw	r2,124(sp)
 2003750:	da000404 	addi	r8,sp,16
 2003754:	003ed606 	br	20032b0 <__alt_mem_flash+0xfdff22b0>
 2003758:	182b883a 	mov	r21,r3
 200375c:	d8002a15 	stw	zero,168(sp)
 2003760:	00388c06 	br	2001994 <__alt_mem_flash+0xfdff0994>
 2003764:	d8802a17 	ldw	r2,168(sp)
 2003768:	103e071e 	bne	r2,zero,2002f88 <__alt_mem_flash+0xfdff1f88>
 200376c:	dc002a15 	stw	r16,168(sp)
 2003770:	003e0506 	br	2002f88 <__alt_mem_flash+0xfdff1f88>
 2003774:	d9002a17 	ldw	r4,168(sp)
 2003778:	20c00044 	addi	r3,r4,1
 200377c:	003e0f06 	br	2002fbc <__alt_mem_flash+0xfdff1fbc>
 2003780:	01400184 	movi	r5,6
 2003784:	d9402a15 	stw	r5,168(sp)
 2003788:	003dff06 	br	2002f88 <__alt_mem_flash+0xfdff1f88>
 200378c:	d8802104 	addi	r2,sp,132
 2003790:	d8800315 	stw	r2,12(sp)
 2003794:	d8802504 	addi	r2,sp,148
 2003798:	d8800215 	stw	r2,8(sp)
 200379c:	d8802604 	addi	r2,sp,152
 20037a0:	d8800115 	stw	r2,4(sp)
 20037a4:	d8802a17 	ldw	r2,168(sp)
 20037a8:	d9403617 	ldw	r5,216(sp)
 20037ac:	d9002d17 	ldw	r4,180(sp)
 20037b0:	d8800015 	stw	r2,0(sp)
 20037b4:	01c000c4 	movi	r7,3
 20037b8:	980d883a 	mov	r6,r19
 20037bc:	da003d15 	stw	r8,244(sp)
 20037c0:	2003f380 	call	2003f38 <_dtoa_r>
 20037c4:	d8c02a17 	ldw	r3,168(sp)
 20037c8:	da003d17 	ldw	r8,244(sp)
 20037cc:	1021883a 	mov	r16,r2
 20037d0:	10f9883a 	add	fp,r2,r3
 20037d4:	81000007 	ldb	r4,0(r16)
 20037d8:	00800c04 	movi	r2,48
 20037dc:	20805e26 	beq	r4,r2,2003958 <___vfprintf_internal_r+0x2150>
 20037e0:	d8c02617 	ldw	r3,152(sp)
 20037e4:	e0f9883a 	add	fp,fp,r3
 20037e8:	003e0a06 	br	2003014 <__alt_mem_flash+0xfdff2014>
 20037ec:	00c00b44 	movi	r3,45
 20037f0:	24e0003c 	xorhi	r19,r4,32768
 20037f4:	d8c02905 	stb	r3,164(sp)
 20037f8:	003de906 	br	2002fa0 <__alt_mem_flash+0xfdff1fa0>
 20037fc:	d8c03217 	ldw	r3,200(sp)
 2003800:	00c07a0e 	bge	zero,r3,20039ec <___vfprintf_internal_r+0x21e4>
 2003804:	00800044 	movi	r2,1
 2003808:	d9003317 	ldw	r4,204(sp)
 200380c:	1105883a 	add	r2,r2,r4
 2003810:	d8802b15 	stw	r2,172(sp)
 2003814:	10004e16 	blt	r2,zero,2003950 <___vfprintf_internal_r+0x2148>
 2003818:	044019c4 	movi	r17,103
 200381c:	003e2106 	br	20030a4 <__alt_mem_flash+0xfdff20a4>
 2003820:	d9002a17 	ldw	r4,168(sp)
 2003824:	d8802104 	addi	r2,sp,132
 2003828:	d8800315 	stw	r2,12(sp)
 200382c:	d9000015 	stw	r4,0(sp)
 2003830:	d8802504 	addi	r2,sp,148
 2003834:	d9403617 	ldw	r5,216(sp)
 2003838:	d9002d17 	ldw	r4,180(sp)
 200383c:	d8800215 	stw	r2,8(sp)
 2003840:	d8802604 	addi	r2,sp,152
 2003844:	d8800115 	stw	r2,4(sp)
 2003848:	01c000c4 	movi	r7,3
 200384c:	980d883a 	mov	r6,r19
 2003850:	da003d15 	stw	r8,244(sp)
 2003854:	2003f380 	call	2003f38 <_dtoa_r>
 2003858:	d8c02a17 	ldw	r3,168(sp)
 200385c:	da003d17 	ldw	r8,244(sp)
 2003860:	1021883a 	mov	r16,r2
 2003864:	00801184 	movi	r2,70
 2003868:	80f9883a 	add	fp,r16,r3
 200386c:	88bfd926 	beq	r17,r2,20037d4 <__alt_mem_flash+0xfdff27d4>
 2003870:	003de806 	br	2003014 <__alt_mem_flash+0xfdff2014>
 2003874:	d9002a17 	ldw	r4,168(sp)
 2003878:	00c04d0e 	bge	zero,r3,20039b0 <___vfprintf_internal_r+0x21a8>
 200387c:	2000441e 	bne	r4,zero,2003990 <___vfprintf_internal_r+0x2188>
 2003880:	9480004c 	andi	r18,r18,1
 2003884:	9000421e 	bne	r18,zero,2003990 <___vfprintf_internal_r+0x2188>
 2003888:	1805883a 	mov	r2,r3
 200388c:	18006f16 	blt	r3,zero,2003a4c <___vfprintf_internal_r+0x2244>
 2003890:	d8c03217 	ldw	r3,200(sp)
 2003894:	d8c02b15 	stw	r3,172(sp)
 2003898:	003e0206 	br	20030a4 <__alt_mem_flash+0xfdff20a4>
 200389c:	df0022c4 	addi	fp,sp,139
 20038a0:	dc002a15 	stw	r16,168(sp)
 20038a4:	4027883a 	mov	r19,r8
 20038a8:	e021883a 	mov	r16,fp
 20038ac:	b009883a 	mov	r4,r22
 20038b0:	01400284 	movi	r5,10
 20038b4:	200bc0c0 	call	200bc0c <__modsi3>
 20038b8:	10800c04 	addi	r2,r2,48
 20038bc:	843fffc4 	addi	r16,r16,-1
 20038c0:	b009883a 	mov	r4,r22
 20038c4:	01400284 	movi	r5,10
 20038c8:	80800005 	stb	r2,0(r16)
 20038cc:	200bb880 	call	200bb88 <__divsi3>
 20038d0:	102d883a 	mov	r22,r2
 20038d4:	00800244 	movi	r2,9
 20038d8:	15bff416 	blt	r2,r22,20038ac <__alt_mem_flash+0xfdff28ac>
 20038dc:	9811883a 	mov	r8,r19
 20038e0:	b0800c04 	addi	r2,r22,48
 20038e4:	8027883a 	mov	r19,r16
 20038e8:	997fffc4 	addi	r5,r19,-1
 20038ec:	98bfffc5 	stb	r2,-1(r19)
 20038f0:	dc002a17 	ldw	r16,168(sp)
 20038f4:	2f006d2e 	bgeu	r5,fp,2003aac <___vfprintf_internal_r+0x22a4>
 20038f8:	d9c02384 	addi	r7,sp,142
 20038fc:	3ccfc83a 	sub	r7,r7,r19
 2003900:	d9002344 	addi	r4,sp,141
 2003904:	e1cf883a 	add	r7,fp,r7
 2003908:	00000106 	br	2003910 <___vfprintf_internal_r+0x2108>
 200390c:	28800003 	ldbu	r2,0(r5)
 2003910:	20800005 	stb	r2,0(r4)
 2003914:	21000044 	addi	r4,r4,1
 2003918:	29400044 	addi	r5,r5,1
 200391c:	393ffb1e 	bne	r7,r4,200390c <__alt_mem_flash+0xfdff290c>
 2003920:	d8802304 	addi	r2,sp,140
 2003924:	14c5c83a 	sub	r2,r2,r19
 2003928:	d8c02344 	addi	r3,sp,141
 200392c:	1885883a 	add	r2,r3,r2
 2003930:	003f7006 	br	20036f4 <__alt_mem_flash+0xfdff26f4>
 2003934:	0005883a 	mov	r2,zero
 2003938:	003f0f06 	br	2003578 <__alt_mem_flash+0xfdff2578>
 200393c:	d8c03217 	ldw	r3,200(sp)
 2003940:	18c00044 	addi	r3,r3,1
 2003944:	d8c02b15 	stw	r3,172(sp)
 2003948:	1805883a 	mov	r2,r3
 200394c:	183fb20e 	bge	r3,zero,2003818 <__alt_mem_flash+0xfdff2818>
 2003950:	0005883a 	mov	r2,zero
 2003954:	003fb006 	br	2003818 <__alt_mem_flash+0xfdff2818>
 2003958:	d9003617 	ldw	r4,216(sp)
 200395c:	000d883a 	mov	r6,zero
 2003960:	000f883a 	mov	r7,zero
 2003964:	980b883a 	mov	r5,r19
 2003968:	d8c03c15 	stw	r3,240(sp)
 200396c:	da003d15 	stw	r8,244(sp)
 2003970:	200c70c0 	call	200c70c <__eqdf2>
 2003974:	d8c03c17 	ldw	r3,240(sp)
 2003978:	da003d17 	ldw	r8,244(sp)
 200397c:	103f9826 	beq	r2,zero,20037e0 <__alt_mem_flash+0xfdff27e0>
 2003980:	00800044 	movi	r2,1
 2003984:	10c7c83a 	sub	r3,r2,r3
 2003988:	d8c02615 	stw	r3,152(sp)
 200398c:	003f9506 	br	20037e4 <__alt_mem_flash+0xfdff27e4>
 2003990:	d9002a17 	ldw	r4,168(sp)
 2003994:	d8c03217 	ldw	r3,200(sp)
 2003998:	20800044 	addi	r2,r4,1
 200399c:	1885883a 	add	r2,r3,r2
 20039a0:	d8802b15 	stw	r2,172(sp)
 20039a4:	103dbf0e 	bge	r2,zero,20030a4 <__alt_mem_flash+0xfdff20a4>
 20039a8:	0005883a 	mov	r2,zero
 20039ac:	003dbd06 	br	20030a4 <__alt_mem_flash+0xfdff20a4>
 20039b0:	2000201e 	bne	r4,zero,2003a34 <___vfprintf_internal_r+0x222c>
 20039b4:	9480004c 	andi	r18,r18,1
 20039b8:	90001e1e 	bne	r18,zero,2003a34 <___vfprintf_internal_r+0x222c>
 20039bc:	00800044 	movi	r2,1
 20039c0:	d8802b15 	stw	r2,172(sp)
 20039c4:	003db706 	br	20030a4 <__alt_mem_flash+0xfdff20a4>
 20039c8:	00800b44 	movi	r2,45
 20039cc:	05adc83a 	sub	r22,zero,r22
 20039d0:	d8802305 	stb	r2,140(sp)
 20039d4:	003f3f06 	br	20036d4 <__alt_mem_flash+0xfdff26d4>
 20039d8:	0005883a 	mov	r2,zero
 20039dc:	003f5206 	br	2003728 <__alt_mem_flash+0xfdff2728>
 20039e0:	90a4703a 	and	r18,r18,r2
 20039e4:	903f4e26 	beq	r18,zero,2003720 <__alt_mem_flash+0xfdff2720>
 20039e8:	003f4a06 	br	2003714 <__alt_mem_flash+0xfdff2714>
 20039ec:	00800084 	movi	r2,2
 20039f0:	10c5c83a 	sub	r2,r2,r3
 20039f4:	003f8406 	br	2003808 <__alt_mem_flash+0xfdff2808>
 20039f8:	d9402e17 	ldw	r5,184(sp)
 20039fc:	d9002e17 	ldw	r4,184(sp)
 2003a00:	ac400043 	ldbu	r17,1(r21)
 2003a04:	29400017 	ldw	r5,0(r5)
 2003a08:	20800104 	addi	r2,r4,4
 2003a0c:	d8802e15 	stw	r2,184(sp)
 2003a10:	d9402a15 	stw	r5,168(sp)
 2003a14:	182b883a 	mov	r21,r3
 2003a18:	283e7b0e 	bge	r5,zero,2003408 <__alt_mem_flash+0xfdff2408>
 2003a1c:	8c403fcc 	andi	r17,r17,255
 2003a20:	017fffc4 	movi	r5,-1
 2003a24:	8c40201c 	xori	r17,r17,128
 2003a28:	d9402a15 	stw	r5,168(sp)
 2003a2c:	8c7fe004 	addi	r17,r17,-128
 2003a30:	0037d706 	br	2001990 <__alt_mem_flash+0xfdff0990>
 2003a34:	d8c02a17 	ldw	r3,168(sp)
 2003a38:	18c00084 	addi	r3,r3,2
 2003a3c:	d8c02b15 	stw	r3,172(sp)
 2003a40:	1805883a 	mov	r2,r3
 2003a44:	183d970e 	bge	r3,zero,20030a4 <__alt_mem_flash+0xfdff20a4>
 2003a48:	003fd706 	br	20039a8 <__alt_mem_flash+0xfdff29a8>
 2003a4c:	0005883a 	mov	r2,zero
 2003a50:	003f8f06 	br	2003890 <__alt_mem_flash+0xfdff2890>
 2003a54:	9080004c 	andi	r2,r18,1
 2003a58:	103f821e 	bne	r2,zero,2003864 <__alt_mem_flash+0xfdff2864>
 2003a5c:	d8802117 	ldw	r2,132(sp)
 2003a60:	1405c83a 	sub	r2,r2,r16
 2003a64:	d8803315 	stw	r2,204(sp)
 2003a68:	b47ef426 	beq	r22,r17,200363c <__alt_mem_flash+0xfdff263c>
 2003a6c:	dd802617 	ldw	r22,152(sp)
 2003a70:	003f1206 	br	20036bc <__alt_mem_flash+0xfdff26bc>
 2003a74:	d8c02b03 	ldbu	r3,172(sp)
 2003a78:	d8c02785 	stb	r3,158(sp)
 2003a7c:	0038df06 	br	2001dfc <__alt_mem_flash+0xfdff0dfc>
 2003a80:	d8c02b03 	ldbu	r3,172(sp)
 2003a84:	d8c02785 	stb	r3,158(sp)
 2003a88:	0038aa06 	br	2001d34 <__alt_mem_flash+0xfdff0d34>
 2003a8c:	d8c02b03 	ldbu	r3,172(sp)
 2003a90:	d8c02785 	stb	r3,158(sp)
 2003a94:	003a4306 	br	20023a4 <__alt_mem_flash+0xfdff13a4>
 2003a98:	d8c02b03 	ldbu	r3,172(sp)
 2003a9c:	d8c02785 	stb	r3,158(sp)
 2003aa0:	003af506 	br	2002678 <__alt_mem_flash+0xfdff1678>
 2003aa4:	0005883a 	mov	r2,zero
 2003aa8:	003d7b06 	br	2003098 <__alt_mem_flash+0xfdff2098>
 2003aac:	d8802344 	addi	r2,sp,141
 2003ab0:	003f1006 	br	20036f4 <__alt_mem_flash+0xfdff26f4>
 2003ab4:	d8c02b03 	ldbu	r3,172(sp)
 2003ab8:	d8c02785 	stb	r3,158(sp)
 2003abc:	0038fd06 	br	2001eb4 <__alt_mem_flash+0xfdff0eb4>
 2003ac0:	d8c02b03 	ldbu	r3,172(sp)
 2003ac4:	d8c02785 	stb	r3,158(sp)
 2003ac8:	003a9706 	br	2002528 <__alt_mem_flash+0xfdff1528>
 2003acc:	d8c02b03 	ldbu	r3,172(sp)
 2003ad0:	d8c02785 	stb	r3,158(sp)
 2003ad4:	003a1806 	br	2002338 <__alt_mem_flash+0xfdff1338>
 2003ad8:	d8c02b03 	ldbu	r3,172(sp)
 2003adc:	d8c02785 	stb	r3,158(sp)
 2003ae0:	003abe06 	br	20025dc <__alt_mem_flash+0xfdff15dc>

02003ae4 <__vfprintf_internal>:
 2003ae4:	00808074 	movhi	r2,513
 2003ae8:	108e1904 	addi	r2,r2,14436
 2003aec:	300f883a 	mov	r7,r6
 2003af0:	280d883a 	mov	r6,r5
 2003af4:	200b883a 	mov	r5,r4
 2003af8:	11000017 	ldw	r4,0(r2)
 2003afc:	20018081 	jmpi	2001808 <___vfprintf_internal_r>

02003b00 <__sbprintf>:
 2003b00:	2880030b 	ldhu	r2,12(r5)
 2003b04:	2ac01917 	ldw	r11,100(r5)
 2003b08:	2a80038b 	ldhu	r10,14(r5)
 2003b0c:	2a400717 	ldw	r9,28(r5)
 2003b10:	2a000917 	ldw	r8,36(r5)
 2003b14:	defee204 	addi	sp,sp,-1144
 2003b18:	00c10004 	movi	r3,1024
 2003b1c:	dc011a15 	stw	r16,1128(sp)
 2003b20:	10bfff4c 	andi	r2,r2,65533
 2003b24:	2821883a 	mov	r16,r5
 2003b28:	d8cb883a 	add	r5,sp,r3
 2003b2c:	dc811c15 	stw	r18,1136(sp)
 2003b30:	dc411b15 	stw	r17,1132(sp)
 2003b34:	dfc11d15 	stw	ra,1140(sp)
 2003b38:	2025883a 	mov	r18,r4
 2003b3c:	d881030d 	sth	r2,1036(sp)
 2003b40:	dac11915 	stw	r11,1124(sp)
 2003b44:	da81038d 	sth	r10,1038(sp)
 2003b48:	da410715 	stw	r9,1052(sp)
 2003b4c:	da010915 	stw	r8,1060(sp)
 2003b50:	dec10015 	stw	sp,1024(sp)
 2003b54:	dec10415 	stw	sp,1040(sp)
 2003b58:	d8c10215 	stw	r3,1032(sp)
 2003b5c:	d8c10515 	stw	r3,1044(sp)
 2003b60:	d8010615 	stw	zero,1048(sp)
 2003b64:	20018080 	call	2001808 <___vfprintf_internal_r>
 2003b68:	1023883a 	mov	r17,r2
 2003b6c:	10000416 	blt	r2,zero,2003b80 <__sbprintf+0x80>
 2003b70:	d9410004 	addi	r5,sp,1024
 2003b74:	9009883a 	mov	r4,r18
 2003b78:	20057dc0 	call	20057dc <_fflush_r>
 2003b7c:	10000d1e 	bne	r2,zero,2003bb4 <__sbprintf+0xb4>
 2003b80:	d881030b 	ldhu	r2,1036(sp)
 2003b84:	1080100c 	andi	r2,r2,64
 2003b88:	10000326 	beq	r2,zero,2003b98 <__sbprintf+0x98>
 2003b8c:	8080030b 	ldhu	r2,12(r16)
 2003b90:	10801014 	ori	r2,r2,64
 2003b94:	8080030d 	sth	r2,12(r16)
 2003b98:	8805883a 	mov	r2,r17
 2003b9c:	dfc11d17 	ldw	ra,1140(sp)
 2003ba0:	dc811c17 	ldw	r18,1136(sp)
 2003ba4:	dc411b17 	ldw	r17,1132(sp)
 2003ba8:	dc011a17 	ldw	r16,1128(sp)
 2003bac:	dec11e04 	addi	sp,sp,1144
 2003bb0:	f800283a 	ret
 2003bb4:	047fffc4 	movi	r17,-1
 2003bb8:	003ff106 	br	2003b80 <__alt_mem_flash+0xfdff2b80>

02003bbc <__swsetup_r>:
 2003bbc:	00808074 	movhi	r2,513
 2003bc0:	defffd04 	addi	sp,sp,-12
 2003bc4:	108e1904 	addi	r2,r2,14436
 2003bc8:	dc400115 	stw	r17,4(sp)
 2003bcc:	2023883a 	mov	r17,r4
 2003bd0:	11000017 	ldw	r4,0(r2)
 2003bd4:	dc000015 	stw	r16,0(sp)
 2003bd8:	dfc00215 	stw	ra,8(sp)
 2003bdc:	2821883a 	mov	r16,r5
 2003be0:	20000226 	beq	r4,zero,2003bec <__swsetup_r+0x30>
 2003be4:	20800e17 	ldw	r2,56(r4)
 2003be8:	10003126 	beq	r2,zero,2003cb0 <__swsetup_r+0xf4>
 2003bec:	8080030b 	ldhu	r2,12(r16)
 2003bf0:	10c0020c 	andi	r3,r2,8
 2003bf4:	1009883a 	mov	r4,r2
 2003bf8:	18000f26 	beq	r3,zero,2003c38 <__swsetup_r+0x7c>
 2003bfc:	80c00417 	ldw	r3,16(r16)
 2003c00:	18001526 	beq	r3,zero,2003c58 <__swsetup_r+0x9c>
 2003c04:	1100004c 	andi	r4,r2,1
 2003c08:	20001c1e 	bne	r4,zero,2003c7c <__swsetup_r+0xc0>
 2003c0c:	1080008c 	andi	r2,r2,2
 2003c10:	1000291e 	bne	r2,zero,2003cb8 <__swsetup_r+0xfc>
 2003c14:	80800517 	ldw	r2,20(r16)
 2003c18:	80800215 	stw	r2,8(r16)
 2003c1c:	18001c26 	beq	r3,zero,2003c90 <__swsetup_r+0xd4>
 2003c20:	0005883a 	mov	r2,zero
 2003c24:	dfc00217 	ldw	ra,8(sp)
 2003c28:	dc400117 	ldw	r17,4(sp)
 2003c2c:	dc000017 	ldw	r16,0(sp)
 2003c30:	dec00304 	addi	sp,sp,12
 2003c34:	f800283a 	ret
 2003c38:	2080040c 	andi	r2,r4,16
 2003c3c:	10002e26 	beq	r2,zero,2003cf8 <__swsetup_r+0x13c>
 2003c40:	2080010c 	andi	r2,r4,4
 2003c44:	10001e1e 	bne	r2,zero,2003cc0 <__swsetup_r+0x104>
 2003c48:	80c00417 	ldw	r3,16(r16)
 2003c4c:	20800214 	ori	r2,r4,8
 2003c50:	8080030d 	sth	r2,12(r16)
 2003c54:	183feb1e 	bne	r3,zero,2003c04 <__alt_mem_flash+0xfdff2c04>
 2003c58:	1100a00c 	andi	r4,r2,640
 2003c5c:	01408004 	movi	r5,512
 2003c60:	217fe826 	beq	r4,r5,2003c04 <__alt_mem_flash+0xfdff2c04>
 2003c64:	800b883a 	mov	r5,r16
 2003c68:	8809883a 	mov	r4,r17
 2003c6c:	20062b00 	call	20062b0 <__smakebuf_r>
 2003c70:	8080030b 	ldhu	r2,12(r16)
 2003c74:	80c00417 	ldw	r3,16(r16)
 2003c78:	003fe206 	br	2003c04 <__alt_mem_flash+0xfdff2c04>
 2003c7c:	80800517 	ldw	r2,20(r16)
 2003c80:	80000215 	stw	zero,8(r16)
 2003c84:	0085c83a 	sub	r2,zero,r2
 2003c88:	80800615 	stw	r2,24(r16)
 2003c8c:	183fe41e 	bne	r3,zero,2003c20 <__alt_mem_flash+0xfdff2c20>
 2003c90:	80c0030b 	ldhu	r3,12(r16)
 2003c94:	0005883a 	mov	r2,zero
 2003c98:	1900200c 	andi	r4,r3,128
 2003c9c:	203fe126 	beq	r4,zero,2003c24 <__alt_mem_flash+0xfdff2c24>
 2003ca0:	18c01014 	ori	r3,r3,64
 2003ca4:	80c0030d 	sth	r3,12(r16)
 2003ca8:	00bfffc4 	movi	r2,-1
 2003cac:	003fdd06 	br	2003c24 <__alt_mem_flash+0xfdff2c24>
 2003cb0:	2005bc80 	call	2005bc8 <__sinit>
 2003cb4:	003fcd06 	br	2003bec <__alt_mem_flash+0xfdff2bec>
 2003cb8:	0005883a 	mov	r2,zero
 2003cbc:	003fd606 	br	2003c18 <__alt_mem_flash+0xfdff2c18>
 2003cc0:	81400c17 	ldw	r5,48(r16)
 2003cc4:	28000626 	beq	r5,zero,2003ce0 <__swsetup_r+0x124>
 2003cc8:	80801004 	addi	r2,r16,64
 2003ccc:	28800326 	beq	r5,r2,2003cdc <__swsetup_r+0x120>
 2003cd0:	8809883a 	mov	r4,r17
 2003cd4:	2005d3c0 	call	2005d3c <_free_r>
 2003cd8:	8100030b 	ldhu	r4,12(r16)
 2003cdc:	80000c15 	stw	zero,48(r16)
 2003ce0:	80c00417 	ldw	r3,16(r16)
 2003ce4:	00bff6c4 	movi	r2,-37
 2003ce8:	1108703a 	and	r4,r2,r4
 2003cec:	80000115 	stw	zero,4(r16)
 2003cf0:	80c00015 	stw	r3,0(r16)
 2003cf4:	003fd506 	br	2003c4c <__alt_mem_flash+0xfdff2c4c>
 2003cf8:	00800244 	movi	r2,9
 2003cfc:	88800015 	stw	r2,0(r17)
 2003d00:	20801014 	ori	r2,r4,64
 2003d04:	8080030d 	sth	r2,12(r16)
 2003d08:	00bfffc4 	movi	r2,-1
 2003d0c:	003fc506 	br	2003c24 <__alt_mem_flash+0xfdff2c24>

02003d10 <quorem>:
 2003d10:	defff204 	addi	sp,sp,-56
 2003d14:	ddc00b15 	stw	r23,44(sp)
 2003d18:	20800417 	ldw	r2,16(r4)
 2003d1c:	2dc00417 	ldw	r23,16(r5)
 2003d20:	dfc00d15 	stw	ra,52(sp)
 2003d24:	df000c15 	stw	fp,48(sp)
 2003d28:	dd800a15 	stw	r22,40(sp)
 2003d2c:	dd400915 	stw	r21,36(sp)
 2003d30:	dd000815 	stw	r20,32(sp)
 2003d34:	dcc00715 	stw	r19,28(sp)
 2003d38:	dc800615 	stw	r18,24(sp)
 2003d3c:	dc400515 	stw	r17,20(sp)
 2003d40:	dc000415 	stw	r16,16(sp)
 2003d44:	15c07a16 	blt	r2,r23,2003f30 <quorem+0x220>
 2003d48:	bdffffc4 	addi	r23,r23,-1
 2003d4c:	bde9883a 	add	r20,r23,r23
 2003d50:	28c00504 	addi	r3,r5,20
 2003d54:	a529883a 	add	r20,r20,r20
 2003d58:	1d39883a 	add	fp,r3,r20
 2003d5c:	24c00504 	addi	r19,r4,20
 2003d60:	d9400215 	stw	r5,8(sp)
 2003d64:	9d29883a 	add	r20,r19,r20
 2003d68:	e1400017 	ldw	r5,0(fp)
 2003d6c:	d9000015 	stw	r4,0(sp)
 2003d70:	a1000017 	ldw	r4,0(r20)
 2003d74:	29400044 	addi	r5,r5,1
 2003d78:	d8c00115 	stw	r3,4(sp)
 2003d7c:	dd000315 	stw	r20,12(sp)
 2003d80:	200bc800 	call	200bc80 <__udivsi3>
 2003d84:	1025883a 	mov	r18,r2
 2003d88:	10003026 	beq	r2,zero,2003e4c <quorem+0x13c>
 2003d8c:	dc400117 	ldw	r17,4(sp)
 2003d90:	9829883a 	mov	r20,r19
 2003d94:	002d883a 	mov	r22,zero
 2003d98:	0021883a 	mov	r16,zero
 2003d9c:	8d400017 	ldw	r21,0(r17)
 2003da0:	900b883a 	mov	r5,r18
 2003da4:	8c400104 	addi	r17,r17,4
 2003da8:	a93fffcc 	andi	r4,r21,65535
 2003dac:	20017940 	call	2001794 <__mulsi3>
 2003db0:	a808d43a 	srli	r4,r21,16
 2003db4:	900b883a 	mov	r5,r18
 2003db8:	15ad883a 	add	r22,r2,r22
 2003dbc:	20017940 	call	2001794 <__mulsi3>
 2003dc0:	a1000017 	ldw	r4,0(r20)
 2003dc4:	b00cd43a 	srli	r6,r22,16
 2003dc8:	b0ffffcc 	andi	r3,r22,65535
 2003dcc:	217fffcc 	andi	r5,r4,65535
 2003dd0:	2c21883a 	add	r16,r5,r16
 2003dd4:	80c7c83a 	sub	r3,r16,r3
 2003dd8:	2008d43a 	srli	r4,r4,16
 2003ddc:	1185883a 	add	r2,r2,r6
 2003de0:	1821d43a 	srai	r16,r3,16
 2003de4:	117fffcc 	andi	r5,r2,65535
 2003de8:	2149c83a 	sub	r4,r4,r5
 2003dec:	2421883a 	add	r16,r4,r16
 2003df0:	8008943a 	slli	r4,r16,16
 2003df4:	18ffffcc 	andi	r3,r3,65535
 2003df8:	102cd43a 	srli	r22,r2,16
 2003dfc:	20c8b03a 	or	r4,r4,r3
 2003e00:	a1000015 	stw	r4,0(r20)
 2003e04:	8021d43a 	srai	r16,r16,16
 2003e08:	a5000104 	addi	r20,r20,4
 2003e0c:	e47fe32e 	bgeu	fp,r17,2003d9c <__alt_mem_flash+0xfdff2d9c>
 2003e10:	d8c00317 	ldw	r3,12(sp)
 2003e14:	18800017 	ldw	r2,0(r3)
 2003e18:	10000c1e 	bne	r2,zero,2003e4c <quorem+0x13c>
 2003e1c:	18bfff04 	addi	r2,r3,-4
 2003e20:	9880082e 	bgeu	r19,r2,2003e44 <quorem+0x134>
 2003e24:	18ffff17 	ldw	r3,-4(r3)
 2003e28:	18000326 	beq	r3,zero,2003e38 <quorem+0x128>
 2003e2c:	00000506 	br	2003e44 <quorem+0x134>
 2003e30:	10c00017 	ldw	r3,0(r2)
 2003e34:	1800031e 	bne	r3,zero,2003e44 <quorem+0x134>
 2003e38:	10bfff04 	addi	r2,r2,-4
 2003e3c:	bdffffc4 	addi	r23,r23,-1
 2003e40:	98bffb36 	bltu	r19,r2,2003e30 <__alt_mem_flash+0xfdff2e30>
 2003e44:	d8c00017 	ldw	r3,0(sp)
 2003e48:	1dc00415 	stw	r23,16(r3)
 2003e4c:	d9400217 	ldw	r5,8(sp)
 2003e50:	d9000017 	ldw	r4,0(sp)
 2003e54:	20079500 	call	2007950 <__mcmp>
 2003e58:	10002816 	blt	r2,zero,2003efc <quorem+0x1ec>
 2003e5c:	dc400117 	ldw	r17,4(sp)
 2003e60:	94800044 	addi	r18,r18,1
 2003e64:	980d883a 	mov	r6,r19
 2003e68:	0007883a 	mov	r3,zero
 2003e6c:	31000017 	ldw	r4,0(r6)
 2003e70:	89400017 	ldw	r5,0(r17)
 2003e74:	31800104 	addi	r6,r6,4
 2003e78:	20bfffcc 	andi	r2,r4,65535
 2003e7c:	10c7883a 	add	r3,r2,r3
 2003e80:	28bfffcc 	andi	r2,r5,65535
 2003e84:	1885c83a 	sub	r2,r3,r2
 2003e88:	280ad43a 	srli	r5,r5,16
 2003e8c:	2008d43a 	srli	r4,r4,16
 2003e90:	1007d43a 	srai	r3,r2,16
 2003e94:	10bfffcc 	andi	r2,r2,65535
 2003e98:	2149c83a 	sub	r4,r4,r5
 2003e9c:	20c9883a 	add	r4,r4,r3
 2003ea0:	200a943a 	slli	r5,r4,16
 2003ea4:	8c400104 	addi	r17,r17,4
 2003ea8:	2007d43a 	srai	r3,r4,16
 2003eac:	2884b03a 	or	r2,r5,r2
 2003eb0:	30bfff15 	stw	r2,-4(r6)
 2003eb4:	e47fed2e 	bgeu	fp,r17,2003e6c <__alt_mem_flash+0xfdff2e6c>
 2003eb8:	bdc5883a 	add	r2,r23,r23
 2003ebc:	1085883a 	add	r2,r2,r2
 2003ec0:	9887883a 	add	r3,r19,r2
 2003ec4:	18800017 	ldw	r2,0(r3)
 2003ec8:	10000c1e 	bne	r2,zero,2003efc <quorem+0x1ec>
 2003ecc:	18bfff04 	addi	r2,r3,-4
 2003ed0:	9880082e 	bgeu	r19,r2,2003ef4 <quorem+0x1e4>
 2003ed4:	18ffff17 	ldw	r3,-4(r3)
 2003ed8:	18000326 	beq	r3,zero,2003ee8 <quorem+0x1d8>
 2003edc:	00000506 	br	2003ef4 <quorem+0x1e4>
 2003ee0:	10c00017 	ldw	r3,0(r2)
 2003ee4:	1800031e 	bne	r3,zero,2003ef4 <quorem+0x1e4>
 2003ee8:	10bfff04 	addi	r2,r2,-4
 2003eec:	bdffffc4 	addi	r23,r23,-1
 2003ef0:	98bffb36 	bltu	r19,r2,2003ee0 <__alt_mem_flash+0xfdff2ee0>
 2003ef4:	d8c00017 	ldw	r3,0(sp)
 2003ef8:	1dc00415 	stw	r23,16(r3)
 2003efc:	9005883a 	mov	r2,r18
 2003f00:	dfc00d17 	ldw	ra,52(sp)
 2003f04:	df000c17 	ldw	fp,48(sp)
 2003f08:	ddc00b17 	ldw	r23,44(sp)
 2003f0c:	dd800a17 	ldw	r22,40(sp)
 2003f10:	dd400917 	ldw	r21,36(sp)
 2003f14:	dd000817 	ldw	r20,32(sp)
 2003f18:	dcc00717 	ldw	r19,28(sp)
 2003f1c:	dc800617 	ldw	r18,24(sp)
 2003f20:	dc400517 	ldw	r17,20(sp)
 2003f24:	dc000417 	ldw	r16,16(sp)
 2003f28:	dec00e04 	addi	sp,sp,56
 2003f2c:	f800283a 	ret
 2003f30:	0005883a 	mov	r2,zero
 2003f34:	003ff206 	br	2003f00 <__alt_mem_flash+0xfdff2f00>

02003f38 <_dtoa_r>:
 2003f38:	20801017 	ldw	r2,64(r4)
 2003f3c:	deffde04 	addi	sp,sp,-136
 2003f40:	df002015 	stw	fp,128(sp)
 2003f44:	dcc01b15 	stw	r19,108(sp)
 2003f48:	dc801a15 	stw	r18,104(sp)
 2003f4c:	dc401915 	stw	r17,100(sp)
 2003f50:	dc001815 	stw	r16,96(sp)
 2003f54:	dfc02115 	stw	ra,132(sp)
 2003f58:	ddc01f15 	stw	r23,124(sp)
 2003f5c:	dd801e15 	stw	r22,120(sp)
 2003f60:	dd401d15 	stw	r21,116(sp)
 2003f64:	dd001c15 	stw	r20,112(sp)
 2003f68:	d9c00315 	stw	r7,12(sp)
 2003f6c:	2039883a 	mov	fp,r4
 2003f70:	3023883a 	mov	r17,r6
 2003f74:	2825883a 	mov	r18,r5
 2003f78:	dc002417 	ldw	r16,144(sp)
 2003f7c:	3027883a 	mov	r19,r6
 2003f80:	10000826 	beq	r2,zero,2003fa4 <_dtoa_r+0x6c>
 2003f84:	21801117 	ldw	r6,68(r4)
 2003f88:	00c00044 	movi	r3,1
 2003f8c:	100b883a 	mov	r5,r2
 2003f90:	1986983a 	sll	r3,r3,r6
 2003f94:	11800115 	stw	r6,4(r2)
 2003f98:	10c00215 	stw	r3,8(r2)
 2003f9c:	20070740 	call	2007074 <_Bfree>
 2003fa0:	e0001015 	stw	zero,64(fp)
 2003fa4:	88002e16 	blt	r17,zero,2004060 <_dtoa_r+0x128>
 2003fa8:	80000015 	stw	zero,0(r16)
 2003fac:	889ffc2c 	andhi	r2,r17,32752
 2003fb0:	00dffc34 	movhi	r3,32752
 2003fb4:	10c01c26 	beq	r2,r3,2004028 <_dtoa_r+0xf0>
 2003fb8:	000d883a 	mov	r6,zero
 2003fbc:	000f883a 	mov	r7,zero
 2003fc0:	9009883a 	mov	r4,r18
 2003fc4:	980b883a 	mov	r5,r19
 2003fc8:	200c70c0 	call	200c70c <__eqdf2>
 2003fcc:	10002b1e 	bne	r2,zero,200407c <_dtoa_r+0x144>
 2003fd0:	d9c02317 	ldw	r7,140(sp)
 2003fd4:	00800044 	movi	r2,1
 2003fd8:	38800015 	stw	r2,0(r7)
 2003fdc:	d8802517 	ldw	r2,148(sp)
 2003fe0:	10019e26 	beq	r2,zero,200465c <_dtoa_r+0x724>
 2003fe4:	d8c02517 	ldw	r3,148(sp)
 2003fe8:	00808074 	movhi	r2,513
 2003fec:	10868744 	addi	r2,r2,6685
 2003ff0:	18800015 	stw	r2,0(r3)
 2003ff4:	10bfffc4 	addi	r2,r2,-1
 2003ff8:	dfc02117 	ldw	ra,132(sp)
 2003ffc:	df002017 	ldw	fp,128(sp)
 2004000:	ddc01f17 	ldw	r23,124(sp)
 2004004:	dd801e17 	ldw	r22,120(sp)
 2004008:	dd401d17 	ldw	r21,116(sp)
 200400c:	dd001c17 	ldw	r20,112(sp)
 2004010:	dcc01b17 	ldw	r19,108(sp)
 2004014:	dc801a17 	ldw	r18,104(sp)
 2004018:	dc401917 	ldw	r17,100(sp)
 200401c:	dc001817 	ldw	r16,96(sp)
 2004020:	dec02204 	addi	sp,sp,136
 2004024:	f800283a 	ret
 2004028:	d8c02317 	ldw	r3,140(sp)
 200402c:	0089c3c4 	movi	r2,9999
 2004030:	18800015 	stw	r2,0(r3)
 2004034:	90017726 	beq	r18,zero,2004614 <_dtoa_r+0x6dc>
 2004038:	00808074 	movhi	r2,513
 200403c:	10869304 	addi	r2,r2,6732
 2004040:	d9002517 	ldw	r4,148(sp)
 2004044:	203fec26 	beq	r4,zero,2003ff8 <__alt_mem_flash+0xfdff2ff8>
 2004048:	10c000c7 	ldb	r3,3(r2)
 200404c:	1801781e 	bne	r3,zero,2004630 <_dtoa_r+0x6f8>
 2004050:	10c000c4 	addi	r3,r2,3
 2004054:	d9802517 	ldw	r6,148(sp)
 2004058:	30c00015 	stw	r3,0(r6)
 200405c:	003fe606 	br	2003ff8 <__alt_mem_flash+0xfdff2ff8>
 2004060:	04e00034 	movhi	r19,32768
 2004064:	9cffffc4 	addi	r19,r19,-1
 2004068:	00800044 	movi	r2,1
 200406c:	8ce6703a 	and	r19,r17,r19
 2004070:	80800015 	stw	r2,0(r16)
 2004074:	9823883a 	mov	r17,r19
 2004078:	003fcc06 	br	2003fac <__alt_mem_flash+0xfdff2fac>
 200407c:	d8800204 	addi	r2,sp,8
 2004080:	d8800015 	stw	r2,0(sp)
 2004084:	d9c00104 	addi	r7,sp,4
 2004088:	900b883a 	mov	r5,r18
 200408c:	980d883a 	mov	r6,r19
 2004090:	e009883a 	mov	r4,fp
 2004094:	8820d53a 	srli	r16,r17,20
 2004098:	2007d1c0 	call	2007d1c <__d2b>
 200409c:	d8800915 	stw	r2,36(sp)
 20040a0:	8001651e 	bne	r16,zero,2004638 <_dtoa_r+0x700>
 20040a4:	dd800217 	ldw	r22,8(sp)
 20040a8:	dc000117 	ldw	r16,4(sp)
 20040ac:	00800804 	movi	r2,32
 20040b0:	b421883a 	add	r16,r22,r16
 20040b4:	80c10c84 	addi	r3,r16,1074
 20040b8:	10c2d10e 	bge	r2,r3,2004c00 <_dtoa_r+0xcc8>
 20040bc:	00801004 	movi	r2,64
 20040c0:	81010484 	addi	r4,r16,1042
 20040c4:	10c7c83a 	sub	r3,r2,r3
 20040c8:	9108d83a 	srl	r4,r18,r4
 20040cc:	88e2983a 	sll	r17,r17,r3
 20040d0:	2448b03a 	or	r4,r4,r17
 20040d4:	200d2e00 	call	200d2e0 <__floatunsidf>
 20040d8:	017f8434 	movhi	r5,65040
 20040dc:	01800044 	movi	r6,1
 20040e0:	1009883a 	mov	r4,r2
 20040e4:	194b883a 	add	r5,r3,r5
 20040e8:	843fffc4 	addi	r16,r16,-1
 20040ec:	d9801115 	stw	r6,68(sp)
 20040f0:	000d883a 	mov	r6,zero
 20040f4:	01cffe34 	movhi	r7,16376
 20040f8:	200c9640 	call	200c964 <__subdf3>
 20040fc:	0198dbf4 	movhi	r6,25455
 2004100:	01cff4f4 	movhi	r7,16339
 2004104:	3190d844 	addi	r6,r6,17249
 2004108:	39e1e9c4 	addi	r7,r7,-30809
 200410c:	1009883a 	mov	r4,r2
 2004110:	180b883a 	mov	r5,r3
 2004114:	2000b300 	call	2000b30 <__muldf3>
 2004118:	01a2d874 	movhi	r6,35681
 200411c:	01cff1f4 	movhi	r7,16327
 2004120:	31b22cc4 	addi	r6,r6,-14157
 2004124:	39e28a04 	addi	r7,r7,-30168
 2004128:	180b883a 	mov	r5,r3
 200412c:	1009883a 	mov	r4,r2
 2004130:	20002840 	call	2000284 <__adddf3>
 2004134:	8009883a 	mov	r4,r16
 2004138:	1029883a 	mov	r20,r2
 200413c:	1823883a 	mov	r17,r3
 2004140:	200139c0 	call	200139c <__floatsidf>
 2004144:	019427f4 	movhi	r6,20639
 2004148:	01cff4f4 	movhi	r7,16339
 200414c:	319e7ec4 	addi	r6,r6,31227
 2004150:	39d104c4 	addi	r7,r7,17427
 2004154:	1009883a 	mov	r4,r2
 2004158:	180b883a 	mov	r5,r3
 200415c:	2000b300 	call	2000b30 <__muldf3>
 2004160:	100d883a 	mov	r6,r2
 2004164:	180f883a 	mov	r7,r3
 2004168:	a009883a 	mov	r4,r20
 200416c:	880b883a 	mov	r5,r17
 2004170:	20002840 	call	2000284 <__adddf3>
 2004174:	1009883a 	mov	r4,r2
 2004178:	180b883a 	mov	r5,r3
 200417c:	1029883a 	mov	r20,r2
 2004180:	1823883a 	mov	r17,r3
 2004184:	200d2600 	call	200d260 <__fixdfsi>
 2004188:	000d883a 	mov	r6,zero
 200418c:	000f883a 	mov	r7,zero
 2004190:	a009883a 	mov	r4,r20
 2004194:	880b883a 	mov	r5,r17
 2004198:	d8800515 	stw	r2,20(sp)
 200419c:	200c8700 	call	200c870 <__ledf2>
 20041a0:	10028716 	blt	r2,zero,2004bc0 <_dtoa_r+0xc88>
 20041a4:	d8c00517 	ldw	r3,20(sp)
 20041a8:	00800584 	movi	r2,22
 20041ac:	10c27536 	bltu	r2,r3,2004b84 <_dtoa_r+0xc4c>
 20041b0:	180490fa 	slli	r2,r3,3
 20041b4:	00c08074 	movhi	r3,513
 20041b8:	18c6ae04 	addi	r3,r3,6840
 20041bc:	1885883a 	add	r2,r3,r2
 20041c0:	11000017 	ldw	r4,0(r2)
 20041c4:	11400117 	ldw	r5,4(r2)
 20041c8:	900d883a 	mov	r6,r18
 20041cc:	980f883a 	mov	r7,r19
 20041d0:	200c7940 	call	200c794 <__gedf2>
 20041d4:	00828d0e 	bge	zero,r2,2004c0c <_dtoa_r+0xcd4>
 20041d8:	d9000517 	ldw	r4,20(sp)
 20041dc:	d8000e15 	stw	zero,56(sp)
 20041e0:	213fffc4 	addi	r4,r4,-1
 20041e4:	d9000515 	stw	r4,20(sp)
 20041e8:	b42dc83a 	sub	r22,r22,r16
 20041ec:	b5bfffc4 	addi	r22,r22,-1
 20041f0:	b0026f16 	blt	r22,zero,2004bb0 <_dtoa_r+0xc78>
 20041f4:	d8000815 	stw	zero,32(sp)
 20041f8:	d9c00517 	ldw	r7,20(sp)
 20041fc:	38026416 	blt	r7,zero,2004b90 <_dtoa_r+0xc58>
 2004200:	b1ed883a 	add	r22,r22,r7
 2004204:	d9c00d15 	stw	r7,52(sp)
 2004208:	d8000a15 	stw	zero,40(sp)
 200420c:	d9800317 	ldw	r6,12(sp)
 2004210:	00800244 	movi	r2,9
 2004214:	11811436 	bltu	r2,r6,2004668 <_dtoa_r+0x730>
 2004218:	00800144 	movi	r2,5
 200421c:	1184e10e 	bge	r2,r6,20055a4 <_dtoa_r+0x166c>
 2004220:	31bfff04 	addi	r6,r6,-4
 2004224:	d9800315 	stw	r6,12(sp)
 2004228:	0023883a 	mov	r17,zero
 200422c:	d9800317 	ldw	r6,12(sp)
 2004230:	008000c4 	movi	r2,3
 2004234:	30836726 	beq	r6,r2,2004fd4 <_dtoa_r+0x109c>
 2004238:	1183410e 	bge	r2,r6,2004f40 <_dtoa_r+0x1008>
 200423c:	d9c00317 	ldw	r7,12(sp)
 2004240:	00800104 	movi	r2,4
 2004244:	38827c26 	beq	r7,r2,2004c38 <_dtoa_r+0xd00>
 2004248:	00800144 	movi	r2,5
 200424c:	3884c41e 	bne	r7,r2,2005560 <_dtoa_r+0x1628>
 2004250:	00800044 	movi	r2,1
 2004254:	d8800b15 	stw	r2,44(sp)
 2004258:	d8c00517 	ldw	r3,20(sp)
 200425c:	d9002217 	ldw	r4,136(sp)
 2004260:	1907883a 	add	r3,r3,r4
 2004264:	19800044 	addi	r6,r3,1
 2004268:	d8c00c15 	stw	r3,48(sp)
 200426c:	d9800615 	stw	r6,24(sp)
 2004270:	0183a40e 	bge	zero,r6,2005104 <_dtoa_r+0x11cc>
 2004274:	d9800617 	ldw	r6,24(sp)
 2004278:	3021883a 	mov	r16,r6
 200427c:	e0001115 	stw	zero,68(fp)
 2004280:	008005c4 	movi	r2,23
 2004284:	1184c92e 	bgeu	r2,r6,20055ac <_dtoa_r+0x1674>
 2004288:	00c00044 	movi	r3,1
 200428c:	00800104 	movi	r2,4
 2004290:	1085883a 	add	r2,r2,r2
 2004294:	11000504 	addi	r4,r2,20
 2004298:	180b883a 	mov	r5,r3
 200429c:	18c00044 	addi	r3,r3,1
 20042a0:	313ffb2e 	bgeu	r6,r4,2004290 <__alt_mem_flash+0xfdff3290>
 20042a4:	e1401115 	stw	r5,68(fp)
 20042a8:	e009883a 	mov	r4,fp
 20042ac:	2006fcc0 	call	2006fcc <_Balloc>
 20042b0:	d8800715 	stw	r2,28(sp)
 20042b4:	e0801015 	stw	r2,64(fp)
 20042b8:	00800384 	movi	r2,14
 20042bc:	1400f736 	bltu	r2,r16,200469c <_dtoa_r+0x764>
 20042c0:	8800f626 	beq	r17,zero,200469c <_dtoa_r+0x764>
 20042c4:	d9c00517 	ldw	r7,20(sp)
 20042c8:	01c39a0e 	bge	zero,r7,2005134 <_dtoa_r+0x11fc>
 20042cc:	388003cc 	andi	r2,r7,15
 20042d0:	100490fa 	slli	r2,r2,3
 20042d4:	382bd13a 	srai	r21,r7,4
 20042d8:	00c08074 	movhi	r3,513
 20042dc:	18c6ae04 	addi	r3,r3,6840
 20042e0:	1885883a 	add	r2,r3,r2
 20042e4:	a8c0040c 	andi	r3,r21,16
 20042e8:	12400017 	ldw	r9,0(r2)
 20042ec:	12000117 	ldw	r8,4(r2)
 20042f0:	18037926 	beq	r3,zero,20050d8 <_dtoa_r+0x11a0>
 20042f4:	00808074 	movhi	r2,513
 20042f8:	1086a404 	addi	r2,r2,6800
 20042fc:	11800817 	ldw	r6,32(r2)
 2004300:	11c00917 	ldw	r7,36(r2)
 2004304:	9009883a 	mov	r4,r18
 2004308:	980b883a 	mov	r5,r19
 200430c:	da001715 	stw	r8,92(sp)
 2004310:	da401615 	stw	r9,88(sp)
 2004314:	200bd3c0 	call	200bd3c <__divdf3>
 2004318:	da001717 	ldw	r8,92(sp)
 200431c:	da401617 	ldw	r9,88(sp)
 2004320:	ad4003cc 	andi	r21,r21,15
 2004324:	040000c4 	movi	r16,3
 2004328:	1023883a 	mov	r17,r2
 200432c:	1829883a 	mov	r20,r3
 2004330:	a8001126 	beq	r21,zero,2004378 <_dtoa_r+0x440>
 2004334:	05c08074 	movhi	r23,513
 2004338:	bdc6a404 	addi	r23,r23,6800
 200433c:	4805883a 	mov	r2,r9
 2004340:	4007883a 	mov	r3,r8
 2004344:	a980004c 	andi	r6,r21,1
 2004348:	1009883a 	mov	r4,r2
 200434c:	a82bd07a 	srai	r21,r21,1
 2004350:	180b883a 	mov	r5,r3
 2004354:	30000426 	beq	r6,zero,2004368 <_dtoa_r+0x430>
 2004358:	b9800017 	ldw	r6,0(r23)
 200435c:	b9c00117 	ldw	r7,4(r23)
 2004360:	84000044 	addi	r16,r16,1
 2004364:	2000b300 	call	2000b30 <__muldf3>
 2004368:	bdc00204 	addi	r23,r23,8
 200436c:	a83ff51e 	bne	r21,zero,2004344 <__alt_mem_flash+0xfdff3344>
 2004370:	1013883a 	mov	r9,r2
 2004374:	1811883a 	mov	r8,r3
 2004378:	480d883a 	mov	r6,r9
 200437c:	400f883a 	mov	r7,r8
 2004380:	8809883a 	mov	r4,r17
 2004384:	a00b883a 	mov	r5,r20
 2004388:	200bd3c0 	call	200bd3c <__divdf3>
 200438c:	d8800f15 	stw	r2,60(sp)
 2004390:	d8c01015 	stw	r3,64(sp)
 2004394:	d8c00e17 	ldw	r3,56(sp)
 2004398:	18000626 	beq	r3,zero,20043b4 <_dtoa_r+0x47c>
 200439c:	d9000f17 	ldw	r4,60(sp)
 20043a0:	d9401017 	ldw	r5,64(sp)
 20043a4:	000d883a 	mov	r6,zero
 20043a8:	01cffc34 	movhi	r7,16368
 20043ac:	200c8700 	call	200c870 <__ledf2>
 20043b0:	10040b16 	blt	r2,zero,20053e0 <_dtoa_r+0x14a8>
 20043b4:	8009883a 	mov	r4,r16
 20043b8:	200139c0 	call	200139c <__floatsidf>
 20043bc:	d9800f17 	ldw	r6,60(sp)
 20043c0:	d9c01017 	ldw	r7,64(sp)
 20043c4:	1009883a 	mov	r4,r2
 20043c8:	180b883a 	mov	r5,r3
 20043cc:	2000b300 	call	2000b30 <__muldf3>
 20043d0:	000d883a 	mov	r6,zero
 20043d4:	01d00734 	movhi	r7,16412
 20043d8:	1009883a 	mov	r4,r2
 20043dc:	180b883a 	mov	r5,r3
 20043e0:	20002840 	call	2000284 <__adddf3>
 20043e4:	1021883a 	mov	r16,r2
 20043e8:	d8800617 	ldw	r2,24(sp)
 20043ec:	047f3034 	movhi	r17,64704
 20043f0:	1c63883a 	add	r17,r3,r17
 20043f4:	10031826 	beq	r2,zero,2005058 <_dtoa_r+0x1120>
 20043f8:	d8c00517 	ldw	r3,20(sp)
 20043fc:	db000617 	ldw	r12,24(sp)
 2004400:	d8c01315 	stw	r3,76(sp)
 2004404:	d9000b17 	ldw	r4,44(sp)
 2004408:	20038f26 	beq	r4,zero,2005248 <_dtoa_r+0x1310>
 200440c:	60bfffc4 	addi	r2,r12,-1
 2004410:	100490fa 	slli	r2,r2,3
 2004414:	00c08074 	movhi	r3,513
 2004418:	18c6ae04 	addi	r3,r3,6840
 200441c:	1885883a 	add	r2,r3,r2
 2004420:	11800017 	ldw	r6,0(r2)
 2004424:	11c00117 	ldw	r7,4(r2)
 2004428:	d8800717 	ldw	r2,28(sp)
 200442c:	0009883a 	mov	r4,zero
 2004430:	014ff834 	movhi	r5,16352
 2004434:	db001615 	stw	r12,88(sp)
 2004438:	15c00044 	addi	r23,r2,1
 200443c:	200bd3c0 	call	200bd3c <__divdf3>
 2004440:	800d883a 	mov	r6,r16
 2004444:	880f883a 	mov	r7,r17
 2004448:	1009883a 	mov	r4,r2
 200444c:	180b883a 	mov	r5,r3
 2004450:	200c9640 	call	200c964 <__subdf3>
 2004454:	d9401017 	ldw	r5,64(sp)
 2004458:	d9000f17 	ldw	r4,60(sp)
 200445c:	102b883a 	mov	r21,r2
 2004460:	d8c01215 	stw	r3,72(sp)
 2004464:	200d2600 	call	200d260 <__fixdfsi>
 2004468:	1009883a 	mov	r4,r2
 200446c:	1029883a 	mov	r20,r2
 2004470:	200139c0 	call	200139c <__floatsidf>
 2004474:	d9000f17 	ldw	r4,60(sp)
 2004478:	d9401017 	ldw	r5,64(sp)
 200447c:	100d883a 	mov	r6,r2
 2004480:	180f883a 	mov	r7,r3
 2004484:	200c9640 	call	200c964 <__subdf3>
 2004488:	1823883a 	mov	r17,r3
 200448c:	d8c00717 	ldw	r3,28(sp)
 2004490:	d9401217 	ldw	r5,72(sp)
 2004494:	a2000c04 	addi	r8,r20,48
 2004498:	1021883a 	mov	r16,r2
 200449c:	1a000005 	stb	r8,0(r3)
 20044a0:	800d883a 	mov	r6,r16
 20044a4:	880f883a 	mov	r7,r17
 20044a8:	a809883a 	mov	r4,r21
 20044ac:	4029883a 	mov	r20,r8
 20044b0:	200c7940 	call	200c794 <__gedf2>
 20044b4:	00841d16 	blt	zero,r2,200552c <_dtoa_r+0x15f4>
 20044b8:	800d883a 	mov	r6,r16
 20044bc:	880f883a 	mov	r7,r17
 20044c0:	0009883a 	mov	r4,zero
 20044c4:	014ffc34 	movhi	r5,16368
 20044c8:	200c9640 	call	200c964 <__subdf3>
 20044cc:	d9401217 	ldw	r5,72(sp)
 20044d0:	100d883a 	mov	r6,r2
 20044d4:	180f883a 	mov	r7,r3
 20044d8:	a809883a 	mov	r4,r21
 20044dc:	200c7940 	call	200c794 <__gedf2>
 20044e0:	db001617 	ldw	r12,88(sp)
 20044e4:	00840e16 	blt	zero,r2,2005520 <_dtoa_r+0x15e8>
 20044e8:	00800044 	movi	r2,1
 20044ec:	13006b0e 	bge	r2,r12,200469c <_dtoa_r+0x764>
 20044f0:	d9000717 	ldw	r4,28(sp)
 20044f4:	dd800f15 	stw	r22,60(sp)
 20044f8:	dcc01015 	stw	r19,64(sp)
 20044fc:	2319883a 	add	r12,r4,r12
 2004500:	dcc01217 	ldw	r19,72(sp)
 2004504:	602d883a 	mov	r22,r12
 2004508:	dc801215 	stw	r18,72(sp)
 200450c:	b825883a 	mov	r18,r23
 2004510:	00000906 	br	2004538 <_dtoa_r+0x600>
 2004514:	200c9640 	call	200c964 <__subdf3>
 2004518:	a80d883a 	mov	r6,r21
 200451c:	980f883a 	mov	r7,r19
 2004520:	1009883a 	mov	r4,r2
 2004524:	180b883a 	mov	r5,r3
 2004528:	200c8700 	call	200c870 <__ledf2>
 200452c:	1003e816 	blt	r2,zero,20054d0 <_dtoa_r+0x1598>
 2004530:	b825883a 	mov	r18,r23
 2004534:	bd83e926 	beq	r23,r22,20054dc <_dtoa_r+0x15a4>
 2004538:	a809883a 	mov	r4,r21
 200453c:	980b883a 	mov	r5,r19
 2004540:	000d883a 	mov	r6,zero
 2004544:	01d00934 	movhi	r7,16420
 2004548:	2000b300 	call	2000b30 <__muldf3>
 200454c:	000d883a 	mov	r6,zero
 2004550:	01d00934 	movhi	r7,16420
 2004554:	8009883a 	mov	r4,r16
 2004558:	880b883a 	mov	r5,r17
 200455c:	102b883a 	mov	r21,r2
 2004560:	1827883a 	mov	r19,r3
 2004564:	2000b300 	call	2000b30 <__muldf3>
 2004568:	180b883a 	mov	r5,r3
 200456c:	1009883a 	mov	r4,r2
 2004570:	1821883a 	mov	r16,r3
 2004574:	1023883a 	mov	r17,r2
 2004578:	200d2600 	call	200d260 <__fixdfsi>
 200457c:	1009883a 	mov	r4,r2
 2004580:	1029883a 	mov	r20,r2
 2004584:	200139c0 	call	200139c <__floatsidf>
 2004588:	8809883a 	mov	r4,r17
 200458c:	800b883a 	mov	r5,r16
 2004590:	100d883a 	mov	r6,r2
 2004594:	180f883a 	mov	r7,r3
 2004598:	200c9640 	call	200c964 <__subdf3>
 200459c:	a5000c04 	addi	r20,r20,48
 20045a0:	a80d883a 	mov	r6,r21
 20045a4:	980f883a 	mov	r7,r19
 20045a8:	1009883a 	mov	r4,r2
 20045ac:	180b883a 	mov	r5,r3
 20045b0:	95000005 	stb	r20,0(r18)
 20045b4:	1021883a 	mov	r16,r2
 20045b8:	1823883a 	mov	r17,r3
 20045bc:	200c8700 	call	200c870 <__ledf2>
 20045c0:	bdc00044 	addi	r23,r23,1
 20045c4:	800d883a 	mov	r6,r16
 20045c8:	880f883a 	mov	r7,r17
 20045cc:	0009883a 	mov	r4,zero
 20045d0:	014ffc34 	movhi	r5,16368
 20045d4:	103fcf0e 	bge	r2,zero,2004514 <__alt_mem_flash+0xfdff3514>
 20045d8:	d8c01317 	ldw	r3,76(sp)
 20045dc:	d8c00515 	stw	r3,20(sp)
 20045e0:	d9400917 	ldw	r5,36(sp)
 20045e4:	e009883a 	mov	r4,fp
 20045e8:	20070740 	call	2007074 <_Bfree>
 20045ec:	d9000517 	ldw	r4,20(sp)
 20045f0:	d9802317 	ldw	r6,140(sp)
 20045f4:	d9c02517 	ldw	r7,148(sp)
 20045f8:	b8000005 	stb	zero,0(r23)
 20045fc:	20800044 	addi	r2,r4,1
 2004600:	30800015 	stw	r2,0(r6)
 2004604:	3802aa26 	beq	r7,zero,20050b0 <_dtoa_r+0x1178>
 2004608:	3dc00015 	stw	r23,0(r7)
 200460c:	d8800717 	ldw	r2,28(sp)
 2004610:	003e7906 	br	2003ff8 <__alt_mem_flash+0xfdff2ff8>
 2004614:	00800434 	movhi	r2,16
 2004618:	10bfffc4 	addi	r2,r2,-1
 200461c:	88a2703a 	and	r17,r17,r2
 2004620:	883e851e 	bne	r17,zero,2004038 <__alt_mem_flash+0xfdff3038>
 2004624:	00808074 	movhi	r2,513
 2004628:	10869004 	addi	r2,r2,6720
 200462c:	003e8406 	br	2004040 <__alt_mem_flash+0xfdff3040>
 2004630:	10c00204 	addi	r3,r2,8
 2004634:	003e8706 	br	2004054 <__alt_mem_flash+0xfdff3054>
 2004638:	01400434 	movhi	r5,16
 200463c:	297fffc4 	addi	r5,r5,-1
 2004640:	994a703a 	and	r5,r19,r5
 2004644:	9009883a 	mov	r4,r18
 2004648:	843f0044 	addi	r16,r16,-1023
 200464c:	294ffc34 	orhi	r5,r5,16368
 2004650:	dd800217 	ldw	r22,8(sp)
 2004654:	d8001115 	stw	zero,68(sp)
 2004658:	003ea506 	br	20040f0 <__alt_mem_flash+0xfdff30f0>
 200465c:	00808074 	movhi	r2,513
 2004660:	10868704 	addi	r2,r2,6684
 2004664:	003e6406 	br	2003ff8 <__alt_mem_flash+0xfdff2ff8>
 2004668:	e0001115 	stw	zero,68(fp)
 200466c:	000b883a 	mov	r5,zero
 2004670:	e009883a 	mov	r4,fp
 2004674:	2006fcc0 	call	2006fcc <_Balloc>
 2004678:	01bfffc4 	movi	r6,-1
 200467c:	01c00044 	movi	r7,1
 2004680:	d8800715 	stw	r2,28(sp)
 2004684:	d9800c15 	stw	r6,48(sp)
 2004688:	e0801015 	stw	r2,64(fp)
 200468c:	d8000315 	stw	zero,12(sp)
 2004690:	d9c00b15 	stw	r7,44(sp)
 2004694:	d9800615 	stw	r6,24(sp)
 2004698:	d8002215 	stw	zero,136(sp)
 200469c:	d8800117 	ldw	r2,4(sp)
 20046a0:	10008916 	blt	r2,zero,20048c8 <_dtoa_r+0x990>
 20046a4:	d9000517 	ldw	r4,20(sp)
 20046a8:	00c00384 	movi	r3,14
 20046ac:	19008616 	blt	r3,r4,20048c8 <_dtoa_r+0x990>
 20046b0:	200490fa 	slli	r2,r4,3
 20046b4:	00c08074 	movhi	r3,513
 20046b8:	d9802217 	ldw	r6,136(sp)
 20046bc:	18c6ae04 	addi	r3,r3,6840
 20046c0:	1885883a 	add	r2,r3,r2
 20046c4:	14000017 	ldw	r16,0(r2)
 20046c8:	14400117 	ldw	r17,4(r2)
 20046cc:	30016316 	blt	r6,zero,2004c5c <_dtoa_r+0xd24>
 20046d0:	800d883a 	mov	r6,r16
 20046d4:	880f883a 	mov	r7,r17
 20046d8:	9009883a 	mov	r4,r18
 20046dc:	980b883a 	mov	r5,r19
 20046e0:	200bd3c0 	call	200bd3c <__divdf3>
 20046e4:	180b883a 	mov	r5,r3
 20046e8:	1009883a 	mov	r4,r2
 20046ec:	200d2600 	call	200d260 <__fixdfsi>
 20046f0:	1009883a 	mov	r4,r2
 20046f4:	102b883a 	mov	r21,r2
 20046f8:	200139c0 	call	200139c <__floatsidf>
 20046fc:	800d883a 	mov	r6,r16
 2004700:	880f883a 	mov	r7,r17
 2004704:	1009883a 	mov	r4,r2
 2004708:	180b883a 	mov	r5,r3
 200470c:	2000b300 	call	2000b30 <__muldf3>
 2004710:	100d883a 	mov	r6,r2
 2004714:	180f883a 	mov	r7,r3
 2004718:	9009883a 	mov	r4,r18
 200471c:	980b883a 	mov	r5,r19
 2004720:	200c9640 	call	200c964 <__subdf3>
 2004724:	d9c00717 	ldw	r7,28(sp)
 2004728:	1009883a 	mov	r4,r2
 200472c:	a8800c04 	addi	r2,r21,48
 2004730:	38800005 	stb	r2,0(r7)
 2004734:	3dc00044 	addi	r23,r7,1
 2004738:	d9c00617 	ldw	r7,24(sp)
 200473c:	01800044 	movi	r6,1
 2004740:	180b883a 	mov	r5,r3
 2004744:	2005883a 	mov	r2,r4
 2004748:	39803826 	beq	r7,r6,200482c <_dtoa_r+0x8f4>
 200474c:	000d883a 	mov	r6,zero
 2004750:	01d00934 	movhi	r7,16420
 2004754:	2000b300 	call	2000b30 <__muldf3>
 2004758:	000d883a 	mov	r6,zero
 200475c:	000f883a 	mov	r7,zero
 2004760:	1009883a 	mov	r4,r2
 2004764:	180b883a 	mov	r5,r3
 2004768:	1025883a 	mov	r18,r2
 200476c:	1827883a 	mov	r19,r3
 2004770:	200c70c0 	call	200c70c <__eqdf2>
 2004774:	103f9a26 	beq	r2,zero,20045e0 <__alt_mem_flash+0xfdff35e0>
 2004778:	d9c00617 	ldw	r7,24(sp)
 200477c:	d8c00717 	ldw	r3,28(sp)
 2004780:	b829883a 	mov	r20,r23
 2004784:	38bfffc4 	addi	r2,r7,-1
 2004788:	18ad883a 	add	r22,r3,r2
 200478c:	00000a06 	br	20047b8 <_dtoa_r+0x880>
 2004790:	2000b300 	call	2000b30 <__muldf3>
 2004794:	000d883a 	mov	r6,zero
 2004798:	000f883a 	mov	r7,zero
 200479c:	1009883a 	mov	r4,r2
 20047a0:	180b883a 	mov	r5,r3
 20047a4:	1025883a 	mov	r18,r2
 20047a8:	1827883a 	mov	r19,r3
 20047ac:	b829883a 	mov	r20,r23
 20047b0:	200c70c0 	call	200c70c <__eqdf2>
 20047b4:	103f8a26 	beq	r2,zero,20045e0 <__alt_mem_flash+0xfdff35e0>
 20047b8:	800d883a 	mov	r6,r16
 20047bc:	880f883a 	mov	r7,r17
 20047c0:	9009883a 	mov	r4,r18
 20047c4:	980b883a 	mov	r5,r19
 20047c8:	200bd3c0 	call	200bd3c <__divdf3>
 20047cc:	180b883a 	mov	r5,r3
 20047d0:	1009883a 	mov	r4,r2
 20047d4:	200d2600 	call	200d260 <__fixdfsi>
 20047d8:	1009883a 	mov	r4,r2
 20047dc:	102b883a 	mov	r21,r2
 20047e0:	200139c0 	call	200139c <__floatsidf>
 20047e4:	800d883a 	mov	r6,r16
 20047e8:	880f883a 	mov	r7,r17
 20047ec:	1009883a 	mov	r4,r2
 20047f0:	180b883a 	mov	r5,r3
 20047f4:	2000b300 	call	2000b30 <__muldf3>
 20047f8:	100d883a 	mov	r6,r2
 20047fc:	180f883a 	mov	r7,r3
 2004800:	9009883a 	mov	r4,r18
 2004804:	980b883a 	mov	r5,r19
 2004808:	200c9640 	call	200c964 <__subdf3>
 200480c:	aa000c04 	addi	r8,r21,48
 2004810:	a2000005 	stb	r8,0(r20)
 2004814:	000d883a 	mov	r6,zero
 2004818:	01d00934 	movhi	r7,16420
 200481c:	1009883a 	mov	r4,r2
 2004820:	180b883a 	mov	r5,r3
 2004824:	a5c00044 	addi	r23,r20,1
 2004828:	b53fd91e 	bne	r22,r20,2004790 <__alt_mem_flash+0xfdff3790>
 200482c:	100d883a 	mov	r6,r2
 2004830:	180f883a 	mov	r7,r3
 2004834:	1009883a 	mov	r4,r2
 2004838:	180b883a 	mov	r5,r3
 200483c:	20002840 	call	2000284 <__adddf3>
 2004840:	100d883a 	mov	r6,r2
 2004844:	180f883a 	mov	r7,r3
 2004848:	8009883a 	mov	r4,r16
 200484c:	880b883a 	mov	r5,r17
 2004850:	1027883a 	mov	r19,r2
 2004854:	1825883a 	mov	r18,r3
 2004858:	200c8700 	call	200c870 <__ledf2>
 200485c:	10000816 	blt	r2,zero,2004880 <_dtoa_r+0x948>
 2004860:	980d883a 	mov	r6,r19
 2004864:	900f883a 	mov	r7,r18
 2004868:	8009883a 	mov	r4,r16
 200486c:	880b883a 	mov	r5,r17
 2004870:	200c70c0 	call	200c70c <__eqdf2>
 2004874:	103f5a1e 	bne	r2,zero,20045e0 <__alt_mem_flash+0xfdff35e0>
 2004878:	ad40004c 	andi	r21,r21,1
 200487c:	a83f5826 	beq	r21,zero,20045e0 <__alt_mem_flash+0xfdff35e0>
 2004880:	bd3fffc3 	ldbu	r20,-1(r23)
 2004884:	b8bfffc4 	addi	r2,r23,-1
 2004888:	1007883a 	mov	r3,r2
 200488c:	01400e44 	movi	r5,57
 2004890:	d9800717 	ldw	r6,28(sp)
 2004894:	00000506 	br	20048ac <_dtoa_r+0x974>
 2004898:	18ffffc4 	addi	r3,r3,-1
 200489c:	11824726 	beq	r2,r6,20051bc <_dtoa_r+0x1284>
 20048a0:	1d000003 	ldbu	r20,0(r3)
 20048a4:	102f883a 	mov	r23,r2
 20048a8:	10bfffc4 	addi	r2,r2,-1
 20048ac:	a1003fcc 	andi	r4,r20,255
 20048b0:	2100201c 	xori	r4,r4,128
 20048b4:	213fe004 	addi	r4,r4,-128
 20048b8:	217ff726 	beq	r4,r5,2004898 <__alt_mem_flash+0xfdff3898>
 20048bc:	a2000044 	addi	r8,r20,1
 20048c0:	12000005 	stb	r8,0(r2)
 20048c4:	003f4606 	br	20045e0 <__alt_mem_flash+0xfdff35e0>
 20048c8:	d9000b17 	ldw	r4,44(sp)
 20048cc:	2000c826 	beq	r4,zero,2004bf0 <_dtoa_r+0xcb8>
 20048d0:	d9800317 	ldw	r6,12(sp)
 20048d4:	00c00044 	movi	r3,1
 20048d8:	1980f90e 	bge	r3,r6,2004cc0 <_dtoa_r+0xd88>
 20048dc:	d8800617 	ldw	r2,24(sp)
 20048e0:	d8c00a17 	ldw	r3,40(sp)
 20048e4:	157fffc4 	addi	r21,r2,-1
 20048e8:	1d41f316 	blt	r3,r21,20050b8 <_dtoa_r+0x1180>
 20048ec:	1d6bc83a 	sub	r21,r3,r21
 20048f0:	d9c00617 	ldw	r7,24(sp)
 20048f4:	3802aa16 	blt	r7,zero,20053a0 <_dtoa_r+0x1468>
 20048f8:	dd000817 	ldw	r20,32(sp)
 20048fc:	d8800617 	ldw	r2,24(sp)
 2004900:	d8c00817 	ldw	r3,32(sp)
 2004904:	01400044 	movi	r5,1
 2004908:	e009883a 	mov	r4,fp
 200490c:	1887883a 	add	r3,r3,r2
 2004910:	d8c00815 	stw	r3,32(sp)
 2004914:	b0ad883a 	add	r22,r22,r2
 2004918:	20074000 	call	2007400 <__i2b>
 200491c:	1023883a 	mov	r17,r2
 2004920:	a0000826 	beq	r20,zero,2004944 <_dtoa_r+0xa0c>
 2004924:	0580070e 	bge	zero,r22,2004944 <_dtoa_r+0xa0c>
 2004928:	a005883a 	mov	r2,r20
 200492c:	b500b916 	blt	r22,r20,2004c14 <_dtoa_r+0xcdc>
 2004930:	d9000817 	ldw	r4,32(sp)
 2004934:	a0a9c83a 	sub	r20,r20,r2
 2004938:	b0adc83a 	sub	r22,r22,r2
 200493c:	2089c83a 	sub	r4,r4,r2
 2004940:	d9000815 	stw	r4,32(sp)
 2004944:	d9800a17 	ldw	r6,40(sp)
 2004948:	0181810e 	bge	zero,r6,2004f50 <_dtoa_r+0x1018>
 200494c:	d9c00b17 	ldw	r7,44(sp)
 2004950:	3800b326 	beq	r7,zero,2004c20 <_dtoa_r+0xce8>
 2004954:	a800b226 	beq	r21,zero,2004c20 <_dtoa_r+0xce8>
 2004958:	880b883a 	mov	r5,r17
 200495c:	a80d883a 	mov	r6,r21
 2004960:	e009883a 	mov	r4,fp
 2004964:	20076c80 	call	20076c8 <__pow5mult>
 2004968:	d9800917 	ldw	r6,36(sp)
 200496c:	100b883a 	mov	r5,r2
 2004970:	e009883a 	mov	r4,fp
 2004974:	1023883a 	mov	r17,r2
 2004978:	200743c0 	call	200743c <__multiply>
 200497c:	1021883a 	mov	r16,r2
 2004980:	d8800a17 	ldw	r2,40(sp)
 2004984:	d9400917 	ldw	r5,36(sp)
 2004988:	e009883a 	mov	r4,fp
 200498c:	1545c83a 	sub	r2,r2,r21
 2004990:	d8800a15 	stw	r2,40(sp)
 2004994:	20070740 	call	2007074 <_Bfree>
 2004998:	d8c00a17 	ldw	r3,40(sp)
 200499c:	18009f1e 	bne	r3,zero,2004c1c <_dtoa_r+0xce4>
 20049a0:	05c00044 	movi	r23,1
 20049a4:	e009883a 	mov	r4,fp
 20049a8:	b80b883a 	mov	r5,r23
 20049ac:	20074000 	call	2007400 <__i2b>
 20049b0:	d9000d17 	ldw	r4,52(sp)
 20049b4:	102b883a 	mov	r21,r2
 20049b8:	2000ce26 	beq	r4,zero,2004cf4 <_dtoa_r+0xdbc>
 20049bc:	200d883a 	mov	r6,r4
 20049c0:	100b883a 	mov	r5,r2
 20049c4:	e009883a 	mov	r4,fp
 20049c8:	20076c80 	call	20076c8 <__pow5mult>
 20049cc:	d9800317 	ldw	r6,12(sp)
 20049d0:	102b883a 	mov	r21,r2
 20049d4:	b981810e 	bge	r23,r6,2004fdc <_dtoa_r+0x10a4>
 20049d8:	0027883a 	mov	r19,zero
 20049dc:	a8800417 	ldw	r2,16(r21)
 20049e0:	05c00804 	movi	r23,32
 20049e4:	10800104 	addi	r2,r2,4
 20049e8:	1085883a 	add	r2,r2,r2
 20049ec:	1085883a 	add	r2,r2,r2
 20049f0:	a885883a 	add	r2,r21,r2
 20049f4:	11000017 	ldw	r4,0(r2)
 20049f8:	20072e80 	call	20072e8 <__hi0bits>
 20049fc:	b885c83a 	sub	r2,r23,r2
 2004a00:	1585883a 	add	r2,r2,r22
 2004a04:	108007cc 	andi	r2,r2,31
 2004a08:	1000b326 	beq	r2,zero,2004cd8 <_dtoa_r+0xda0>
 2004a0c:	00c00804 	movi	r3,32
 2004a10:	1887c83a 	sub	r3,r3,r2
 2004a14:	01000104 	movi	r4,4
 2004a18:	20c2cd0e 	bge	r4,r3,2005550 <_dtoa_r+0x1618>
 2004a1c:	00c00704 	movi	r3,28
 2004a20:	1885c83a 	sub	r2,r3,r2
 2004a24:	d8c00817 	ldw	r3,32(sp)
 2004a28:	a0a9883a 	add	r20,r20,r2
 2004a2c:	b0ad883a 	add	r22,r22,r2
 2004a30:	1887883a 	add	r3,r3,r2
 2004a34:	d8c00815 	stw	r3,32(sp)
 2004a38:	d9800817 	ldw	r6,32(sp)
 2004a3c:	0180040e 	bge	zero,r6,2004a50 <_dtoa_r+0xb18>
 2004a40:	800b883a 	mov	r5,r16
 2004a44:	e009883a 	mov	r4,fp
 2004a48:	20078080 	call	2007808 <__lshift>
 2004a4c:	1021883a 	mov	r16,r2
 2004a50:	0580050e 	bge	zero,r22,2004a68 <_dtoa_r+0xb30>
 2004a54:	a80b883a 	mov	r5,r21
 2004a58:	b00d883a 	mov	r6,r22
 2004a5c:	e009883a 	mov	r4,fp
 2004a60:	20078080 	call	2007808 <__lshift>
 2004a64:	102b883a 	mov	r21,r2
 2004a68:	d9c00e17 	ldw	r7,56(sp)
 2004a6c:	3801211e 	bne	r7,zero,2004ef4 <_dtoa_r+0xfbc>
 2004a70:	d9800617 	ldw	r6,24(sp)
 2004a74:	0181380e 	bge	zero,r6,2004f58 <_dtoa_r+0x1020>
 2004a78:	d8c00b17 	ldw	r3,44(sp)
 2004a7c:	1800ab1e 	bne	r3,zero,2004d2c <_dtoa_r+0xdf4>
 2004a80:	dc800717 	ldw	r18,28(sp)
 2004a84:	dcc00617 	ldw	r19,24(sp)
 2004a88:	9029883a 	mov	r20,r18
 2004a8c:	00000206 	br	2004a98 <_dtoa_r+0xb60>
 2004a90:	200709c0 	call	200709c <__multadd>
 2004a94:	1021883a 	mov	r16,r2
 2004a98:	a80b883a 	mov	r5,r21
 2004a9c:	8009883a 	mov	r4,r16
 2004aa0:	2003d100 	call	2003d10 <quorem>
 2004aa4:	10800c04 	addi	r2,r2,48
 2004aa8:	90800005 	stb	r2,0(r18)
 2004aac:	94800044 	addi	r18,r18,1
 2004ab0:	9507c83a 	sub	r3,r18,r20
 2004ab4:	000f883a 	mov	r7,zero
 2004ab8:	01800284 	movi	r6,10
 2004abc:	800b883a 	mov	r5,r16
 2004ac0:	e009883a 	mov	r4,fp
 2004ac4:	1cfff216 	blt	r3,r19,2004a90 <__alt_mem_flash+0xfdff3a90>
 2004ac8:	1011883a 	mov	r8,r2
 2004acc:	d8800617 	ldw	r2,24(sp)
 2004ad0:	0082370e 	bge	zero,r2,20053b0 <_dtoa_r+0x1478>
 2004ad4:	d9000717 	ldw	r4,28(sp)
 2004ad8:	0025883a 	mov	r18,zero
 2004adc:	20af883a 	add	r23,r4,r2
 2004ae0:	01800044 	movi	r6,1
 2004ae4:	800b883a 	mov	r5,r16
 2004ae8:	e009883a 	mov	r4,fp
 2004aec:	da001715 	stw	r8,92(sp)
 2004af0:	20078080 	call	2007808 <__lshift>
 2004af4:	a80b883a 	mov	r5,r21
 2004af8:	1009883a 	mov	r4,r2
 2004afc:	d8800915 	stw	r2,36(sp)
 2004b00:	20079500 	call	2007950 <__mcmp>
 2004b04:	da001717 	ldw	r8,92(sp)
 2004b08:	0081800e 	bge	zero,r2,200510c <_dtoa_r+0x11d4>
 2004b0c:	b93fffc3 	ldbu	r4,-1(r23)
 2004b10:	b8bfffc4 	addi	r2,r23,-1
 2004b14:	1007883a 	mov	r3,r2
 2004b18:	01800e44 	movi	r6,57
 2004b1c:	d9c00717 	ldw	r7,28(sp)
 2004b20:	00000506 	br	2004b38 <_dtoa_r+0xc00>
 2004b24:	18ffffc4 	addi	r3,r3,-1
 2004b28:	11c12326 	beq	r2,r7,2004fb8 <_dtoa_r+0x1080>
 2004b2c:	19000003 	ldbu	r4,0(r3)
 2004b30:	102f883a 	mov	r23,r2
 2004b34:	10bfffc4 	addi	r2,r2,-1
 2004b38:	21403fcc 	andi	r5,r4,255
 2004b3c:	2940201c 	xori	r5,r5,128
 2004b40:	297fe004 	addi	r5,r5,-128
 2004b44:	29bff726 	beq	r5,r6,2004b24 <__alt_mem_flash+0xfdff3b24>
 2004b48:	21000044 	addi	r4,r4,1
 2004b4c:	11000005 	stb	r4,0(r2)
 2004b50:	a80b883a 	mov	r5,r21
 2004b54:	e009883a 	mov	r4,fp
 2004b58:	20070740 	call	2007074 <_Bfree>
 2004b5c:	883ea026 	beq	r17,zero,20045e0 <__alt_mem_flash+0xfdff35e0>
 2004b60:	90000426 	beq	r18,zero,2004b74 <_dtoa_r+0xc3c>
 2004b64:	94400326 	beq	r18,r17,2004b74 <_dtoa_r+0xc3c>
 2004b68:	900b883a 	mov	r5,r18
 2004b6c:	e009883a 	mov	r4,fp
 2004b70:	20070740 	call	2007074 <_Bfree>
 2004b74:	880b883a 	mov	r5,r17
 2004b78:	e009883a 	mov	r4,fp
 2004b7c:	20070740 	call	2007074 <_Bfree>
 2004b80:	003e9706 	br	20045e0 <__alt_mem_flash+0xfdff35e0>
 2004b84:	01800044 	movi	r6,1
 2004b88:	d9800e15 	stw	r6,56(sp)
 2004b8c:	003d9606 	br	20041e8 <__alt_mem_flash+0xfdff31e8>
 2004b90:	d8800817 	ldw	r2,32(sp)
 2004b94:	d8c00517 	ldw	r3,20(sp)
 2004b98:	d8000d15 	stw	zero,52(sp)
 2004b9c:	10c5c83a 	sub	r2,r2,r3
 2004ba0:	00c9c83a 	sub	r4,zero,r3
 2004ba4:	d8800815 	stw	r2,32(sp)
 2004ba8:	d9000a15 	stw	r4,40(sp)
 2004bac:	003d9706 	br	200420c <__alt_mem_flash+0xfdff320c>
 2004bb0:	05adc83a 	sub	r22,zero,r22
 2004bb4:	dd800815 	stw	r22,32(sp)
 2004bb8:	002d883a 	mov	r22,zero
 2004bbc:	003d8e06 	br	20041f8 <__alt_mem_flash+0xfdff31f8>
 2004bc0:	d9000517 	ldw	r4,20(sp)
 2004bc4:	200139c0 	call	200139c <__floatsidf>
 2004bc8:	100d883a 	mov	r6,r2
 2004bcc:	180f883a 	mov	r7,r3
 2004bd0:	a009883a 	mov	r4,r20
 2004bd4:	880b883a 	mov	r5,r17
 2004bd8:	200c70c0 	call	200c70c <__eqdf2>
 2004bdc:	103d7126 	beq	r2,zero,20041a4 <__alt_mem_flash+0xfdff31a4>
 2004be0:	d9c00517 	ldw	r7,20(sp)
 2004be4:	39ffffc4 	addi	r7,r7,-1
 2004be8:	d9c00515 	stw	r7,20(sp)
 2004bec:	003d6d06 	br	20041a4 <__alt_mem_flash+0xfdff31a4>
 2004bf0:	dd400a17 	ldw	r21,40(sp)
 2004bf4:	dd000817 	ldw	r20,32(sp)
 2004bf8:	0023883a 	mov	r17,zero
 2004bfc:	003f4806 	br	2004920 <__alt_mem_flash+0xfdff3920>
 2004c00:	10e3c83a 	sub	r17,r2,r3
 2004c04:	9448983a 	sll	r4,r18,r17
 2004c08:	003d3206 	br	20040d4 <__alt_mem_flash+0xfdff30d4>
 2004c0c:	d8000e15 	stw	zero,56(sp)
 2004c10:	003d7506 	br	20041e8 <__alt_mem_flash+0xfdff31e8>
 2004c14:	b005883a 	mov	r2,r22
 2004c18:	003f4506 	br	2004930 <__alt_mem_flash+0xfdff3930>
 2004c1c:	dc000915 	stw	r16,36(sp)
 2004c20:	d9800a17 	ldw	r6,40(sp)
 2004c24:	d9400917 	ldw	r5,36(sp)
 2004c28:	e009883a 	mov	r4,fp
 2004c2c:	20076c80 	call	20076c8 <__pow5mult>
 2004c30:	1021883a 	mov	r16,r2
 2004c34:	003f5a06 	br	20049a0 <__alt_mem_flash+0xfdff39a0>
 2004c38:	01c00044 	movi	r7,1
 2004c3c:	d9c00b15 	stw	r7,44(sp)
 2004c40:	d8802217 	ldw	r2,136(sp)
 2004c44:	0081280e 	bge	zero,r2,20050e8 <_dtoa_r+0x11b0>
 2004c48:	100d883a 	mov	r6,r2
 2004c4c:	1021883a 	mov	r16,r2
 2004c50:	d8800c15 	stw	r2,48(sp)
 2004c54:	d8800615 	stw	r2,24(sp)
 2004c58:	003d8806 	br	200427c <__alt_mem_flash+0xfdff327c>
 2004c5c:	d8800617 	ldw	r2,24(sp)
 2004c60:	00be9b16 	blt	zero,r2,20046d0 <__alt_mem_flash+0xfdff36d0>
 2004c64:	10010f1e 	bne	r2,zero,20050a4 <_dtoa_r+0x116c>
 2004c68:	880b883a 	mov	r5,r17
 2004c6c:	000d883a 	mov	r6,zero
 2004c70:	01d00534 	movhi	r7,16404
 2004c74:	8009883a 	mov	r4,r16
 2004c78:	2000b300 	call	2000b30 <__muldf3>
 2004c7c:	900d883a 	mov	r6,r18
 2004c80:	980f883a 	mov	r7,r19
 2004c84:	1009883a 	mov	r4,r2
 2004c88:	180b883a 	mov	r5,r3
 2004c8c:	200c7940 	call	200c794 <__gedf2>
 2004c90:	002b883a 	mov	r21,zero
 2004c94:	0023883a 	mov	r17,zero
 2004c98:	1000bf16 	blt	r2,zero,2004f98 <_dtoa_r+0x1060>
 2004c9c:	d9802217 	ldw	r6,136(sp)
 2004ca0:	ddc00717 	ldw	r23,28(sp)
 2004ca4:	018c303a 	nor	r6,zero,r6
 2004ca8:	d9800515 	stw	r6,20(sp)
 2004cac:	a80b883a 	mov	r5,r21
 2004cb0:	e009883a 	mov	r4,fp
 2004cb4:	20070740 	call	2007074 <_Bfree>
 2004cb8:	883e4926 	beq	r17,zero,20045e0 <__alt_mem_flash+0xfdff35e0>
 2004cbc:	003fad06 	br	2004b74 <__alt_mem_flash+0xfdff3b74>
 2004cc0:	d9c01117 	ldw	r7,68(sp)
 2004cc4:	3801bc26 	beq	r7,zero,20053b8 <_dtoa_r+0x1480>
 2004cc8:	10810cc4 	addi	r2,r2,1075
 2004ccc:	dd400a17 	ldw	r21,40(sp)
 2004cd0:	dd000817 	ldw	r20,32(sp)
 2004cd4:	003f0a06 	br	2004900 <__alt_mem_flash+0xfdff3900>
 2004cd8:	00800704 	movi	r2,28
 2004cdc:	d9000817 	ldw	r4,32(sp)
 2004ce0:	a0a9883a 	add	r20,r20,r2
 2004ce4:	b0ad883a 	add	r22,r22,r2
 2004ce8:	2089883a 	add	r4,r4,r2
 2004cec:	d9000815 	stw	r4,32(sp)
 2004cf0:	003f5106 	br	2004a38 <__alt_mem_flash+0xfdff3a38>
 2004cf4:	d8c00317 	ldw	r3,12(sp)
 2004cf8:	b8c1fc0e 	bge	r23,r3,20054ec <_dtoa_r+0x15b4>
 2004cfc:	0027883a 	mov	r19,zero
 2004d00:	b805883a 	mov	r2,r23
 2004d04:	003f3e06 	br	2004a00 <__alt_mem_flash+0xfdff3a00>
 2004d08:	880b883a 	mov	r5,r17
 2004d0c:	e009883a 	mov	r4,fp
 2004d10:	000f883a 	mov	r7,zero
 2004d14:	01800284 	movi	r6,10
 2004d18:	200709c0 	call	200709c <__multadd>
 2004d1c:	d9000c17 	ldw	r4,48(sp)
 2004d20:	1023883a 	mov	r17,r2
 2004d24:	0102040e 	bge	zero,r4,2005538 <_dtoa_r+0x1600>
 2004d28:	d9000615 	stw	r4,24(sp)
 2004d2c:	0500050e 	bge	zero,r20,2004d44 <_dtoa_r+0xe0c>
 2004d30:	880b883a 	mov	r5,r17
 2004d34:	a00d883a 	mov	r6,r20
 2004d38:	e009883a 	mov	r4,fp
 2004d3c:	20078080 	call	2007808 <__lshift>
 2004d40:	1023883a 	mov	r17,r2
 2004d44:	9801241e 	bne	r19,zero,20051d8 <_dtoa_r+0x12a0>
 2004d48:	8829883a 	mov	r20,r17
 2004d4c:	d9000617 	ldw	r4,24(sp)
 2004d50:	dcc00717 	ldw	r19,28(sp)
 2004d54:	9480004c 	andi	r18,r18,1
 2004d58:	20bfffc4 	addi	r2,r4,-1
 2004d5c:	9885883a 	add	r2,r19,r2
 2004d60:	d8800415 	stw	r2,16(sp)
 2004d64:	dc800615 	stw	r18,24(sp)
 2004d68:	a80b883a 	mov	r5,r21
 2004d6c:	8009883a 	mov	r4,r16
 2004d70:	2003d100 	call	2003d10 <quorem>
 2004d74:	880b883a 	mov	r5,r17
 2004d78:	8009883a 	mov	r4,r16
 2004d7c:	102f883a 	mov	r23,r2
 2004d80:	20079500 	call	2007950 <__mcmp>
 2004d84:	a80b883a 	mov	r5,r21
 2004d88:	a00d883a 	mov	r6,r20
 2004d8c:	e009883a 	mov	r4,fp
 2004d90:	102d883a 	mov	r22,r2
 2004d94:	20079b00 	call	20079b0 <__mdiff>
 2004d98:	1007883a 	mov	r3,r2
 2004d9c:	10800317 	ldw	r2,12(r2)
 2004da0:	bc800c04 	addi	r18,r23,48
 2004da4:	180b883a 	mov	r5,r3
 2004da8:	10004e1e 	bne	r2,zero,2004ee4 <_dtoa_r+0xfac>
 2004dac:	8009883a 	mov	r4,r16
 2004db0:	d8c01615 	stw	r3,88(sp)
 2004db4:	20079500 	call	2007950 <__mcmp>
 2004db8:	d8c01617 	ldw	r3,88(sp)
 2004dbc:	e009883a 	mov	r4,fp
 2004dc0:	d8801615 	stw	r2,88(sp)
 2004dc4:	180b883a 	mov	r5,r3
 2004dc8:	20070740 	call	2007074 <_Bfree>
 2004dcc:	d8801617 	ldw	r2,88(sp)
 2004dd0:	1000041e 	bne	r2,zero,2004de4 <_dtoa_r+0xeac>
 2004dd4:	d9800317 	ldw	r6,12(sp)
 2004dd8:	3000021e 	bne	r6,zero,2004de4 <_dtoa_r+0xeac>
 2004ddc:	d8c00617 	ldw	r3,24(sp)
 2004de0:	18003726 	beq	r3,zero,2004ec0 <_dtoa_r+0xf88>
 2004de4:	b0002016 	blt	r22,zero,2004e68 <_dtoa_r+0xf30>
 2004de8:	b000041e 	bne	r22,zero,2004dfc <_dtoa_r+0xec4>
 2004dec:	d9000317 	ldw	r4,12(sp)
 2004df0:	2000021e 	bne	r4,zero,2004dfc <_dtoa_r+0xec4>
 2004df4:	d8c00617 	ldw	r3,24(sp)
 2004df8:	18001b26 	beq	r3,zero,2004e68 <_dtoa_r+0xf30>
 2004dfc:	00810716 	blt	zero,r2,200521c <_dtoa_r+0x12e4>
 2004e00:	d8c00417 	ldw	r3,16(sp)
 2004e04:	9d800044 	addi	r22,r19,1
 2004e08:	9c800005 	stb	r18,0(r19)
 2004e0c:	b02f883a 	mov	r23,r22
 2004e10:	98c10626 	beq	r19,r3,200522c <_dtoa_r+0x12f4>
 2004e14:	800b883a 	mov	r5,r16
 2004e18:	000f883a 	mov	r7,zero
 2004e1c:	01800284 	movi	r6,10
 2004e20:	e009883a 	mov	r4,fp
 2004e24:	200709c0 	call	200709c <__multadd>
 2004e28:	1021883a 	mov	r16,r2
 2004e2c:	000f883a 	mov	r7,zero
 2004e30:	01800284 	movi	r6,10
 2004e34:	880b883a 	mov	r5,r17
 2004e38:	e009883a 	mov	r4,fp
 2004e3c:	8d002526 	beq	r17,r20,2004ed4 <_dtoa_r+0xf9c>
 2004e40:	200709c0 	call	200709c <__multadd>
 2004e44:	a00b883a 	mov	r5,r20
 2004e48:	000f883a 	mov	r7,zero
 2004e4c:	01800284 	movi	r6,10
 2004e50:	e009883a 	mov	r4,fp
 2004e54:	1023883a 	mov	r17,r2
 2004e58:	200709c0 	call	200709c <__multadd>
 2004e5c:	1029883a 	mov	r20,r2
 2004e60:	b027883a 	mov	r19,r22
 2004e64:	003fc006 	br	2004d68 <__alt_mem_flash+0xfdff3d68>
 2004e68:	9011883a 	mov	r8,r18
 2004e6c:	00800e0e 	bge	zero,r2,2004ea8 <_dtoa_r+0xf70>
 2004e70:	800b883a 	mov	r5,r16
 2004e74:	01800044 	movi	r6,1
 2004e78:	e009883a 	mov	r4,fp
 2004e7c:	da001715 	stw	r8,92(sp)
 2004e80:	20078080 	call	2007808 <__lshift>
 2004e84:	a80b883a 	mov	r5,r21
 2004e88:	1009883a 	mov	r4,r2
 2004e8c:	1021883a 	mov	r16,r2
 2004e90:	20079500 	call	2007950 <__mcmp>
 2004e94:	da001717 	ldw	r8,92(sp)
 2004e98:	0081960e 	bge	zero,r2,20054f4 <_dtoa_r+0x15bc>
 2004e9c:	00800e44 	movi	r2,57
 2004ea0:	40817026 	beq	r8,r2,2005464 <_dtoa_r+0x152c>
 2004ea4:	ba000c44 	addi	r8,r23,49
 2004ea8:	8825883a 	mov	r18,r17
 2004eac:	9dc00044 	addi	r23,r19,1
 2004eb0:	9a000005 	stb	r8,0(r19)
 2004eb4:	a023883a 	mov	r17,r20
 2004eb8:	dc000915 	stw	r16,36(sp)
 2004ebc:	003f2406 	br	2004b50 <__alt_mem_flash+0xfdff3b50>
 2004ec0:	00800e44 	movi	r2,57
 2004ec4:	9011883a 	mov	r8,r18
 2004ec8:	90816626 	beq	r18,r2,2005464 <_dtoa_r+0x152c>
 2004ecc:	05bff516 	blt	zero,r22,2004ea4 <__alt_mem_flash+0xfdff3ea4>
 2004ed0:	003ff506 	br	2004ea8 <__alt_mem_flash+0xfdff3ea8>
 2004ed4:	200709c0 	call	200709c <__multadd>
 2004ed8:	1023883a 	mov	r17,r2
 2004edc:	1029883a 	mov	r20,r2
 2004ee0:	003fdf06 	br	2004e60 <__alt_mem_flash+0xfdff3e60>
 2004ee4:	e009883a 	mov	r4,fp
 2004ee8:	20070740 	call	2007074 <_Bfree>
 2004eec:	00800044 	movi	r2,1
 2004ef0:	003fbc06 	br	2004de4 <__alt_mem_flash+0xfdff3de4>
 2004ef4:	a80b883a 	mov	r5,r21
 2004ef8:	8009883a 	mov	r4,r16
 2004efc:	20079500 	call	2007950 <__mcmp>
 2004f00:	103edb0e 	bge	r2,zero,2004a70 <__alt_mem_flash+0xfdff3a70>
 2004f04:	800b883a 	mov	r5,r16
 2004f08:	000f883a 	mov	r7,zero
 2004f0c:	01800284 	movi	r6,10
 2004f10:	e009883a 	mov	r4,fp
 2004f14:	200709c0 	call	200709c <__multadd>
 2004f18:	1021883a 	mov	r16,r2
 2004f1c:	d8800517 	ldw	r2,20(sp)
 2004f20:	d8c00b17 	ldw	r3,44(sp)
 2004f24:	10bfffc4 	addi	r2,r2,-1
 2004f28:	d8800515 	stw	r2,20(sp)
 2004f2c:	183f761e 	bne	r3,zero,2004d08 <__alt_mem_flash+0xfdff3d08>
 2004f30:	d9000c17 	ldw	r4,48(sp)
 2004f34:	0101730e 	bge	zero,r4,2005504 <_dtoa_r+0x15cc>
 2004f38:	d9000615 	stw	r4,24(sp)
 2004f3c:	003ed006 	br	2004a80 <__alt_mem_flash+0xfdff3a80>
 2004f40:	00800084 	movi	r2,2
 2004f44:	3081861e 	bne	r6,r2,2005560 <_dtoa_r+0x1628>
 2004f48:	d8000b15 	stw	zero,44(sp)
 2004f4c:	003f3c06 	br	2004c40 <__alt_mem_flash+0xfdff3c40>
 2004f50:	dc000917 	ldw	r16,36(sp)
 2004f54:	003e9206 	br	20049a0 <__alt_mem_flash+0xfdff39a0>
 2004f58:	d9c00317 	ldw	r7,12(sp)
 2004f5c:	00800084 	movi	r2,2
 2004f60:	11fec50e 	bge	r2,r7,2004a78 <__alt_mem_flash+0xfdff3a78>
 2004f64:	d9000617 	ldw	r4,24(sp)
 2004f68:	20013c1e 	bne	r4,zero,200545c <_dtoa_r+0x1524>
 2004f6c:	a80b883a 	mov	r5,r21
 2004f70:	000f883a 	mov	r7,zero
 2004f74:	01800144 	movi	r6,5
 2004f78:	e009883a 	mov	r4,fp
 2004f7c:	200709c0 	call	200709c <__multadd>
 2004f80:	100b883a 	mov	r5,r2
 2004f84:	8009883a 	mov	r4,r16
 2004f88:	102b883a 	mov	r21,r2
 2004f8c:	20079500 	call	2007950 <__mcmp>
 2004f90:	dc000915 	stw	r16,36(sp)
 2004f94:	00bf410e 	bge	zero,r2,2004c9c <__alt_mem_flash+0xfdff3c9c>
 2004f98:	d9c00717 	ldw	r7,28(sp)
 2004f9c:	00800c44 	movi	r2,49
 2004fa0:	38800005 	stb	r2,0(r7)
 2004fa4:	d8800517 	ldw	r2,20(sp)
 2004fa8:	3dc00044 	addi	r23,r7,1
 2004fac:	10800044 	addi	r2,r2,1
 2004fb0:	d8800515 	stw	r2,20(sp)
 2004fb4:	003f3d06 	br	2004cac <__alt_mem_flash+0xfdff3cac>
 2004fb8:	d9800517 	ldw	r6,20(sp)
 2004fbc:	d9c00717 	ldw	r7,28(sp)
 2004fc0:	00800c44 	movi	r2,49
 2004fc4:	31800044 	addi	r6,r6,1
 2004fc8:	d9800515 	stw	r6,20(sp)
 2004fcc:	38800005 	stb	r2,0(r7)
 2004fd0:	003edf06 	br	2004b50 <__alt_mem_flash+0xfdff3b50>
 2004fd4:	d8000b15 	stw	zero,44(sp)
 2004fd8:	003c9f06 	br	2004258 <__alt_mem_flash+0xfdff3258>
 2004fdc:	903e7e1e 	bne	r18,zero,20049d8 <__alt_mem_flash+0xfdff39d8>
 2004fe0:	00800434 	movhi	r2,16
 2004fe4:	10bfffc4 	addi	r2,r2,-1
 2004fe8:	9884703a 	and	r2,r19,r2
 2004fec:	1000ea1e 	bne	r2,zero,2005398 <_dtoa_r+0x1460>
 2004ff0:	9cdffc2c 	andhi	r19,r19,32752
 2004ff4:	9800e826 	beq	r19,zero,2005398 <_dtoa_r+0x1460>
 2004ff8:	d9c00817 	ldw	r7,32(sp)
 2004ffc:	b5800044 	addi	r22,r22,1
 2005000:	04c00044 	movi	r19,1
 2005004:	39c00044 	addi	r7,r7,1
 2005008:	d9c00815 	stw	r7,32(sp)
 200500c:	d8800d17 	ldw	r2,52(sp)
 2005010:	103e721e 	bne	r2,zero,20049dc <__alt_mem_flash+0xfdff39dc>
 2005014:	00800044 	movi	r2,1
 2005018:	003e7906 	br	2004a00 <__alt_mem_flash+0xfdff3a00>
 200501c:	8009883a 	mov	r4,r16
 2005020:	200139c0 	call	200139c <__floatsidf>
 2005024:	d9800f17 	ldw	r6,60(sp)
 2005028:	d9c01017 	ldw	r7,64(sp)
 200502c:	1009883a 	mov	r4,r2
 2005030:	180b883a 	mov	r5,r3
 2005034:	2000b300 	call	2000b30 <__muldf3>
 2005038:	000d883a 	mov	r6,zero
 200503c:	01d00734 	movhi	r7,16412
 2005040:	1009883a 	mov	r4,r2
 2005044:	180b883a 	mov	r5,r3
 2005048:	20002840 	call	2000284 <__adddf3>
 200504c:	047f3034 	movhi	r17,64704
 2005050:	1021883a 	mov	r16,r2
 2005054:	1c63883a 	add	r17,r3,r17
 2005058:	d9000f17 	ldw	r4,60(sp)
 200505c:	d9401017 	ldw	r5,64(sp)
 2005060:	000d883a 	mov	r6,zero
 2005064:	01d00534 	movhi	r7,16404
 2005068:	200c9640 	call	200c964 <__subdf3>
 200506c:	800d883a 	mov	r6,r16
 2005070:	880f883a 	mov	r7,r17
 2005074:	1009883a 	mov	r4,r2
 2005078:	180b883a 	mov	r5,r3
 200507c:	102b883a 	mov	r21,r2
 2005080:	1829883a 	mov	r20,r3
 2005084:	200c7940 	call	200c794 <__gedf2>
 2005088:	00806c16 	blt	zero,r2,200523c <_dtoa_r+0x1304>
 200508c:	89e0003c 	xorhi	r7,r17,32768
 2005090:	800d883a 	mov	r6,r16
 2005094:	a809883a 	mov	r4,r21
 2005098:	a00b883a 	mov	r5,r20
 200509c:	200c8700 	call	200c870 <__ledf2>
 20050a0:	103d7e0e 	bge	r2,zero,200469c <__alt_mem_flash+0xfdff369c>
 20050a4:	002b883a 	mov	r21,zero
 20050a8:	0023883a 	mov	r17,zero
 20050ac:	003efb06 	br	2004c9c <__alt_mem_flash+0xfdff3c9c>
 20050b0:	d8800717 	ldw	r2,28(sp)
 20050b4:	003bd006 	br	2003ff8 <__alt_mem_flash+0xfdff2ff8>
 20050b8:	d9000a17 	ldw	r4,40(sp)
 20050bc:	d9800d17 	ldw	r6,52(sp)
 20050c0:	dd400a15 	stw	r21,40(sp)
 20050c4:	a905c83a 	sub	r2,r21,r4
 20050c8:	308d883a 	add	r6,r6,r2
 20050cc:	d9800d15 	stw	r6,52(sp)
 20050d0:	002b883a 	mov	r21,zero
 20050d4:	003e0606 	br	20048f0 <__alt_mem_flash+0xfdff38f0>
 20050d8:	9023883a 	mov	r17,r18
 20050dc:	9829883a 	mov	r20,r19
 20050e0:	04000084 	movi	r16,2
 20050e4:	003c9206 	br	2004330 <__alt_mem_flash+0xfdff3330>
 20050e8:	04000044 	movi	r16,1
 20050ec:	dc000c15 	stw	r16,48(sp)
 20050f0:	dc000615 	stw	r16,24(sp)
 20050f4:	dc002215 	stw	r16,136(sp)
 20050f8:	e0001115 	stw	zero,68(fp)
 20050fc:	000b883a 	mov	r5,zero
 2005100:	003c6906 	br	20042a8 <__alt_mem_flash+0xfdff32a8>
 2005104:	3021883a 	mov	r16,r6
 2005108:	003ffb06 	br	20050f8 <__alt_mem_flash+0xfdff40f8>
 200510c:	1000021e 	bne	r2,zero,2005118 <_dtoa_r+0x11e0>
 2005110:	4200004c 	andi	r8,r8,1
 2005114:	403e7d1e 	bne	r8,zero,2004b0c <__alt_mem_flash+0xfdff3b0c>
 2005118:	01000c04 	movi	r4,48
 200511c:	00000106 	br	2005124 <_dtoa_r+0x11ec>
 2005120:	102f883a 	mov	r23,r2
 2005124:	b8bfffc4 	addi	r2,r23,-1
 2005128:	10c00007 	ldb	r3,0(r2)
 200512c:	193ffc26 	beq	r3,r4,2005120 <__alt_mem_flash+0xfdff4120>
 2005130:	003e8706 	br	2004b50 <__alt_mem_flash+0xfdff3b50>
 2005134:	d8800517 	ldw	r2,20(sp)
 2005138:	00a3c83a 	sub	r17,zero,r2
 200513c:	8800a426 	beq	r17,zero,20053d0 <_dtoa_r+0x1498>
 2005140:	888003cc 	andi	r2,r17,15
 2005144:	100490fa 	slli	r2,r2,3
 2005148:	00c08074 	movhi	r3,513
 200514c:	18c6ae04 	addi	r3,r3,6840
 2005150:	1885883a 	add	r2,r3,r2
 2005154:	11800017 	ldw	r6,0(r2)
 2005158:	11c00117 	ldw	r7,4(r2)
 200515c:	9009883a 	mov	r4,r18
 2005160:	980b883a 	mov	r5,r19
 2005164:	8823d13a 	srai	r17,r17,4
 2005168:	2000b300 	call	2000b30 <__muldf3>
 200516c:	d8800f15 	stw	r2,60(sp)
 2005170:	d8c01015 	stw	r3,64(sp)
 2005174:	8800e826 	beq	r17,zero,2005518 <_dtoa_r+0x15e0>
 2005178:	05008074 	movhi	r20,513
 200517c:	a506a404 	addi	r20,r20,6800
 2005180:	04000084 	movi	r16,2
 2005184:	8980004c 	andi	r6,r17,1
 2005188:	1009883a 	mov	r4,r2
 200518c:	8823d07a 	srai	r17,r17,1
 2005190:	180b883a 	mov	r5,r3
 2005194:	30000426 	beq	r6,zero,20051a8 <_dtoa_r+0x1270>
 2005198:	a1800017 	ldw	r6,0(r20)
 200519c:	a1c00117 	ldw	r7,4(r20)
 20051a0:	84000044 	addi	r16,r16,1
 20051a4:	2000b300 	call	2000b30 <__muldf3>
 20051a8:	a5000204 	addi	r20,r20,8
 20051ac:	883ff51e 	bne	r17,zero,2005184 <__alt_mem_flash+0xfdff4184>
 20051b0:	d8800f15 	stw	r2,60(sp)
 20051b4:	d8c01015 	stw	r3,64(sp)
 20051b8:	003c7606 	br	2004394 <__alt_mem_flash+0xfdff3394>
 20051bc:	00c00c04 	movi	r3,48
 20051c0:	10c00005 	stb	r3,0(r2)
 20051c4:	d8c00517 	ldw	r3,20(sp)
 20051c8:	bd3fffc3 	ldbu	r20,-1(r23)
 20051cc:	18c00044 	addi	r3,r3,1
 20051d0:	d8c00515 	stw	r3,20(sp)
 20051d4:	003db906 	br	20048bc <__alt_mem_flash+0xfdff38bc>
 20051d8:	89400117 	ldw	r5,4(r17)
 20051dc:	e009883a 	mov	r4,fp
 20051e0:	2006fcc0 	call	2006fcc <_Balloc>
 20051e4:	89800417 	ldw	r6,16(r17)
 20051e8:	89400304 	addi	r5,r17,12
 20051ec:	11000304 	addi	r4,r2,12
 20051f0:	31800084 	addi	r6,r6,2
 20051f4:	318d883a 	add	r6,r6,r6
 20051f8:	318d883a 	add	r6,r6,r6
 20051fc:	1027883a 	mov	r19,r2
 2005200:	2006d5c0 	call	2006d5c <memcpy>
 2005204:	01800044 	movi	r6,1
 2005208:	980b883a 	mov	r5,r19
 200520c:	e009883a 	mov	r4,fp
 2005210:	20078080 	call	2007808 <__lshift>
 2005214:	1029883a 	mov	r20,r2
 2005218:	003ecc06 	br	2004d4c <__alt_mem_flash+0xfdff3d4c>
 200521c:	00800e44 	movi	r2,57
 2005220:	90809026 	beq	r18,r2,2005464 <_dtoa_r+0x152c>
 2005224:	92000044 	addi	r8,r18,1
 2005228:	003f1f06 	br	2004ea8 <__alt_mem_flash+0xfdff3ea8>
 200522c:	9011883a 	mov	r8,r18
 2005230:	8825883a 	mov	r18,r17
 2005234:	a023883a 	mov	r17,r20
 2005238:	003e2906 	br	2004ae0 <__alt_mem_flash+0xfdff3ae0>
 200523c:	002b883a 	mov	r21,zero
 2005240:	0023883a 	mov	r17,zero
 2005244:	003f5406 	br	2004f98 <__alt_mem_flash+0xfdff3f98>
 2005248:	61bfffc4 	addi	r6,r12,-1
 200524c:	300490fa 	slli	r2,r6,3
 2005250:	00c08074 	movhi	r3,513
 2005254:	18c6ae04 	addi	r3,r3,6840
 2005258:	1885883a 	add	r2,r3,r2
 200525c:	11000017 	ldw	r4,0(r2)
 2005260:	11400117 	ldw	r5,4(r2)
 2005264:	d8800717 	ldw	r2,28(sp)
 2005268:	880f883a 	mov	r7,r17
 200526c:	d9801215 	stw	r6,72(sp)
 2005270:	800d883a 	mov	r6,r16
 2005274:	db001615 	stw	r12,88(sp)
 2005278:	15c00044 	addi	r23,r2,1
 200527c:	2000b300 	call	2000b30 <__muldf3>
 2005280:	d9401017 	ldw	r5,64(sp)
 2005284:	d9000f17 	ldw	r4,60(sp)
 2005288:	d8c01515 	stw	r3,84(sp)
 200528c:	d8801415 	stw	r2,80(sp)
 2005290:	200d2600 	call	200d260 <__fixdfsi>
 2005294:	1009883a 	mov	r4,r2
 2005298:	1021883a 	mov	r16,r2
 200529c:	200139c0 	call	200139c <__floatsidf>
 20052a0:	d9000f17 	ldw	r4,60(sp)
 20052a4:	d9401017 	ldw	r5,64(sp)
 20052a8:	100d883a 	mov	r6,r2
 20052ac:	180f883a 	mov	r7,r3
 20052b0:	200c9640 	call	200c964 <__subdf3>
 20052b4:	1829883a 	mov	r20,r3
 20052b8:	d8c00717 	ldw	r3,28(sp)
 20052bc:	84000c04 	addi	r16,r16,48
 20052c0:	1023883a 	mov	r17,r2
 20052c4:	1c000005 	stb	r16,0(r3)
 20052c8:	db001617 	ldw	r12,88(sp)
 20052cc:	00800044 	movi	r2,1
 20052d0:	60802226 	beq	r12,r2,200535c <_dtoa_r+0x1424>
 20052d4:	d9c00717 	ldw	r7,28(sp)
 20052d8:	8805883a 	mov	r2,r17
 20052dc:	b82b883a 	mov	r21,r23
 20052e0:	3b19883a 	add	r12,r7,r12
 20052e4:	6023883a 	mov	r17,r12
 20052e8:	a007883a 	mov	r3,r20
 20052ec:	dc800f15 	stw	r18,60(sp)
 20052f0:	000d883a 	mov	r6,zero
 20052f4:	01d00934 	movhi	r7,16420
 20052f8:	1009883a 	mov	r4,r2
 20052fc:	180b883a 	mov	r5,r3
 2005300:	2000b300 	call	2000b30 <__muldf3>
 2005304:	180b883a 	mov	r5,r3
 2005308:	1009883a 	mov	r4,r2
 200530c:	1829883a 	mov	r20,r3
 2005310:	1025883a 	mov	r18,r2
 2005314:	200d2600 	call	200d260 <__fixdfsi>
 2005318:	1009883a 	mov	r4,r2
 200531c:	1021883a 	mov	r16,r2
 2005320:	200139c0 	call	200139c <__floatsidf>
 2005324:	100d883a 	mov	r6,r2
 2005328:	180f883a 	mov	r7,r3
 200532c:	9009883a 	mov	r4,r18
 2005330:	a00b883a 	mov	r5,r20
 2005334:	84000c04 	addi	r16,r16,48
 2005338:	200c9640 	call	200c964 <__subdf3>
 200533c:	ad400044 	addi	r21,r21,1
 2005340:	ac3fffc5 	stb	r16,-1(r21)
 2005344:	ac7fea1e 	bne	r21,r17,20052f0 <__alt_mem_flash+0xfdff42f0>
 2005348:	1023883a 	mov	r17,r2
 200534c:	d8801217 	ldw	r2,72(sp)
 2005350:	dc800f17 	ldw	r18,60(sp)
 2005354:	1829883a 	mov	r20,r3
 2005358:	b8af883a 	add	r23,r23,r2
 200535c:	d9001417 	ldw	r4,80(sp)
 2005360:	d9401517 	ldw	r5,84(sp)
 2005364:	000d883a 	mov	r6,zero
 2005368:	01cff834 	movhi	r7,16352
 200536c:	20002840 	call	2000284 <__adddf3>
 2005370:	880d883a 	mov	r6,r17
 2005374:	a00f883a 	mov	r7,r20
 2005378:	1009883a 	mov	r4,r2
 200537c:	180b883a 	mov	r5,r3
 2005380:	200c8700 	call	200c870 <__ledf2>
 2005384:	10003e0e 	bge	r2,zero,2005480 <_dtoa_r+0x1548>
 2005388:	d9001317 	ldw	r4,76(sp)
 200538c:	bd3fffc3 	ldbu	r20,-1(r23)
 2005390:	d9000515 	stw	r4,20(sp)
 2005394:	003d3b06 	br	2004884 <__alt_mem_flash+0xfdff3884>
 2005398:	0027883a 	mov	r19,zero
 200539c:	003f1b06 	br	200500c <__alt_mem_flash+0xfdff400c>
 20053a0:	d8800817 	ldw	r2,32(sp)
 20053a4:	11e9c83a 	sub	r20,r2,r7
 20053a8:	0005883a 	mov	r2,zero
 20053ac:	003d5406 	br	2004900 <__alt_mem_flash+0xfdff3900>
 20053b0:	00800044 	movi	r2,1
 20053b4:	003dc706 	br	2004ad4 <__alt_mem_flash+0xfdff3ad4>
 20053b8:	d8c00217 	ldw	r3,8(sp)
 20053bc:	00800d84 	movi	r2,54
 20053c0:	dd400a17 	ldw	r21,40(sp)
 20053c4:	10c5c83a 	sub	r2,r2,r3
 20053c8:	dd000817 	ldw	r20,32(sp)
 20053cc:	003d4c06 	br	2004900 <__alt_mem_flash+0xfdff3900>
 20053d0:	dc800f15 	stw	r18,60(sp)
 20053d4:	dcc01015 	stw	r19,64(sp)
 20053d8:	04000084 	movi	r16,2
 20053dc:	003bed06 	br	2004394 <__alt_mem_flash+0xfdff3394>
 20053e0:	d9000617 	ldw	r4,24(sp)
 20053e4:	203f0d26 	beq	r4,zero,200501c <__alt_mem_flash+0xfdff401c>
 20053e8:	d9800c17 	ldw	r6,48(sp)
 20053ec:	01bcab0e 	bge	zero,r6,200469c <__alt_mem_flash+0xfdff369c>
 20053f0:	d9401017 	ldw	r5,64(sp)
 20053f4:	d9000f17 	ldw	r4,60(sp)
 20053f8:	000d883a 	mov	r6,zero
 20053fc:	01d00934 	movhi	r7,16420
 2005400:	2000b300 	call	2000b30 <__muldf3>
 2005404:	81000044 	addi	r4,r16,1
 2005408:	d8800f15 	stw	r2,60(sp)
 200540c:	d8c01015 	stw	r3,64(sp)
 2005410:	200139c0 	call	200139c <__floatsidf>
 2005414:	d9800f17 	ldw	r6,60(sp)
