
nios.elf:     file format elf32-littlenios2
nios.elf
architecture: nios2:r1, flags 0x00000112:
EXEC_P, HAS_SYMS, D_PAGED
start address 0x02000000

Program Header:
    LOAD off    0x00001020 vaddr 0x00000020 paddr 0x00000020 align 2**12
         filesz 0x00000210 memsz 0x00000210 flags r-x
    LOAD off    0x00002000 vaddr 0x02000000 paddr 0x02000000 align 2**12
         filesz 0x00013828 memsz 0x00013988 flags rwx
    LOAD off    0x00016000 vaddr 0x04001000 paddr 0x04001000 align 2**12
         filesz 0x00000000 memsz 0x00000000 flags r-x

Sections:
Idx Name          Size      VMA       LMA       File off  Algn
  0 .entry        00000000  04001000  04001000  00016000  2**5
                  CONTENTS, ALLOC, LOAD, READONLY, CODE
  1 .exceptions   00000210  00000020  00000020  00001020  2**2
                  CONTENTS, ALLOC, LOAD, READONLY, CODE
  2 .text         00011820  02000000  02000000  00002000  2**2
                  CONTENTS, ALLOC, LOAD, READONLY, CODE
  3 .rodata       00000358  02011820  02011820  00013820  2**2
                  CONTENTS, ALLOC, LOAD, READONLY, DATA
  4 .rwdata       00001cb0  02011b78  02011b78  00013b78  2**2
                  CONTENTS, ALLOC, LOAD, DATA, SMALL_DATA
  5 .bss          00000160  02013828  02013828  00015828  2**2
                  ALLOC, SMALL_DATA
  6 .onchip       00000000  00000230  00000230  00016000  2**0
                  CONTENTS
  7 .sdram        00000000  02013988  02013988  00016000  2**0
                  CONTENTS
  8 .flash        00000000  04001020  04001020  00016000  2**0
                  CONTENTS
  9 .comment      00000023  00000000  00000000  00016000  2**0
                  CONTENTS, READONLY
 10 .debug_aranges 00000fe0  00000000  00000000  00016028  2**3
                  CONTENTS, READONLY, DEBUGGING
 11 .debug_info   0002775d  00000000  00000000  00017008  2**0
                  CONTENTS, READONLY, DEBUGGING
 12 .debug_abbrev 0000a006  00000000  00000000  0003e765  2**0
                  CONTENTS, READONLY, DEBUGGING
 13 .debug_line   0000c674  00000000  00000000  0004876b  2**0
                  CONTENTS, READONLY, DEBUGGING
 14 .debug_frame  00002738  00000000  00000000  00054de0  2**2
                  CONTENTS, READONLY, DEBUGGING
 15 .debug_str    00004063  00000000  00000000  00057518  2**0
                  CONTENTS, READONLY, DEBUGGING
 16 .debug_loc    00017c54  00000000  00000000  0005b57b  2**0
                  CONTENTS, READONLY, DEBUGGING
 17 .debug_alt_sim_info 00000040  00000000  00000000  000731d0  2**2
                  CONTENTS, READONLY, DEBUGGING
 18 .debug_ranges 00001920  00000000  00000000  00073210  2**3
                  CONTENTS, READONLY, DEBUGGING
 19 .thread_model 00000003  00000000  00000000  0007825e  2**0
                  CONTENTS, READONLY
 20 .cpu          00000004  00000000  00000000  00078261  2**0
                  CONTENTS, READONLY
 21 .qsys         00000001  00000000  00000000  00078265  2**0
                  CONTENTS, READONLY
 22 .simulation_enabled 00000001  00000000  00000000  00078266  2**0
                  CONTENTS, READONLY
 23 .sysid_hash   00000004  00000000  00000000  00078267  2**0
                  CONTENTS, READONLY
 24 .sysid_base   00000004  00000000  00000000  0007826b  2**0
                  CONTENTS, READONLY
 25 .sysid_time   00000004  00000000  00000000  0007826f  2**0
                  CONTENTS, READONLY
 26 .stderr_dev   00000004  00000000  00000000  00078273  2**0
                  CONTENTS, READONLY
 27 .stdin_dev    0000000b  00000000  00000000  00078277  2**0
                  CONTENTS, READONLY
 28 .stdout_dev   0000000b  00000000  00000000  00078282  2**0
                  CONTENTS, READONLY
 29 .sopc_system_name 00000005  00000000  00000000  0007828d  2**0
                  CONTENTS, READONLY
 30 .quartus_project_dir 0000002d  00000000  00000000  00078292  2**0
                  CONTENTS, READONLY
 31 .jdi          00004940  00000000  00000000  000782bf  2**0
                  CONTENTS, READONLY
 32 .sopcinfo     00061b04  00000000  00000000  0007cbff  2**0
                  CONTENTS, READONLY
SYMBOL TABLE:
04001000 l    d  .entry	00000000 .entry
00000020 l    d  .exceptions	00000000 .exceptions
02000000 l    d  .text	00000000 .text
02011820 l    d  .rodata	00000000 .rodata
02011b78 l    d  .rwdata	00000000 .rwdata
02013828 l    d  .bss	00000000 .bss
00000230 l    d  .onchip	00000000 .onchip
02013988 l    d  .sdram	00000000 .sdram
04001020 l    d  .flash	00000000 .flash
00000000 l    d  .comment	00000000 .comment
00000000 l    d  .debug_aranges	00000000 .debug_aranges
00000000 l    d  .debug_info	00000000 .debug_info
00000000 l    d  .debug_abbrev	00000000 .debug_abbrev
00000000 l    d  .debug_line	00000000 .debug_line
00000000 l    d  .debug_frame	00000000 .debug_frame
00000000 l    d  .debug_str	00000000 .debug_str
00000000 l    d  .debug_loc	00000000 .debug_loc
00000000 l    d  .debug_alt_sim_info	00000000 .debug_alt_sim_info
00000000 l    d  .debug_ranges	00000000 .debug_ranges
00000000 l    df *ABS*	00000000 ../nios_bsp//obj/HAL/src/crt0.o
02000034 l       .text	00000000 alt_after_alt_main
00000000 l    df *ABS*	00000000 alt_irq_handler.c
00000000 l    df *ABS*	00000000 alt_instruction_exception_entry.c
00000000 l    df *ABS*	00000000 main.c
00000000 l    df *ABS*	00000000 muldf3.c
00000000 l    df *ABS*	00000000 subdf3.c
00000000 l    df *ABS*	00000000 fixdfsi.c
00000000 l    df *ABS*	00000000 floatunsidf.c
00000000 l    df *ABS*	00000000 libgcc2.c
00000000 l    df *ABS*	00000000 lib2-mul.c
00000000 l    df *ABS*	00000000 libgcc2.c
00000000 l    df *ABS*	00000000 fprintf.c
00000000 l    df *ABS*	00000000 fputc.c
00000000 l    df *ABS*	00000000 impure.c
02011b78 l     O .rwdata	00000424 impure_data
00000000 l    df *ABS*	00000000 putc.c
00000000 l    df *ABS*	00000000 puts.c
00000000 l    df *ABS*	00000000 strlen.c
00000000 l    df *ABS*	00000000 vfprintf.c
02011992 l     O .rodata	00000010 zeroes.4404
02003b40 l     F .text	000000bc __sbprintf
020119a2 l     O .rodata	00000010 blanks.4403
00000000 l    df *ABS*	00000000 wbuf.c
00000000 l    df *ABS*	00000000 wsetup.c
00000000 l    df *ABS*	00000000 dtoa.c
02003ea8 l     F .text	00000228 quorem
00000000 l    df *ABS*	00000000 fflush.c
00000000 l    df *ABS*	00000000 findfp.c
02005a00 l     F .text	00000008 __fp_unlock
02005a14 l     F .text	0000019c __sinit.part.1
02005bb0 l     F .text	00000008 __fp_lock
00000000 l    df *ABS*	00000000 mallocr.c
00000000 l    df *ABS*	00000000 fvwrite.c
00000000 l    df *ABS*	00000000 fwalk.c
00000000 l    df *ABS*	00000000 locale.c
02011fbc l     O .rwdata	00000020 lc_ctype_charset
02011f9c l     O .rwdata	00000020 lc_message_charset
02011fdc l     O .rwdata	00000038 lconv
00000000 l    df *ABS*	00000000 makebuf.c
00000000 l    df *ABS*	00000000 mallocr.c
00000000 l    df *ABS*	00000000 memchr.c
00000000 l    df *ABS*	00000000 memcpy.c
00000000 l    df *ABS*	00000000 memmove.c
00000000 l    df *ABS*	00000000 memset.c
00000000 l    df *ABS*	00000000 mprec.c
020119d0 l     O .rodata	0000000c p05.2768
00000000 l    df *ABS*	00000000 mallocr.c
00000000 l    df *ABS*	00000000 s_fpclassify.c
00000000 l    df *ABS*	00000000 sbrkr.c
00000000 l    df *ABS*	00000000 stdio.c
00000000 l    df *ABS*	00000000 strcmp.c
00000000 l    df *ABS*	00000000 vfprintf.c
02009084 l     F .text	000000fc __sprint_r.part.0
02011af4 l     O .rodata	00000010 zeroes.4349
0200a6c0 l     F .text	000000bc __sbprintf
02011b04 l     O .rodata	00000010 blanks.4348
00000000 l    df *ABS*	00000000 writer.c
00000000 l    df *ABS*	00000000 closer.c
00000000 l    df *ABS*	00000000 mallocr.c
00000000 l    df *ABS*	00000000 fclose.c
00000000 l    df *ABS*	00000000 fputwc.c
00000000 l    df *ABS*	00000000 fstatr.c
00000000 l    df *ABS*	00000000 int_errno.c
00000000 l    df *ABS*	00000000 isattyr.c
00000000 l    df *ABS*	00000000 lseekr.c
00000000 l    df *ABS*	00000000 readr.c
00000000 l    df *ABS*	00000000 wcrtomb.c
00000000 l    df *ABS*	00000000 wctomb_r.c
00000000 l    df *ABS*	00000000 libgcc2.c
00000000 l    df *ABS*	00000000 libgcc2.c
00000000 l    df *ABS*	00000000 lib2-divmod.c
00000000 l    df *ABS*	00000000 adddf3.c
00000000 l    df *ABS*	00000000 divdf3.c
00000000 l    df *ABS*	00000000 eqdf2.c
00000000 l    df *ABS*	00000000 gedf2.c
00000000 l    df *ABS*	00000000 ledf2.c
00000000 l    df *ABS*	00000000 floatsidf.c
00000000 l    df *ABS*	00000000 alt_close.c
0200d294 l     F .text	0000003c alt_get_errno
00000000 l    df *ABS*	00000000 alt_dev.c
0200d3a8 l     F .text	0000002c alt_dev_null_write
00000000 l    df *ABS*	00000000 alt_errno.c
00000000 l    df *ABS*	00000000 alt_fstat.c
0200d3d4 l     F .text	0000003c alt_get_errno
00000000 l    df *ABS*	00000000 alt_isatty.c
0200d4c8 l     F .text	0000003c alt_get_errno
00000000 l    df *ABS*	00000000 alt_lseek.c
0200d5b0 l     F .text	0000003c alt_get_errno
00000000 l    df *ABS*	00000000 alt_main.c
00000000 l    df *ABS*	00000000 alt_malloc_lock.c
00000000 l    df *ABS*	00000000 alt_read.c
0200d78c l     F .text	0000003c alt_get_errno
00000000 l    df *ABS*	00000000 alt_release_fd.c
00000000 l    df *ABS*	00000000 alt_sbrk.c
02013810 l     O .rwdata	00000004 heap_end
00000000 l    df *ABS*	00000000 alt_usleep.c
00000000 l    df *ABS*	00000000 alt_write.c
0200da30 l     F .text	0000003c alt_get_errno
00000000 l    df *ABS*	00000000 alt_sys_init.c
0200db6c l     F .text	00000034 alt_dev_reg
020125c4 l     O .rwdata	000000cc flash
02012690 l     O .rwdata	00001060 jtag_uart_0
020136f0 l     O .rwdata	000000c4 uart
020137b4 l     O .rwdata	0000002c adc
00000000 l    df *ABS*	00000000 altera_avalon_epcs_flash_controller.c
0200dc5c l     F .text	00000034 alt_flash_device_register
0200dce4 l     F .text	000003f8 alt_epcs_flash_query
0200e0dc l     F .text	000000ec alt_epcs_flash_memcmp
0200e4b4 l     F .text	00000094 alt_epcs_test_address
00000000 l    df *ABS*	00000000 altera_avalon_jtag_uart_fd.c
00000000 l    df *ABS*	00000000 altera_avalon_jtag_uart_init.c
0200e97c l     F .text	0000020c altera_avalon_jtag_uart_irq
0200eb88 l     F .text	000000a0 altera_avalon_jtag_uart_timeout
00000000 l    df *ABS*	00000000 altera_avalon_jtag_uart_ioctl.c
00000000 l    df *ABS*	00000000 altera_avalon_jtag_uart_read.c
00000000 l    df *ABS*	00000000 altera_avalon_jtag_uart_write.c
00000000 l    df *ABS*	00000000 altera_avalon_uart_fd.c
00000000 l    df *ABS*	00000000 altera_avalon_uart_init.c
0200f3c0 l     F .text	0000009c altera_avalon_uart_irq
0200f45c l     F .text	000000e4 altera_avalon_uart_rxirq
0200f540 l     F .text	00000148 altera_avalon_uart_txirq
00000000 l    df *ABS*	00000000 altera_avalon_uart_read.c
0200f6dc l     F .text	0000003c alt_get_errno
00000000 l    df *ABS*	00000000 altera_avalon_uart_write.c
0200f8f4 l     F .text	0000003c alt_get_errno
00000000 l    df *ABS*	00000000 altera_up_avalon_adc.c
00000000 l    df *ABS*	00000000 epcs_commands.c
0200fc8c l     F .text	00000038 epcs_test_wip
0200fcc4 l     F .text	0000003c epcs_await_wip_released
00000000 l    df *ABS*	00000000 alt_alarm_start.c
00000000 l    df *ABS*	00000000 alt_busy_sleep.c
00000000 l    df *ABS*	00000000 alt_dev_llist_insert.c
020104f0 l     F .text	0000003c alt_get_errno
00000000 l    df *ABS*	00000000 alt_do_ctors.c
00000000 l    df *ABS*	00000000 alt_do_dtors.c
00000000 l    df *ABS*	00000000 alt_find_dev.c
00000000 l    df *ABS*	00000000 alt_flash_dev.c
00000000 l    df *ABS*	00000000 alt_iic.c
00000000 l    df *ABS*	00000000 alt_iic_isr_register.c
00000000 l    df *ABS*	00000000 alt_io_redirect.c
02010a7c l     F .text	000000e4 alt_open_fd
00000000 l    df *ABS*	00000000 alt_irq_vars.c
00000000 l    df *ABS*	00000000 alt_open.c
02010bdc l     F .text	0000003c alt_get_errno
02010c18 l     F .text	000000ec alt_file_locked
00000000 l    df *ABS*	00000000 alt_tick.c
00000000 l    df *ABS*	00000000 altera_nios2_gen2_irq.c
00000000 l    df *ABS*	00000000 altera_avalon_spi.c
00000000 l    df *ABS*	00000000 alt_find_file.c
00000000 l    df *ABS*	00000000 alt_get_fd.c
00000000 l    df *ABS*	00000000 atexit.c
00000000 l    df *ABS*	00000000 exit.c
00000000 l    df *ABS*	00000000 memcmp.c
00000000 l    df *ABS*	00000000 __atexit.c
00000000 l    df *ABS*	00000000 __call_atexit.c
00000000 l    df *ABS*	00000000 alt_exit.c
0201385c g     O .bss	00000004 alt_instruction_exception_handler
020086c8 g     F .text	00000074 _mprec_log10
0200e428 g     F .text	0000008c alt_epcs_flash_get_info
020087b4 g     F .text	0000008c __any_on
0200ac74 g     F .text	00000054 _isatty_r
020119dc g     O .rodata	00000028 __mprec_tinytens
0200d6c8 g     F .text	0000007c alt_main
020016dc g     F .text	000000c0 _puts_r
02013888 g     O .bss	00000100 alt_irq
0200acc8 g     F .text	00000060 _lseek_r
0200cf60 g     F .text	00000088 .hidden __eqdf2
02013988 g       *ABS*	00000000 __alt_heap_start
0200ad88 g     F .text	0000009c _wcrtomb_r
02008f44 g     F .text	0000005c __sseek
02005d60 g     F .text	00000010 __sinit
02003bfc g     F .text	00000140 __swbuf_r
02006834 g     F .text	0000007c _setlocale_r
02005bb8 g     F .text	00000078 __sfmoreglue
04001000 g       *ABS*	00000000 __alt_mem_flash
0200d768 g     F .text	00000024 __malloc_unlock
02007504 g     F .text	0000015c memmove
02005d48 g     F .text	00000018 _cleanup
02007788 g     F .text	000000a8 _Balloc
0200cfe8 g     F .text	000000dc .hidden __gtdf2
02011004 g     F .text	00000024 altera_nios2_gen2_irq_init
0200fd00 g     F .text	000000fc epcs_sector_erase
04001000 g     F .entry	00000000 __reset
0200ac18 g     F .text	0000005c _fstat_r
02013840 g     O .bss	00000004 errno
02008ec0 g     F .text	00000008 __seofread
02013848 g     O .bss	00000004 alt_argv
0201b7e0 g       *ABS*	00000000 _gp
0200da00 g     F .text	00000030 usleep
02012444 g     O .rwdata	00000180 alt_fd_list
0200ff44 g     F .text	0000006c epcs_write_status_register
02010690 g     F .text	00000090 alt_find_dev
020073bc g     F .text	00000148 memcpy
02005a08 g     F .text	0000000c _cleanup_r
0200d1b8 g     F .text	000000dc .hidden __floatsidf
02010b60 g     F .text	0000007c alt_io_redirect
0200d0c4 g     F .text	000000f4 .hidden __ltdf2
02011820 g       *ABS*	00000000 __DTOR_END__
0200179c g     F .text	00000014 puts
020113f0 g     F .text	0000009c alt_exception_cause_generated_bad_addr
0200e5c0 g     F .text	00000100 alt_epcs_flash_write_block
02008da4 g     F .text	00000074 __fpclassifyd
02008624 g     F .text	000000a4 __ratio
0200a6a4 g     F .text	0000001c __vfiprintf_internal
0200ed80 g     F .text	0000021c altera_avalon_jtag_uart_read
0200bc28 g     F .text	00000064 .hidden __udivsi3
0200d504 g     F .text	000000ac isatty
02011a2c g     O .rodata	000000c8 __mprec_tens
020068b0 g     F .text	0000000c __locale_charset
0201383c g     O .bss	00000004 __malloc_top_pad
020137e8 g     O .rwdata	00000004 __mb_cur_max
020068e0 g     F .text	0000000c _localeconv_r
02007bbc g     F .text	0000003c __i2b
020061e4 g     F .text	000004c8 __sfvwrite_r
02008e18 g     F .text	00000054 _sbrk_r
0200ad28 g     F .text	00000060 _read_r
02013808 g     O .rwdata	00000004 alt_max_fd
0200a90c g     F .text	000000f0 _fclose_r
020059d0 g     F .text	00000030 fflush
02013838 g     O .bss	00000004 __malloc_max_sbrked_mem
0200bce4 g     F .text	000008ac .hidden __adddf3
0200e548 g     F .text	00000078 alt_epcs_flash_erase_block
020083cc g     F .text	0000010c __b2d
0200b56c g     F .text	000005c4 .hidden __umoddi3
0200d5ec g     F .text	000000dc lseek
020137e0 g     O .rwdata	00000004 _global_impure_ptr
02010210 g     F .text	0000005c epcs_exit_4_bytes_mode
02008840 g     F .text	00000564 _realloc_r
02013988 g       *ABS*	00000000 __bss_end
0201098c g     F .text	000000f0 alt_iic_isr_register
0200fadc g     F .text	0000003c alt_up_adc_open_dev
02010efc g     F .text	00000108 alt_tick
0200af70 g     F .text	000005fc .hidden __udivdi3
0200ab74 g     F .text	00000024 _fputwc_r
02011a04 g     O .rodata	00000028 __mprec_bigtens
020079a0 g     F .text	00000104 __s2b
02001354 g     F .text	000000a8 .hidden __floatunsidf
0200810c g     F .text	00000060 __mcmp
0200f314 g     F .text	000000ac altera_avalon_uart_init
02005d80 g     F .text	00000018 __fp_lock_all
02010940 g     F .text	0000004c alt_ic_irq_enabled
02010e60 g     F .text	0000009c alt_alarm_stop
02013850 g     O .bss	00000004 alt_irq_active
000000fc g     F .exceptions	000000d4 alt_irq_handler
0201241c g     O .rwdata	00000028 alt_dev_null
02007aa4 g     F .text	00000068 __hi0bits
020012d4 g     F .text	00000080 .hidden __fixdfsi
02013800 g     O .rwdata	00000008 alt_dev_list
020014d4 g     F .text	00000044 _fputc_r
0200da6c g     F .text	00000100 write
02001574 g     F .text	000000a0 _putc_r
0200d410 g     F .text	000000b8 fstat
020014b0 g     F .text	00000024 fprintf
0200d0c4 g     F .text	000000f4 .hidden __ledf2
02007e84 g     F .text	00000140 __pow5mult
02009198 g     F .text	0000150c ___vfiprintf_internal_r
02013830 g     O .bss	00000004 __nlocale_changed
0200bc8c g     F .text	00000058 .hidden __umodsi3
020100cc g     F .text	00000068 epcs_read_electronic_signature
02013988 g       *ABS*	00000000 end
0200f930 g     F .text	000001ac altera_avalon_uart_write
0200e8bc g     F .text	000000c0 altera_avalon_jtag_uart_init
000001d0 g     F .exceptions	00000060 alt_instruction_exception_entry
02011820 g       *ABS*	00000000 __CTOR_LIST__
04000000 g       *ABS*	00000000 __alt_stack_pointer
0200f264 g     F .text	00000060 altera_avalon_uart_write_fd
020013fc g     F .text	00000064 .hidden __clzsi2
0200f2c4 g     F .text	00000050 altera_avalon_uart_close_fd
0200ef9c g     F .text	00000268 altera_avalon_jtag_uart_write
02005d70 g     F .text	00000004 __sfp_lock_acquire
020072d8 g     F .text	000000e4 memchr
02001848 g     F .text	000022dc ___vfprintf_internal_r
02005ed4 g     F .text	00000310 _free_r
020068bc g     F .text	00000010 __locale_mb_cur_max
0201166c g     F .text	00000180 __call_exitprocs
0201382c g     O .bss	00000004 __mlocale_changed
020137ec g     O .rwdata	00000004 __malloc_sbrk_base
02000000 g     F .text	00000038 _start
02013854 g     O .bss	00000004 _alt_tick_rate
02007fc4 g     F .text	00000148 __lshift
02011028 g     F .text	000001fc alt_avalon_spi_command
02013858 g     O .bss	00000004 _alt_nticks
0200d7c8 g     F .text	00000104 read
0200dbd8 g     F .text	00000084 alt_sys_init
02011554 g     F .text	00000118 __register_exitproc
02007bf8 g     F .text	0000028c __multiply
0200ec28 g     F .text	00000068 altera_avalon_jtag_uart_close
02001460 g     F .text	00000028 .hidden __mulsi3
02013860 g     O .bss	00000028 __malloc_current_mallinfo
020084d8 g     F .text	0000014c __d2b
0200fc30 g     F .text	0000005c epcs_read_status_register
0200e758 g     F .text	00000060 altera_avalon_jtag_uart_read_fd
0201132c g     F .text	000000c4 alt_get_fd
02010398 g     F .text	00000158 alt_busy_sleep
0200a7dc g     F .text	00000054 _close_r
02010134 g     F .text	00000080 epcs_read_device_id
020114d8 g     F .text	0000007c memcmp
0200e818 g     F .text	00000050 altera_avalon_jtag_uart_close_fd
02013988 g       *ABS*	00000000 __alt_stack_base
0200e868 g     F .text	00000054 altera_avalon_jtag_uart_ioctl_fd
02003d54 g     F .text	00000154 __swsetup_r
0200c590 g     F .text	000009d0 .hidden __divdf3
02005c30 g     F .text	00000118 __sfp
0200873c g     F .text	00000078 __copybits
02012014 g     O .rwdata	00000408 __malloc_av_
02005d7c g     F .text	00000004 __sinit_lock_release
0200016c g     F .text	0000086c .hidden __muldf3
02008e6c g     F .text	00000054 __sread
02011224 g     F .text	00000108 alt_find_file
0201052c g     F .text	000000a4 alt_dev_llist_insert
0200d744 g     F .text	00000024 __malloc_lock
02001488 g     F .text	00000028 _fprintf_r
0200d950 g     F .text	000000b0 sbrk
02005974 g     F .text	0000005c _fflush_r
0200a830 g     F .text	000000dc _calloc_r
02013814 g     O .rwdata	00000008 alt_flash_dev_list
02013828 g       *ABS*	00000000 __bss_start
02007660 g     F .text	00000128 memset
02000038 g     F .text	00000134 main
0201384c g     O .bss	00000004 alt_envp
02013834 g     O .bss	00000004 __malloc_max_total_mem
0200e7b8 g     F .text	00000060 altera_avalon_jtag_uart_write_fd
02003d3c g     F .text	00000018 __swbuf
02008fa0 g     F .text	00000008 __sclose
04000000 g       *ABS*	00000000 __alt_heap_limit
0200a9fc g     F .text	00000014 fclose
020040d0 g     F .text	00001688 _dtoa_r
02006acc g     F .text	0000080c _malloc_r
0200aee4 g     F .text	00000030 __ascii_wctomb
0201380c g     O .rwdata	00000004 alt_errno
0200fb18 g     F .text	00000118 alt_up_adc_read
020066ac g     F .text	000000c4 _fwalk
02001614 g     F .text	000000c8 putc
0200bb30 g     F .text	00000084 .hidden __divsi3
02005db0 g     F .text	00000124 _malloc_trim_r
02011820 g       *ABS*	00000000 __CTOR_END__
0200e1c8 g     F .text	00000260 alt_epcs_flash_write
02008fa8 g     F .text	000000dc strcmp
02011820 g       *ABS*	00000000 __DTOR_LIST__
0200cf60 g     F .text	00000088 .hidden __nedf2
0200dba0 g     F .text	00000038 alt_irq_init
0200d8cc g     F .text	00000084 alt_release_fd
02011845 g     O .rodata	00000100 .hidden __clz_tab
02013828 g     O .bss	00000004 _PathLocale
0201148c g     F .text	00000014 atexit
0200a77c g     F .text	00000060 _write_r
020068ec g     F .text	00000018 setlocale
020137e4 g     O .rwdata	00000004 _impure_ptr
02013844 g     O .bss	00000004 alt_argc
02005758 g     F .text	0000021c __sflush_r
02010630 g     F .text	00000060 _do_dtors
020068d8 g     F .text	00000008 __locale_cjk_lang
00000020 g       .exceptions	00000000 alt_irq_entry
02008368 g     F .text	00000064 __ulp
02005d98 g     F .text	00000018 __fp_unlock_all
02001518 g     F .text	0000005c fputc
020137f8 g     O .rwdata	00000008 alt_fs_list
02006904 g     F .text	0000000c localeconv
0200fdfc g     F .text	000000f4 epcs_read_buffer
0200dc90 g     F .text	00000054 alt_epcs_flash_init
020107dc g     F .text	00000050 alt_ic_isr_register
02013828 g       *ABS*	00000000 _edata
0200f204 g     F .text	00000060 altera_avalon_uart_read_fd
02013988 g       *ABS*	00000000 _end
02010720 g     F .text	00000068 alt_flash_open_dev
0200aa10 g     F .text	00000164 __fputwc
0200ec90 g     F .text	000000f0 altera_avalon_jtag_uart_ioctl
020108b4 g     F .text	0000008c alt_ic_irq_disable
020101b4 g     F .text	0000005c epcs_enter_4_bytes_mode
02008ec8 g     F .text	0000007c __swrite
020137f0 g     O .rwdata	00000004 __malloc_trim_threshold
020068cc g     F .text	0000000c __locale_msgcharset
00000000 g       *ABS*	00000000 __alt_mem_onchip
020114a0 g     F .text	00000038 exit
02006770 g     F .text	000000c4 _fwalk_reent
0200816c g     F .text	000001fc __mdiff
02010788 g     F .text	00000054 alt_flash_close_dev
0200bbb4 g     F .text	00000074 .hidden __modsi3
04000000 g       *ABS*	00000000 __alt_data_end
00000020 g     F .exceptions	00000000 alt_exception
02005d74 g     F .text	00000004 __sfp_lock_release
02000000 g       *ABS*	00000000 __alt_mem_sdram
0200f688 g     F .text	00000054 altera_avalon_uart_close
020117ec g     F .text	00000034 _exit
0201026c g     F .text	0000012c alt_alarm_start
02006910 g     F .text	000001bc __smakebuf_r
020017b0 g     F .text	00000098 strlen
0200fef0 g     F .text	00000054 epcs_write_enable
02010d04 g     F .text	0000015c open
0200cfe8 g     F .text	000000dc .hidden __gedf2
020137f4 g     O .rwdata	00000004 __wctomb
02009180 g     F .text	00000018 __sprint_r
0201381c g     O .rwdata	00000004 alt_priority_mask
0201082c g     F .text	00000088 alt_ic_irq_enable
02003b24 g     F .text	0000001c __vfprintf_internal
0200f718 g     F .text	000001dc altera_avalon_uart_read
0200af14 g     F .text	0000005c _wctomb_r
020009d8 g     F .text	000008fc .hidden __subdf3
0200e6c0 g     F .text	00000098 alt_epcs_flash_read
02007b0c g     F .text	000000b0 __lo0bits
02013820 g     O .rwdata	00000008 alt_alarm_list
020105d0 g     F .text	00000060 _do_ctors
0200ae24 g     F .text	000000c0 wcrtomb
0200d2d0 g     F .text	000000d8 close
0200ab98 g     F .text	00000080 fputwc
02005d78 g     F .text	00000004 __sinit_lock_acquire
0200ffb0 g     F .text	0000011c epcs_write_buffer
02007858 g     F .text	00000148 __multadd
02007830 g     F .text	00000028 _Bfree



Disassembly of section .exceptions:

00000020 <alt_exception>:

#else /* ALT_EXCEPTION_STACK disabled */
        /* 
         * Reserve space on normal stack for registers about to be pushed.
         */
        addi  sp, sp, -76
  20:	deffed04 	addi	sp,sp,-76
         * documentation for details).
         *
         * Leave a gap in the stack frame at 4(sp) for the muldiv handler to
         * store zero into.
         */
        stw   ra,  0(sp)
  24:	dfc00015 	stw	ra,0(sp)
        stw   r1,   8(sp)
  28:	d8400215 	stw	at,8(sp)
        stw   r2,  12(sp)
  2c:	d8800315 	stw	r2,12(sp)
        stw   r3,  16(sp)
  30:	d8c00415 	stw	r3,16(sp)
        stw   r4,  20(sp)
  34:	d9000515 	stw	r4,20(sp)
        stw   r5,  24(sp)
  38:	d9400615 	stw	r5,24(sp)
        stw   r6,  28(sp)
  3c:	d9800715 	stw	r6,28(sp)
        stw   r7,  32(sp)
  40:	d9c00815 	stw	r7,32(sp)
        rdctl r5, estatus   /* Read early to avoid usage stall */
  44:	000b307a 	rdctl	r5,estatus
        stw   r8,  36(sp)
  48:	da000915 	stw	r8,36(sp)
        stw   r9,  40(sp)
  4c:	da400a15 	stw	r9,40(sp)
        stw   r10, 44(sp)
  50:	da800b15 	stw	r10,44(sp)
        stw   r11, 48(sp)
  54:	dac00c15 	stw	r11,48(sp)
        stw   r12, 52(sp)
  58:	db000d15 	stw	r12,52(sp)
        stw   r13, 56(sp)
  5c:	db400e15 	stw	r13,56(sp)
        stw   r14, 60(sp)
  60:	db800f15 	stw	r14,60(sp)
        stw   r15, 64(sp)
  64:	dbc01015 	stw	r15,64(sp)
        /*
         * ea-4 contains the address of the instruction being executed
         * when the exception occured. For interrupt exceptions, we will
         * will be re-issue the isntruction. Store it in 72(sp)
         */
        stw   r5,  68(sp)  /* estatus */
  68:	d9401115 	stw	r5,68(sp)
        addi  r15, ea, -4  /* instruction that caused exception */
  6c:	ebffff04 	addi	r15,ea,-4
        stw   r15,  72(sp)
  70:	dbc01215 	stw	r15,72(sp)
#else
        /*
         * Test to see if the exception was a software exception or caused 
         * by an external interrupt, and vector accordingly.
         */
        rdctl r4, ipending
  74:	0009313a 	rdctl	r4,ipending
        andi  r2, r5, 1
  78:	2880004c 	andi	r2,r5,1
        beq   r2, zero, .Lnot_irq
  7c:	10000326 	beq	r2,zero,8c <alt_exception+0x6c>
        beq   r4, zero, .Lnot_irq
  80:	20000226 	beq	r4,zero,8c <alt_exception+0x6c>
        /*
         * Now that all necessary registers have been preserved, call 
         * alt_irq_handler() to process the interrupts.
         */

        call alt_irq_handler
  84:	00000fc0 	call	fc <alt_irq_handler>

        .section .exceptions.irqreturn, "xa"

        br    .Lexception_exit
  88:	00000706 	br	a8 <alt_exception+0x88>
         * upon completion, so we write ea (address of instruction *after*
         * the one where the exception occured) into 72(sp). The actual
         * instruction that caused the exception is written in r2, which these
         * handlers will utilize.
         */
        stw ea, 72(sp) /* EA is PC+4 so will skip over instruction causing exception */
  8c:	df401215 	stw	ea,72(sp)
.Lunknown_16bit:
        addi.n r4, r4, 2 /* Need PC+2 to skip over instruction causing exception */
        stw r4, 72(sp)

#else /* CDX is not Enabled and all instructions are 32bits */
        ldw r2, -4(ea) /* Instruction value that caused exception */
  90:	e8bfff17 	ldw	r2,-4(ea)
         * debugger is present) or go into an infinite loop since the
         * handling behavior is undefined; in that case we will not return here.
         */

        /* Load exception-causing address as first argument (r4) */
        addi   r4, ea, -4
  94:	e93fff04 	addi	r4,ea,-4

        /* Call the instruction-exception entry */
        call   alt_instruction_exception_entry
  98:	00001d00 	call	1d0 <alt_instruction_exception_entry>
         * instruction
         *
         * Return code was 0: Skip. The instruction after the exception is
         * already stored in 72(sp).
         */
        bne   r2, r0, .Lexception_exit
  9c:	1000021e 	bne	r2,zero,a8 <alt_exception+0x88>

        /*
         * Otherwise, modify 72(sp) to re-issue the instruction that caused the
         * exception.
         */
        addi  r15, ea, -4  /* instruction that caused exception */
  a0:	ebffff04 	addi	r15,ea,-4
        stw   r15,  72(sp)
  a4:	dbc01215 	stw	r15,72(sp)
        /* 
         * Restore the saved registers, so that all general purpose registers 
         * have been restored to their state at the time the interrupt occured.
         */

        ldw   r5,  68(sp)
  a8:	d9401117 	ldw	r5,68(sp)
        ldw   ea,  72(sp)  /* This becomes the PC once eret is executed */
  ac:	df401217 	ldw	ea,72(sp)
        ldw   ra,   0(sp)
  b0:	dfc00017 	ldw	ra,0(sp)

        wrctl estatus, r5
  b4:	2801707a 	wrctl	estatus,r5

        ldw   r1,   8(sp)
  b8:	d8400217 	ldw	at,8(sp)
        ldw   r2,  12(sp)
  bc:	d8800317 	ldw	r2,12(sp)
        ldw   r3,  16(sp)
  c0:	d8c00417 	ldw	r3,16(sp)
        ldw   r4,  20(sp)
  c4:	d9000517 	ldw	r4,20(sp)
        ldw   r5,  24(sp)
  c8:	d9400617 	ldw	r5,24(sp)
        ldw   r6,  28(sp)
  cc:	d9800717 	ldw	r6,28(sp)
        ldw   r7,  32(sp)
  d0:	d9c00817 	ldw	r7,32(sp)

#if defined(ALT_EXCEPTION_STACK) && defined(ALT_STACK_CHECK)
        ldw   et, %gprel(alt_exception_old_stack_limit)(gp)
#endif

        ldw   r8,  36(sp)
  d4:	da000917 	ldw	r8,36(sp)
        ldw   r9,  40(sp)
  d8:	da400a17 	ldw	r9,40(sp)
        ldw   r10, 44(sp)
  dc:	da800b17 	ldw	r10,44(sp)
        ldw   r11, 48(sp)
  e0:	dac00c17 	ldw	r11,48(sp)
        ldw   r12, 52(sp)
  e4:	db000d17 	ldw	r12,52(sp)
        ldw   r13, 56(sp)
  e8:	db400e17 	ldw	r13,56(sp)
        ldw   r14, 60(sp)
  ec:	db800f17 	ldw	r14,60(sp)
        ldw   r15, 64(sp)
  f0:	dbc01017 	ldw	r15,64(sp)
        stw   et, %gprel(alt_stack_limit_value)(gp)
        stw   zero, %gprel(alt_exception_old_stack_limit)(gp)
#endif /* ALT_STACK_CHECK */
        ldw   sp,  76(sp)
#else /* ALT_EXCEPTION_STACK disabled */
        addi  sp, sp, 76
  f4:	dec01304 	addi	sp,sp,76

        /*
         * Return to the interrupted instruction.
         */

        eret
  f8:	ef80083a 	eret

000000fc <alt_irq_handler>:
 * instruction is present if the macro ALT_CI_INTERRUPT_VECTOR defined.
 */

void alt_irq_handler (void) __attribute__ ((section (".exceptions")));
void alt_irq_handler (void)
{
  fc:	defff904 	addi	sp,sp,-28
 100:	dfc00615 	stw	ra,24(sp)
 104:	df000515 	stw	fp,20(sp)
 108:	df000504 	addi	fp,sp,20
  
  /*
   * Notify the operating system that we are at interrupt level.
   */ 
  
  ALT_OS_INT_ENTER();
 10c:	0001883a 	nop
#ifndef NIOS2_EIC_PRESENT
static ALT_INLINE alt_u32 ALT_ALWAYS_INLINE alt_irq_pending (void)
{
  alt_u32 active;

  NIOS2_READ_IPENDING (active);
 110:	0005313a 	rdctl	r2,ipending
 114:	e0bffe15 	stw	r2,-8(fp)

  return active;
 118:	e0bffe17 	ldw	r2,-8(fp)
   * Consider the case where the high priority interupt is asserted during
   * the interrupt entry sequence for a lower priority interrupt to see why
   * this is the case.
   */

  active = alt_irq_pending ();
 11c:	e0bffb15 	stw	r2,-20(fp)

  do
  {
    i = 0;
 120:	e03ffd15 	stw	zero,-12(fp)
    mask = 1;
 124:	00800044 	movi	r2,1
 128:	e0bffc15 	stw	r2,-16(fp)
     * called to clear the interrupt condition.
     */

    do
    {
      if (active & mask)
 12c:	e0fffb17 	ldw	r3,-20(fp)
 130:	e0bffc17 	ldw	r2,-16(fp)
 134:	1884703a 	and	r2,r3,r2
 138:	10001426 	beq	r2,zero,18c <alt_irq_handler+0x90>
      { 
#ifdef ALT_ENHANCED_INTERRUPT_API_PRESENT
        alt_irq[i].handler(alt_irq[i].context); 
 13c:	00808074 	movhi	r2,513
 140:	108e2204 	addi	r2,r2,14472
 144:	e0fffd17 	ldw	r3,-12(fp)
 148:	180690fa 	slli	r3,r3,3
 14c:	10c5883a 	add	r2,r2,r3
 150:	10c00017 	ldw	r3,0(r2)
 154:	00808074 	movhi	r2,513
 158:	108e2204 	addi	r2,r2,14472
 15c:	e13ffd17 	ldw	r4,-12(fp)
 160:	200890fa 	slli	r4,r4,3
 164:	1105883a 	add	r2,r2,r4
 168:	10800104 	addi	r2,r2,4
 16c:	10800017 	ldw	r2,0(r2)
 170:	1009883a 	mov	r4,r2
 174:	183ee83a 	callr	r3
#else
        alt_irq[i].handler(alt_irq[i].context, i); 
#endif
        break;
 178:	0001883a 	nop
#ifndef NIOS2_EIC_PRESENT
static ALT_INLINE alt_u32 ALT_ALWAYS_INLINE alt_irq_pending (void)
{
  alt_u32 active;

  NIOS2_READ_IPENDING (active);
 17c:	0005313a 	rdctl	r2,ipending
 180:	e0bfff15 	stw	r2,-4(fp)

  return active;
 184:	e0bfff17 	ldw	r2,-4(fp)
 188:	00000706 	br	1a8 <alt_irq_handler+0xac>
      }
      mask <<= 1;
 18c:	e0bffc17 	ldw	r2,-16(fp)
 190:	1085883a 	add	r2,r2,r2
 194:	e0bffc15 	stw	r2,-16(fp)
      i++;
 198:	e0bffd17 	ldw	r2,-12(fp)
 19c:	10800044 	addi	r2,r2,1
 1a0:	e0bffd15 	stw	r2,-12(fp)

    } while (1);
 1a4:	003fe106 	br	12c <__reset+0xfbfff12c>

    active = alt_irq_pending ();
 1a8:	e0bffb15 	stw	r2,-20(fp)
    
  } while (active);
 1ac:	e0bffb17 	ldw	r2,-20(fp)
 1b0:	103fdb1e 	bne	r2,zero,120 <__reset+0xfbfff120>

  /*
   * Notify the operating system that interrupt processing is complete.
   */ 

  ALT_OS_INT_EXIT();
 1b4:	0001883a 	nop
}
 1b8:	0001883a 	nop
 1bc:	e037883a 	mov	sp,fp
 1c0:	dfc00117 	ldw	ra,4(sp)
 1c4:	df000017 	ldw	fp,0(sp)
 1c8:	dec00204 	addi	sp,sp,8
 1cc:	f800283a 	ret

000001d0 <alt_instruction_exception_entry>:
 * that handler if it has been registered. Absent a handler, it will
 * break break or hang as discussed below.
 */
int 
alt_instruction_exception_entry (alt_u32 exception_pc)
{
 1d0:	defffb04 	addi	sp,sp,-20
 1d4:	dfc00415 	stw	ra,16(sp)
 1d8:	df000315 	stw	fp,12(sp)
 1dc:	df000304 	addi	fp,sp,12
 1e0:	e13fff15 	stw	r4,-4(fp)
  cause = ( (cause & NIOS2_EXCEPTION_REG_CAUSE_MASK) >>
              NIOS2_EXCEPTION_REG_CAUSE_OFST );

  NIOS2_READ_BADADDR(badaddr);
#else
  cause = NIOS2_EXCEPTION_CAUSE_NOT_PRESENT;
 1e4:	00bfffc4 	movi	r2,-1
 1e8:	e0bffd15 	stw	r2,-12(fp)
  badaddr = 0;
 1ec:	e03ffe15 	stw	zero,-8(fp)
#endif /* NIOS2_HAS_EXTRA_EXCEPTION_INFO */

  if(alt_instruction_exception_handler) {
 1f0:	d0a01f17 	ldw	r2,-32644(gp)
 1f4:	10000726 	beq	r2,zero,214 <alt_instruction_exception_entry+0x44>
     * Call handler. Its return value indicates whether the exception-causing
     * instruction should be re-issued. The code that called us,
     * alt_eceptions_entry.S, will look at this value and adjust the ea
     * register as necessary
     */
    return alt_instruction_exception_handler(cause, exception_pc, badaddr);
 1f8:	d0a01f17 	ldw	r2,-32644(gp)
 1fc:	e0fffd17 	ldw	r3,-12(fp)
 200:	e1bffe17 	ldw	r6,-8(fp)
 204:	e17fff17 	ldw	r5,-4(fp)
 208:	1809883a 	mov	r4,r3
 20c:	103ee83a 	callr	r2
 210:	00000206 	br	21c <alt_instruction_exception_entry+0x4c>
   *    (a peripheral which negates its interrupt output before its
   *    interrupt handler has been executed will cause spurious interrupts)
   */
  else {
#ifdef NIOS2_HAS_DEBUG_STUB
    NIOS2_BREAK();
 214:	003da03a 	break	0
      ;
#endif /* NIOS2_HAS_DEBUG_STUB */
  }

  /* We should not get here. Remove compiler warning. */
  return NIOS2_EXCEPTION_RETURN_REISSUE_INST;
 218:	0005883a 	mov	r2,zero
}
 21c:	e037883a 	mov	sp,fp
 220:	dfc00117 	ldw	ra,4(sp)
 224:	df000017 	ldw	fp,0(sp)
 228:	dec00204 	addi	sp,sp,8
 22c:	f800283a 	ret

Disassembly of section .text:

02000000 <_start>:

    /*
     * Now that the caches are initialized, set up the stack pointer and global pointer.
     * The values provided by the linker are assumed to be correctly aligned.
     */
    movhi sp, %hi(__alt_stack_pointer)
 2000000:	06c10034 	movhi	sp,1024
    ori sp, sp, %lo(__alt_stack_pointer)
 2000004:	dec00014 	ori	sp,sp,0
    movhi gp, %hi(_gp)
 2000008:	06808074 	movhi	gp,513
    ori gp, gp, %lo(_gp)
 200000c:	d6adf814 	ori	gp,gp,47072
 */
#ifndef ALT_SIM_OPTIMIZE
    /* Log that the BSS is about to be cleared. */
    ALT_LOG_PUTS(alt_log_msg_bss)

    movhi r2, %hi(__bss_start)
 2000010:	00808074 	movhi	r2,513
    ori r2, r2, %lo(__bss_start)
 2000014:	108e0a14 	ori	r2,r2,14376

    movhi r3, %hi(__bss_end)
 2000018:	00c08074 	movhi	r3,513
    ori r3, r3, %lo(__bss_end)
 200001c:	18ce6214 	ori	r3,r3,14728

    beq r2, r3, 1f
 2000020:	10c00326 	beq	r2,r3,2000030 <_start+0x30>

0:
    stw zero, (r2)
 2000024:	10000015 	stw	zero,0(r2)
    addi r2, r2, 4
 2000028:	10800104 	addi	r2,r2,4
    bltu r2, r3, 0b
 200002c:	10fffd36 	bltu	r2,r3,2000024 <__reset+0xfdfff024>

    /* Log that alt_main is about to be called. */
    ALT_LOG_PUTS(alt_log_msg_alt_main)

    /* Call the C entry point. It should never return. */
    call alt_main
 2000030:	200d6c80 	call	200d6c8 <alt_main>

02000034 <alt_after_alt_main>:

    /* Wait in infinite loop in case alt_main does return. */
alt_after_alt_main:
    br alt_after_alt_main
 2000034:	003fff06 	br	2000034 <__reset+0xfdfff034>

02000038 <main>:
#include "altera_avalon_pio_regs.h"
#include <unistd.h>
#include <sys/times.h>
#include <time.h>

int main(){
 2000038:	023ffeb4 	movhi	r8,65530
 200003c:	defff904 	addi	sp,sp,-28
 2000040:	42392e04 	addi	r8,r8,-6984
  printf("Hello from Nios II!\n");
 2000044:	01008074 	movhi	r4,513
#include "altera_avalon_pio_regs.h"
#include <unistd.h>
#include <sys/times.h>
#include <time.h>

int main(){
 2000048:	dfc00615 	stw	ra,24(sp)
 200004c:	dd000415 	stw	r20,16(sp)
 2000050:	dcc00315 	stw	r19,12(sp)
 2000054:	dc800215 	stw	r18,8(sp)
 2000058:	dc400115 	stw	r17,4(sp)
 200005c:	dd400515 	stw	r21,20(sp)
 2000060:	dc000015 	stw	r16,0(sp)
  printf("Hello from Nios II!\n");
 2000064:	21060804 	addi	r4,r4,6176
#include "altera_avalon_pio_regs.h"
#include <unistd.h>
#include <sys/times.h>
#include <time.h>

int main(){
 2000068:	da37883a 	add	sp,sp,r8
  printf("Hello from Nios II!\n");
 200006c:	200179c0 	call	200179c <puts>

  usleep(3000);
 2000070:	0102ee04 	movi	r4,3000
 2000074:	200da000 	call	200da00 <usleep>
  int channel, index;
  int voltage[100050];
  index = 0;
  channel = 1;

  adc = alt_up_adc_open_dev(ADC_NAME);
 2000078:	01008074 	movhi	r4,513
 200007c:	21060d04 	addi	r4,r4,6196

		  IOWR_ALTERA_AVALON_PIO_DATA(LED_BASE, data);

		  voltage[index++] = (0.0150*data - 0.3011)*10;

		  if(index >= 100000){
 2000080:	048001b4 	movhi	r18,6
  int channel, index;
  int voltage[100050];
  index = 0;
  channel = 1;

  adc = alt_up_adc_open_dev(ADC_NAME);
 2000084:	200fadc0 	call	200fadc <alt_up_adc_open_dev>
		  data = alt_up_adc_read(adc, channel);
		  alt_up_adc_update(adc);

		  data = data/16;

		  IOWR_ALTERA_AVALON_PIO_DATA(LED_BASE, data);
 2000088:	04c10034 	movhi	r19,1024

		  voltage[index++] = (0.0150*data - 0.3011)*10;

		  if(index >= 100000){
 200008c:	9486a004 	addi	r18,r18,6784
  int channel, index;
  int voltage[100050];
  index = 0;
  channel = 1;

  adc = alt_up_adc_open_dev(ADC_NAME);
 2000090:	1023883a 	mov	r17,r2
		  data = alt_up_adc_read(adc, channel);
		  alt_up_adc_update(adc);

		  data = data/16;

		  IOWR_ALTERA_AVALON_PIO_DATA(LED_BASE, data);
 2000094:	9cc81004 	addi	r19,r19,8256

		  voltage[index++] = (0.0150*data - 0.3011)*10;

		  if(index >= 100000){
 2000098:	9029883a 	mov	r20,r18
 200009c:	0021883a 	mov	r16,zero
  index = 0;
  channel = 1;

  adc = alt_up_adc_open_dev(ADC_NAME);
  while (1){
	  while(adc != NULL){
 20000a0:	88003126 	beq	r17,zero,2000168 <main+0x130>

		  data = alt_up_adc_read(adc, channel);
 20000a4:	01400044 	movi	r5,1
 20000a8:	8809883a 	mov	r4,r17
 20000ac:	200fb180 	call	200fb18 <alt_up_adc_read>
		  alt_up_adc_update(adc);
 20000b0:	88c00a17 	ldw	r3,40(r17)
 20000b4:	18000035 	stwio	zero,0(r3)

		  data = data/16;
 20000b8:	1008d13a 	srli	r4,r2,4

		  IOWR_ALTERA_AVALON_PIO_DATA(LED_BASE, data);
 20000bc:	99000035 	stwio	r4,0(r19)

		  voltage[index++] = (0.0150*data - 0.3011)*10;
 20000c0:	20013540 	call	2001354 <__floatunsidf>
 20000c4:	01bae174 	movhi	r6,60293
 20000c8:	01cfe3f4 	movhi	r7,16271
 20000cc:	3187ae04 	addi	r6,r6,7864
 20000d0:	39ee1444 	addi	r7,r7,-18351
 20000d4:	1009883a 	mov	r4,r2
 20000d8:	180b883a 	mov	r5,r3
 20000dc:	200016c0 	call	200016c <__muldf3>
 20000e0:	01bbcd74 	movhi	r6,61237
 20000e4:	01cff4f4 	movhi	r7,16339
 20000e8:	31b5a844 	addi	r6,r6,-10591
 20000ec:	39d14e04 	addi	r7,r7,17720
 20000f0:	1009883a 	mov	r4,r2
 20000f4:	180b883a 	mov	r5,r3
 20000f8:	20009d80 	call	20009d8 <__subdf3>
 20000fc:	000d883a 	mov	r6,zero
 2000100:	01d00934 	movhi	r7,16420
 2000104:	1009883a 	mov	r4,r2
 2000108:	180b883a 	mov	r5,r3
 200010c:	200016c0 	call	200016c <__muldf3>
 2000110:	1009883a 	mov	r4,r2
 2000114:	180b883a 	mov	r5,r3
 2000118:	dc2b883a 	add	r21,sp,r16
 200011c:	20012d40 	call	20012d4 <__fixdfsi>
 2000120:	a8800015 	stw	r2,0(r21)
 2000124:	84000104 	addi	r16,r16,4

		  if(index >= 100000){
 2000128:	84bfdd1e 	bne	r16,r18,20000a0 <__reset+0xfdfff0a0>
 200012c:	0021883a 	mov	r16,zero
			  index = 0;
			  for(int i = 0; i < 100000; i++){
				  fprintf(stderr, "%02d", voltage[i]);
 2000130:	dc05883a 	add	r2,sp,r16
 2000134:	11800017 	ldw	r6,0(r2)
 2000138:	d0a00117 	ldw	r2,-32764(gp)
 200013c:	01408074 	movhi	r5,513
 2000140:	29461004 	addi	r5,r5,6208
 2000144:	11000317 	ldw	r4,12(r2)
 2000148:	84000104 	addi	r16,r16,4
 200014c:	20014b00 	call	20014b0 <fprintf>

		  voltage[index++] = (0.0150*data - 0.3011)*10;

		  if(index >= 100000){
			  index = 0;
			  for(int i = 0; i < 100000; i++){
 2000150:	853ff71e 	bne	r16,r20,2000130 <__reset+0xfdfff130>
				  fprintf(stderr, "%02d", voltage[i]);
			  }
			  fprintf(stderr,"\n");
 2000154:	d0a00117 	ldw	r2,-32764(gp)
 2000158:	01000284 	movi	r4,10
 200015c:	11400317 	ldw	r5,12(r2)
 2000160:	20015180 	call	2001518 <fputc>
 2000164:	003fcd06 	br	200009c <__reset+0xfdfff09c>
 2000168:	003fff06 	br	2000168 <__reset+0xfdfff168>

0200016c <__muldf3>:
 200016c:	deffee04 	addi	sp,sp,-72
 2000170:	dd000c15 	stw	r20,48(sp)
 2000174:	2828d53a 	srli	r20,r5,20
 2000178:	ddc00f15 	stw	r23,60(sp)
 200017c:	282ed7fa 	srli	r23,r5,31
 2000180:	dc000815 	stw	r16,32(sp)
 2000184:	04000434 	movhi	r16,16
 2000188:	dcc00b15 	stw	r19,44(sp)
 200018c:	843fffc4 	addi	r16,r16,-1
 2000190:	dfc01115 	stw	ra,68(sp)
 2000194:	df001015 	stw	fp,64(sp)
 2000198:	dd800e15 	stw	r22,56(sp)
 200019c:	dd400d15 	stw	r21,52(sp)
 20001a0:	dc800a15 	stw	r18,40(sp)
 20001a4:	dc400915 	stw	r17,36(sp)
 20001a8:	a501ffcc 	andi	r20,r20,2047
 20001ac:	2c20703a 	and	r16,r5,r16
 20001b0:	b827883a 	mov	r19,r23
 20001b4:	ba403fcc 	andi	r9,r23,255
 20001b8:	a0006026 	beq	r20,zero,200033c <__muldf3+0x1d0>
 20001bc:	0081ffc4 	movi	r2,2047
 20001c0:	202d883a 	mov	r22,r4
 20001c4:	a0803626 	beq	r20,r2,20002a0 <__muldf3+0x134>
 20001c8:	84000434 	orhi	r16,r16,16
 20001cc:	200ad77a 	srli	r5,r4,29
 20001d0:	800490fa 	slli	r2,r16,3
 20001d4:	202c90fa 	slli	r22,r4,3
 20001d8:	a53f0044 	addi	r20,r20,-1023
 20001dc:	28a0b03a 	or	r16,r5,r2
 20001e0:	002b883a 	mov	r21,zero
 20001e4:	000b883a 	mov	r5,zero
 20001e8:	3804d53a 	srli	r2,r7,20
 20001ec:	3838d7fa 	srli	fp,r7,31
 20001f0:	04400434 	movhi	r17,16
 20001f4:	8c7fffc4 	addi	r17,r17,-1
 20001f8:	1081ffcc 	andi	r2,r2,2047
 20001fc:	3025883a 	mov	r18,r6
 2000200:	3c62703a 	and	r17,r7,r17
 2000204:	e2803fcc 	andi	r10,fp,255
 2000208:	10006d26 	beq	r2,zero,20003c0 <__muldf3+0x254>
 200020c:	00c1ffc4 	movi	r3,2047
 2000210:	10c06526 	beq	r2,r3,20003a8 <__muldf3+0x23c>
 2000214:	8c400434 	orhi	r17,r17,16
 2000218:	300ed77a 	srli	r7,r6,29
 200021c:	880690fa 	slli	r3,r17,3
 2000220:	302490fa 	slli	r18,r6,3
 2000224:	10bf0044 	addi	r2,r2,-1023
 2000228:	38e2b03a 	or	r17,r7,r3
 200022c:	000f883a 	mov	r7,zero
 2000230:	a087883a 	add	r3,r20,r2
 2000234:	010003c4 	movi	r4,15
 2000238:	3d44b03a 	or	r2,r7,r21
 200023c:	e5ccf03a 	xor	r6,fp,r23
 2000240:	1a000044 	addi	r8,r3,1
 2000244:	20809b36 	bltu	r4,r2,20004b4 <__muldf3+0x348>
 2000248:	100490ba 	slli	r2,r2,2
 200024c:	01008034 	movhi	r4,512
 2000250:	21009804 	addi	r4,r4,608
 2000254:	1105883a 	add	r2,r2,r4
 2000258:	10800017 	ldw	r2,0(r2)
 200025c:	1000683a 	jmp	r2
 2000260:	020004b4 	movhi	r8,18
 2000264:	020002c0 	call	20002c <alt_instruction_exception_entry+0x1ffe5c>
 2000268:	020002c0 	call	20002c <alt_instruction_exception_entry+0x1ffe5c>
 200026c:	020002bc 	xorhi	r8,zero,10
 2000270:	02000490 	cmplti	r8,zero,18
 2000274:	02000490 	cmplti	r8,zero,18
 2000278:	02000478 	rdprs	r8,zero,17
 200027c:	020002bc 	xorhi	r8,zero,10
 2000280:	02000490 	cmplti	r8,zero,18
 2000284:	02000478 	rdprs	r8,zero,17
 2000288:	02000490 	cmplti	r8,zero,18
 200028c:	020002bc 	xorhi	r8,zero,10
 2000290:	020004a0 	cmpeqi	r8,zero,18
 2000294:	020004a0 	cmpeqi	r8,zero,18
 2000298:	020004a0 	cmpeqi	r8,zero,18
 200029c:	02000800 	call	200080 <alt_instruction_exception_entry+0x1ffeb0>
 20002a0:	2404b03a 	or	r2,r4,r16
 20002a4:	1000711e 	bne	r2,zero,200046c <__muldf3+0x300>
 20002a8:	05400204 	movi	r21,8
 20002ac:	0021883a 	mov	r16,zero
 20002b0:	002d883a 	mov	r22,zero
 20002b4:	01400084 	movi	r5,2
 20002b8:	003fcb06 	br	20001e8 <__reset+0xfdfff1e8>
 20002bc:	500d883a 	mov	r6,r10
 20002c0:	00800084 	movi	r2,2
 20002c4:	38805926 	beq	r7,r2,200042c <__muldf3+0x2c0>
 20002c8:	008000c4 	movi	r2,3
 20002cc:	3881bb26 	beq	r7,r2,20009bc <__muldf3+0x850>
 20002d0:	00800044 	movi	r2,1
 20002d4:	3881961e 	bne	r7,r2,2000930 <__muldf3+0x7c4>
 20002d8:	3027883a 	mov	r19,r6
 20002dc:	0005883a 	mov	r2,zero
 20002e0:	0021883a 	mov	r16,zero
 20002e4:	002d883a 	mov	r22,zero
 20002e8:	1004953a 	slli	r2,r2,20
 20002ec:	98c03fcc 	andi	r3,r19,255
 20002f0:	04400434 	movhi	r17,16
 20002f4:	8c7fffc4 	addi	r17,r17,-1
 20002f8:	180697fa 	slli	r3,r3,31
 20002fc:	8460703a 	and	r16,r16,r17
 2000300:	80a0b03a 	or	r16,r16,r2
 2000304:	80c6b03a 	or	r3,r16,r3
 2000308:	b005883a 	mov	r2,r22
 200030c:	dfc01117 	ldw	ra,68(sp)
 2000310:	df001017 	ldw	fp,64(sp)
 2000314:	ddc00f17 	ldw	r23,60(sp)
 2000318:	dd800e17 	ldw	r22,56(sp)
 200031c:	dd400d17 	ldw	r21,52(sp)
 2000320:	dd000c17 	ldw	r20,48(sp)
 2000324:	dcc00b17 	ldw	r19,44(sp)
 2000328:	dc800a17 	ldw	r18,40(sp)
 200032c:	dc400917 	ldw	r17,36(sp)
 2000330:	dc000817 	ldw	r16,32(sp)
 2000334:	dec01204 	addi	sp,sp,72
 2000338:	f800283a 	ret
 200033c:	2404b03a 	or	r2,r4,r16
 2000340:	202b883a 	mov	r21,r4
 2000344:	10004426 	beq	r2,zero,2000458 <__muldf3+0x2ec>
 2000348:	80015126 	beq	r16,zero,2000890 <__muldf3+0x724>
 200034c:	8009883a 	mov	r4,r16
 2000350:	d9800715 	stw	r6,28(sp)
 2000354:	d9c00215 	stw	r7,8(sp)
 2000358:	da400415 	stw	r9,16(sp)
 200035c:	20013fc0 	call	20013fc <__clzsi2>
 2000360:	d9800717 	ldw	r6,28(sp)
 2000364:	d9c00217 	ldw	r7,8(sp)
 2000368:	da400417 	ldw	r9,16(sp)
 200036c:	113ffd44 	addi	r4,r2,-11
 2000370:	00c00704 	movi	r3,28
 2000374:	19014216 	blt	r3,r4,2000880 <__muldf3+0x714>
 2000378:	00c00744 	movi	r3,29
 200037c:	15bffe04 	addi	r22,r2,-8
 2000380:	1907c83a 	sub	r3,r3,r4
 2000384:	85a0983a 	sll	r16,r16,r22
 2000388:	a8c6d83a 	srl	r3,r21,r3
 200038c:	adac983a 	sll	r22,r21,r22
 2000390:	1c20b03a 	or	r16,r3,r16
 2000394:	1080fcc4 	addi	r2,r2,1011
 2000398:	00a9c83a 	sub	r20,zero,r2
 200039c:	002b883a 	mov	r21,zero
 20003a0:	000b883a 	mov	r5,zero
 20003a4:	003f9006 	br	20001e8 <__reset+0xfdfff1e8>
 20003a8:	3446b03a 	or	r3,r6,r17
 20003ac:	1800281e 	bne	r3,zero,2000450 <__muldf3+0x2e4>
 20003b0:	0023883a 	mov	r17,zero
 20003b4:	0025883a 	mov	r18,zero
 20003b8:	01c00084 	movi	r7,2
 20003bc:	003f9c06 	br	2000230 <__reset+0xfdfff230>
 20003c0:	3446b03a 	or	r3,r6,r17
 20003c4:	18001e26 	beq	r3,zero,2000440 <__muldf3+0x2d4>
 20003c8:	88012126 	beq	r17,zero,2000850 <__muldf3+0x6e4>
 20003cc:	8809883a 	mov	r4,r17
 20003d0:	d9400215 	stw	r5,8(sp)
 20003d4:	d9800715 	stw	r6,28(sp)
 20003d8:	da400415 	stw	r9,16(sp)
 20003dc:	da800315 	stw	r10,12(sp)
 20003e0:	20013fc0 	call	20013fc <__clzsi2>
 20003e4:	d9400217 	ldw	r5,8(sp)
 20003e8:	d9800717 	ldw	r6,28(sp)
 20003ec:	da400417 	ldw	r9,16(sp)
 20003f0:	da800317 	ldw	r10,12(sp)
 20003f4:	113ffd44 	addi	r4,r2,-11
 20003f8:	00c00704 	movi	r3,28
 20003fc:	19011016 	blt	r3,r4,2000840 <__muldf3+0x6d4>
 2000400:	00c00744 	movi	r3,29
 2000404:	14bffe04 	addi	r18,r2,-8
 2000408:	1907c83a 	sub	r3,r3,r4
 200040c:	8ca2983a 	sll	r17,r17,r18
 2000410:	30c6d83a 	srl	r3,r6,r3
 2000414:	34a4983a 	sll	r18,r6,r18
 2000418:	1c62b03a 	or	r17,r3,r17
 200041c:	1080fcc4 	addi	r2,r2,1011
 2000420:	0085c83a 	sub	r2,zero,r2
 2000424:	000f883a 	mov	r7,zero
 2000428:	003f8106 	br	2000230 <__reset+0xfdfff230>
 200042c:	3027883a 	mov	r19,r6
 2000430:	0081ffc4 	movi	r2,2047
 2000434:	0021883a 	mov	r16,zero
 2000438:	002d883a 	mov	r22,zero
 200043c:	003faa06 	br	20002e8 <__reset+0xfdfff2e8>
 2000440:	0023883a 	mov	r17,zero
 2000444:	0025883a 	mov	r18,zero
 2000448:	01c00044 	movi	r7,1
 200044c:	003f7806 	br	2000230 <__reset+0xfdfff230>
 2000450:	01c000c4 	movi	r7,3
 2000454:	003f7606 	br	2000230 <__reset+0xfdfff230>
 2000458:	05400104 	movi	r21,4
 200045c:	0021883a 	mov	r16,zero
 2000460:	002d883a 	mov	r22,zero
 2000464:	01400044 	movi	r5,1
 2000468:	003f5f06 	br	20001e8 <__reset+0xfdfff1e8>
 200046c:	05400304 	movi	r21,12
 2000470:	014000c4 	movi	r5,3
 2000474:	003f5c06 	br	20001e8 <__reset+0xfdfff1e8>
 2000478:	04000434 	movhi	r16,16
 200047c:	0027883a 	mov	r19,zero
 2000480:	843fffc4 	addi	r16,r16,-1
 2000484:	05bfffc4 	movi	r22,-1
 2000488:	0081ffc4 	movi	r2,2047
 200048c:	003f9606 	br	20002e8 <__reset+0xfdfff2e8>
 2000490:	8023883a 	mov	r17,r16
 2000494:	b025883a 	mov	r18,r22
 2000498:	280f883a 	mov	r7,r5
 200049c:	003f8806 	br	20002c0 <__reset+0xfdfff2c0>
 20004a0:	8023883a 	mov	r17,r16
 20004a4:	b025883a 	mov	r18,r22
 20004a8:	480d883a 	mov	r6,r9
 20004ac:	280f883a 	mov	r7,r5
 20004b0:	003f8306 	br	20002c0 <__reset+0xfdfff2c0>
 20004b4:	b026d43a 	srli	r19,r22,16
 20004b8:	902ed43a 	srli	r23,r18,16
 20004bc:	b5bfffcc 	andi	r22,r22,65535
 20004c0:	94bfffcc 	andi	r18,r18,65535
 20004c4:	b00b883a 	mov	r5,r22
 20004c8:	9009883a 	mov	r4,r18
 20004cc:	d8c00515 	stw	r3,20(sp)
 20004d0:	d9800715 	stw	r6,28(sp)
 20004d4:	da000615 	stw	r8,24(sp)
 20004d8:	20014600 	call	2001460 <__mulsi3>
 20004dc:	980b883a 	mov	r5,r19
 20004e0:	9009883a 	mov	r4,r18
 20004e4:	1029883a 	mov	r20,r2
 20004e8:	20014600 	call	2001460 <__mulsi3>
 20004ec:	b80b883a 	mov	r5,r23
 20004f0:	9809883a 	mov	r4,r19
 20004f4:	102b883a 	mov	r21,r2
 20004f8:	20014600 	call	2001460 <__mulsi3>
 20004fc:	b809883a 	mov	r4,r23
 2000500:	b00b883a 	mov	r5,r22
 2000504:	1039883a 	mov	fp,r2
 2000508:	20014600 	call	2001460 <__mulsi3>
 200050c:	a008d43a 	srli	r4,r20,16
 2000510:	1545883a 	add	r2,r2,r21
 2000514:	d8c00517 	ldw	r3,20(sp)
 2000518:	2085883a 	add	r2,r4,r2
 200051c:	d9800717 	ldw	r6,28(sp)
 2000520:	da000617 	ldw	r8,24(sp)
 2000524:	1540022e 	bgeu	r2,r21,2000530 <__muldf3+0x3c4>
 2000528:	01000074 	movhi	r4,1
 200052c:	e139883a 	add	fp,fp,r4
 2000530:	100e943a 	slli	r7,r2,16
 2000534:	1004d43a 	srli	r2,r2,16
 2000538:	882ad43a 	srli	r21,r17,16
 200053c:	a53fffcc 	andi	r20,r20,65535
 2000540:	8c7fffcc 	andi	r17,r17,65535
 2000544:	3d29883a 	add	r20,r7,r20
 2000548:	b00b883a 	mov	r5,r22
 200054c:	8809883a 	mov	r4,r17
 2000550:	d8c00515 	stw	r3,20(sp)
 2000554:	d9800715 	stw	r6,28(sp)
 2000558:	da000615 	stw	r8,24(sp)
 200055c:	dd000115 	stw	r20,4(sp)
 2000560:	d8800015 	stw	r2,0(sp)
 2000564:	20014600 	call	2001460 <__mulsi3>
 2000568:	980b883a 	mov	r5,r19
 200056c:	8809883a 	mov	r4,r17
 2000570:	d8800215 	stw	r2,8(sp)
 2000574:	20014600 	call	2001460 <__mulsi3>
 2000578:	9809883a 	mov	r4,r19
 200057c:	a80b883a 	mov	r5,r21
 2000580:	1029883a 	mov	r20,r2
 2000584:	20014600 	call	2001460 <__mulsi3>
 2000588:	b00b883a 	mov	r5,r22
 200058c:	a809883a 	mov	r4,r21
 2000590:	d8800415 	stw	r2,16(sp)
 2000594:	20014600 	call	2001460 <__mulsi3>
 2000598:	d9c00217 	ldw	r7,8(sp)
 200059c:	1505883a 	add	r2,r2,r20
 20005a0:	d8c00517 	ldw	r3,20(sp)
 20005a4:	3826d43a 	srli	r19,r7,16
 20005a8:	d9800717 	ldw	r6,28(sp)
 20005ac:	da000617 	ldw	r8,24(sp)
 20005b0:	9885883a 	add	r2,r19,r2
 20005b4:	da400417 	ldw	r9,16(sp)
 20005b8:	1500022e 	bgeu	r2,r20,20005c4 <__muldf3+0x458>
 20005bc:	01000074 	movhi	r4,1
 20005c0:	4913883a 	add	r9,r9,r4
 20005c4:	1028d43a 	srli	r20,r2,16
 20005c8:	1004943a 	slli	r2,r2,16
 20005cc:	802cd43a 	srli	r22,r16,16
 20005d0:	843fffcc 	andi	r16,r16,65535
 20005d4:	3cffffcc 	andi	r19,r7,65535
 20005d8:	9009883a 	mov	r4,r18
 20005dc:	800b883a 	mov	r5,r16
 20005e0:	a269883a 	add	r20,r20,r9
 20005e4:	d8c00515 	stw	r3,20(sp)
 20005e8:	d9800715 	stw	r6,28(sp)
 20005ec:	da000615 	stw	r8,24(sp)
 20005f0:	14e7883a 	add	r19,r2,r19
 20005f4:	20014600 	call	2001460 <__mulsi3>
 20005f8:	9009883a 	mov	r4,r18
 20005fc:	b00b883a 	mov	r5,r22
 2000600:	d8800315 	stw	r2,12(sp)
 2000604:	20014600 	call	2001460 <__mulsi3>
 2000608:	b809883a 	mov	r4,r23
 200060c:	b00b883a 	mov	r5,r22
 2000610:	d8800215 	stw	r2,8(sp)
 2000614:	20014600 	call	2001460 <__mulsi3>
 2000618:	b80b883a 	mov	r5,r23
 200061c:	8009883a 	mov	r4,r16
 2000620:	d8800415 	stw	r2,16(sp)
 2000624:	20014600 	call	2001460 <__mulsi3>
 2000628:	da800317 	ldw	r10,12(sp)
 200062c:	d9c00217 	ldw	r7,8(sp)
 2000630:	d9000017 	ldw	r4,0(sp)
 2000634:	502ed43a 	srli	r23,r10,16
 2000638:	11c5883a 	add	r2,r2,r7
 200063c:	24e5883a 	add	r18,r4,r19
 2000640:	b885883a 	add	r2,r23,r2
 2000644:	d8c00517 	ldw	r3,20(sp)
 2000648:	d9800717 	ldw	r6,28(sp)
 200064c:	da000617 	ldw	r8,24(sp)
 2000650:	da400417 	ldw	r9,16(sp)
 2000654:	11c0022e 	bgeu	r2,r7,2000660 <__muldf3+0x4f4>
 2000658:	01000074 	movhi	r4,1
 200065c:	4913883a 	add	r9,r9,r4
 2000660:	100ed43a 	srli	r7,r2,16
 2000664:	1004943a 	slli	r2,r2,16
 2000668:	55ffffcc 	andi	r23,r10,65535
 200066c:	3a53883a 	add	r9,r7,r9
 2000670:	8809883a 	mov	r4,r17
 2000674:	800b883a 	mov	r5,r16
 2000678:	d8c00515 	stw	r3,20(sp)
 200067c:	d9800715 	stw	r6,28(sp)
 2000680:	da000615 	stw	r8,24(sp)
 2000684:	da400415 	stw	r9,16(sp)
 2000688:	15ef883a 	add	r23,r2,r23
 200068c:	20014600 	call	2001460 <__mulsi3>
 2000690:	8809883a 	mov	r4,r17
 2000694:	b00b883a 	mov	r5,r22
 2000698:	d8800215 	stw	r2,8(sp)
 200069c:	20014600 	call	2001460 <__mulsi3>
 20006a0:	b00b883a 	mov	r5,r22
 20006a4:	a809883a 	mov	r4,r21
 20006a8:	d8800315 	stw	r2,12(sp)
 20006ac:	20014600 	call	2001460 <__mulsi3>
 20006b0:	8009883a 	mov	r4,r16
 20006b4:	a80b883a 	mov	r5,r21
 20006b8:	1023883a 	mov	r17,r2
 20006bc:	20014600 	call	2001460 <__mulsi3>
 20006c0:	d9c00217 	ldw	r7,8(sp)
 20006c4:	da800317 	ldw	r10,12(sp)
 20006c8:	d8c00517 	ldw	r3,20(sp)
 20006cc:	3808d43a 	srli	r4,r7,16
 20006d0:	1285883a 	add	r2,r2,r10
 20006d4:	d9800717 	ldw	r6,28(sp)
 20006d8:	2085883a 	add	r2,r4,r2
 20006dc:	da000617 	ldw	r8,24(sp)
 20006e0:	da400417 	ldw	r9,16(sp)
 20006e4:	1280022e 	bgeu	r2,r10,20006f0 <__muldf3+0x584>
 20006e8:	01000074 	movhi	r4,1
 20006ec:	8923883a 	add	r17,r17,r4
 20006f0:	1008943a 	slli	r4,r2,16
 20006f4:	39ffffcc 	andi	r7,r7,65535
 20006f8:	e4b9883a 	add	fp,fp,r18
 20006fc:	21cf883a 	add	r7,r4,r7
 2000700:	e4e7803a 	cmpltu	r19,fp,r19
 2000704:	3d0f883a 	add	r7,r7,r20
 2000708:	bf39883a 	add	fp,r23,fp
 200070c:	99c9883a 	add	r4,r19,r7
 2000710:	e5ef803a 	cmpltu	r23,fp,r23
 2000714:	490b883a 	add	r5,r9,r4
 2000718:	1004d43a 	srli	r2,r2,16
 200071c:	b965883a 	add	r18,r23,r5
 2000720:	24c9803a 	cmpltu	r4,r4,r19
 2000724:	3d29803a 	cmpltu	r20,r7,r20
 2000728:	a128b03a 	or	r20,r20,r4
 200072c:	95ef803a 	cmpltu	r23,r18,r23
 2000730:	2a53803a 	cmpltu	r9,r5,r9
 2000734:	a0a9883a 	add	r20,r20,r2
 2000738:	4deeb03a 	or	r23,r9,r23
 200073c:	a5ef883a 	add	r23,r20,r23
 2000740:	bc63883a 	add	r17,r23,r17
 2000744:	e004927a 	slli	r2,fp,9
 2000748:	d9000117 	ldw	r4,4(sp)
 200074c:	882e927a 	slli	r23,r17,9
 2000750:	9022d5fa 	srli	r17,r18,23
 2000754:	e038d5fa 	srli	fp,fp,23
 2000758:	1104b03a 	or	r2,r2,r4
 200075c:	9024927a 	slli	r18,r18,9
 2000760:	1004c03a 	cmpne	r2,r2,zero
 2000764:	bc62b03a 	or	r17,r23,r17
 2000768:	1738b03a 	or	fp,r2,fp
 200076c:	8880402c 	andhi	r2,r17,256
 2000770:	e4a4b03a 	or	r18,fp,r18
 2000774:	10000726 	beq	r2,zero,2000794 <__muldf3+0x628>
 2000778:	9006d07a 	srli	r3,r18,1
 200077c:	880497fa 	slli	r2,r17,31
 2000780:	9480004c 	andi	r18,r18,1
 2000784:	8822d07a 	srli	r17,r17,1
 2000788:	1ca4b03a 	or	r18,r3,r18
 200078c:	14a4b03a 	or	r18,r2,r18
 2000790:	4007883a 	mov	r3,r8
 2000794:	1880ffc4 	addi	r2,r3,1023
 2000798:	0080460e 	bge	zero,r2,20008b4 <__muldf3+0x748>
 200079c:	910001cc 	andi	r4,r18,7
 20007a0:	20000726 	beq	r4,zero,20007c0 <__muldf3+0x654>
 20007a4:	910003cc 	andi	r4,r18,15
 20007a8:	01400104 	movi	r5,4
 20007ac:	21400426 	beq	r4,r5,20007c0 <__muldf3+0x654>
 20007b0:	9149883a 	add	r4,r18,r5
 20007b4:	24a5803a 	cmpltu	r18,r4,r18
 20007b8:	8ca3883a 	add	r17,r17,r18
 20007bc:	2025883a 	mov	r18,r4
 20007c0:	8900402c 	andhi	r4,r17,256
 20007c4:	20000426 	beq	r4,zero,20007d8 <__muldf3+0x66c>
 20007c8:	18810004 	addi	r2,r3,1024
 20007cc:	00ffc034 	movhi	r3,65280
 20007d0:	18ffffc4 	addi	r3,r3,-1
 20007d4:	88e2703a 	and	r17,r17,r3
 20007d8:	00c1ff84 	movi	r3,2046
 20007dc:	18bf1316 	blt	r3,r2,200042c <__reset+0xfdfff42c>
 20007e0:	882c977a 	slli	r22,r17,29
 20007e4:	9024d0fa 	srli	r18,r18,3
 20007e8:	8822927a 	slli	r17,r17,9
 20007ec:	1081ffcc 	andi	r2,r2,2047
 20007f0:	b4acb03a 	or	r22,r22,r18
 20007f4:	8820d33a 	srli	r16,r17,12
 20007f8:	3027883a 	mov	r19,r6
 20007fc:	003eba06 	br	20002e8 <__reset+0xfdfff2e8>
 2000800:	8080022c 	andhi	r2,r16,8
 2000804:	10000926 	beq	r2,zero,200082c <__muldf3+0x6c0>
 2000808:	8880022c 	andhi	r2,r17,8
 200080c:	1000071e 	bne	r2,zero,200082c <__muldf3+0x6c0>
 2000810:	00800434 	movhi	r2,16
 2000814:	8c000234 	orhi	r16,r17,8
 2000818:	10bfffc4 	addi	r2,r2,-1
 200081c:	e027883a 	mov	r19,fp
 2000820:	80a0703a 	and	r16,r16,r2
 2000824:	902d883a 	mov	r22,r18
 2000828:	003f1706 	br	2000488 <__reset+0xfdfff488>
 200082c:	00800434 	movhi	r2,16
 2000830:	84000234 	orhi	r16,r16,8
 2000834:	10bfffc4 	addi	r2,r2,-1
 2000838:	80a0703a 	and	r16,r16,r2
 200083c:	003f1206 	br	2000488 <__reset+0xfdfff488>
 2000840:	147ff604 	addi	r17,r2,-40
 2000844:	3462983a 	sll	r17,r6,r17
 2000848:	0025883a 	mov	r18,zero
 200084c:	003ef306 	br	200041c <__reset+0xfdfff41c>
 2000850:	3009883a 	mov	r4,r6
 2000854:	d9400215 	stw	r5,8(sp)
 2000858:	d9800715 	stw	r6,28(sp)
 200085c:	da400415 	stw	r9,16(sp)
 2000860:	da800315 	stw	r10,12(sp)
 2000864:	20013fc0 	call	20013fc <__clzsi2>
 2000868:	10800804 	addi	r2,r2,32
 200086c:	da800317 	ldw	r10,12(sp)
 2000870:	da400417 	ldw	r9,16(sp)
 2000874:	d9800717 	ldw	r6,28(sp)
 2000878:	d9400217 	ldw	r5,8(sp)
 200087c:	003edd06 	br	20003f4 <__reset+0xfdfff3f4>
 2000880:	143ff604 	addi	r16,r2,-40
 2000884:	ac20983a 	sll	r16,r21,r16
 2000888:	002d883a 	mov	r22,zero
 200088c:	003ec106 	br	2000394 <__reset+0xfdfff394>
 2000890:	d9800715 	stw	r6,28(sp)
 2000894:	d9c00215 	stw	r7,8(sp)
 2000898:	da400415 	stw	r9,16(sp)
 200089c:	20013fc0 	call	20013fc <__clzsi2>
 20008a0:	10800804 	addi	r2,r2,32
 20008a4:	da400417 	ldw	r9,16(sp)
 20008a8:	d9c00217 	ldw	r7,8(sp)
 20008ac:	d9800717 	ldw	r6,28(sp)
 20008b0:	003eae06 	br	200036c <__reset+0xfdfff36c>
 20008b4:	00c00044 	movi	r3,1
 20008b8:	1887c83a 	sub	r3,r3,r2
 20008bc:	01000e04 	movi	r4,56
 20008c0:	20fe8516 	blt	r4,r3,20002d8 <__reset+0xfdfff2d8>
 20008c4:	010007c4 	movi	r4,31
 20008c8:	20c01b16 	blt	r4,r3,2000938 <__muldf3+0x7cc>
 20008cc:	00800804 	movi	r2,32
 20008d0:	10c5c83a 	sub	r2,r2,r3
 20008d4:	888a983a 	sll	r5,r17,r2
 20008d8:	90c8d83a 	srl	r4,r18,r3
 20008dc:	9084983a 	sll	r2,r18,r2
 20008e0:	88e2d83a 	srl	r17,r17,r3
 20008e4:	2906b03a 	or	r3,r5,r4
 20008e8:	1004c03a 	cmpne	r2,r2,zero
 20008ec:	1886b03a 	or	r3,r3,r2
 20008f0:	188001cc 	andi	r2,r3,7
 20008f4:	10000726 	beq	r2,zero,2000914 <__muldf3+0x7a8>
 20008f8:	188003cc 	andi	r2,r3,15
 20008fc:	01000104 	movi	r4,4
 2000900:	11000426 	beq	r2,r4,2000914 <__muldf3+0x7a8>
 2000904:	1805883a 	mov	r2,r3
 2000908:	10c00104 	addi	r3,r2,4
 200090c:	1885803a 	cmpltu	r2,r3,r2
 2000910:	88a3883a 	add	r17,r17,r2
 2000914:	8880202c 	andhi	r2,r17,128
 2000918:	10001c26 	beq	r2,zero,200098c <__muldf3+0x820>
 200091c:	3027883a 	mov	r19,r6
 2000920:	00800044 	movi	r2,1
 2000924:	0021883a 	mov	r16,zero
 2000928:	002d883a 	mov	r22,zero
 200092c:	003e6e06 	br	20002e8 <__reset+0xfdfff2e8>
 2000930:	4007883a 	mov	r3,r8
 2000934:	003f9706 	br	2000794 <__reset+0xfdfff794>
 2000938:	017ff844 	movi	r5,-31
 200093c:	2885c83a 	sub	r2,r5,r2
 2000940:	888ad83a 	srl	r5,r17,r2
 2000944:	00800804 	movi	r2,32
 2000948:	18801a26 	beq	r3,r2,20009b4 <__muldf3+0x848>
 200094c:	01001004 	movi	r4,64
 2000950:	20c7c83a 	sub	r3,r4,r3
 2000954:	88e2983a 	sll	r17,r17,r3
 2000958:	8ca4b03a 	or	r18,r17,r18
 200095c:	9004c03a 	cmpne	r2,r18,zero
 2000960:	2884b03a 	or	r2,r5,r2
 2000964:	144001cc 	andi	r17,r2,7
 2000968:	88000d1e 	bne	r17,zero,20009a0 <__muldf3+0x834>
 200096c:	0021883a 	mov	r16,zero
 2000970:	102cd0fa 	srli	r22,r2,3
 2000974:	3027883a 	mov	r19,r6
 2000978:	0005883a 	mov	r2,zero
 200097c:	b46cb03a 	or	r22,r22,r17
 2000980:	003e5906 	br	20002e8 <__reset+0xfdfff2e8>
 2000984:	1007883a 	mov	r3,r2
 2000988:	0023883a 	mov	r17,zero
 200098c:	8820927a 	slli	r16,r17,9
 2000990:	1805883a 	mov	r2,r3
 2000994:	8822977a 	slli	r17,r17,29
 2000998:	8020d33a 	srli	r16,r16,12
 200099c:	003ff406 	br	2000970 <__reset+0xfdfff970>
 20009a0:	10c003cc 	andi	r3,r2,15
 20009a4:	01000104 	movi	r4,4
 20009a8:	193ff626 	beq	r3,r4,2000984 <__reset+0xfdfff984>
 20009ac:	0023883a 	mov	r17,zero
 20009b0:	003fd506 	br	2000908 <__reset+0xfdfff908>
 20009b4:	0023883a 	mov	r17,zero
 20009b8:	003fe706 	br	2000958 <__reset+0xfdfff958>
 20009bc:	00800434 	movhi	r2,16
 20009c0:	8c000234 	orhi	r16,r17,8
 20009c4:	10bfffc4 	addi	r2,r2,-1
 20009c8:	3027883a 	mov	r19,r6
 20009cc:	80a0703a 	and	r16,r16,r2
 20009d0:	902d883a 	mov	r22,r18
 20009d4:	003eac06 	br	2000488 <__reset+0xfdfff488>

020009d8 <__subdf3>:
 20009d8:	02000434 	movhi	r8,16
 20009dc:	423fffc4 	addi	r8,r8,-1
 20009e0:	defffb04 	addi	sp,sp,-20
 20009e4:	2a14703a 	and	r10,r5,r8
 20009e8:	3812d53a 	srli	r9,r7,20
 20009ec:	3a10703a 	and	r8,r7,r8
 20009f0:	2006d77a 	srli	r3,r4,29
 20009f4:	3004d77a 	srli	r2,r6,29
 20009f8:	dc000015 	stw	r16,0(sp)
 20009fc:	501490fa 	slli	r10,r10,3
 2000a00:	2820d53a 	srli	r16,r5,20
 2000a04:	401090fa 	slli	r8,r8,3
 2000a08:	dc800215 	stw	r18,8(sp)
 2000a0c:	dc400115 	stw	r17,4(sp)
 2000a10:	dfc00415 	stw	ra,16(sp)
 2000a14:	202290fa 	slli	r17,r4,3
 2000a18:	dcc00315 	stw	r19,12(sp)
 2000a1c:	4a41ffcc 	andi	r9,r9,2047
 2000a20:	0101ffc4 	movi	r4,2047
 2000a24:	2824d7fa 	srli	r18,r5,31
 2000a28:	8401ffcc 	andi	r16,r16,2047
 2000a2c:	50c6b03a 	or	r3,r10,r3
 2000a30:	380ed7fa 	srli	r7,r7,31
 2000a34:	408ab03a 	or	r5,r8,r2
 2000a38:	300c90fa 	slli	r6,r6,3
 2000a3c:	49009626 	beq	r9,r4,2000c98 <__subdf3+0x2c0>
 2000a40:	39c0005c 	xori	r7,r7,1
 2000a44:	8245c83a 	sub	r2,r16,r9
 2000a48:	3c807426 	beq	r7,r18,2000c1c <__subdf3+0x244>
 2000a4c:	0080af0e 	bge	zero,r2,2000d0c <__subdf3+0x334>
 2000a50:	48002a1e 	bne	r9,zero,2000afc <__subdf3+0x124>
 2000a54:	2988b03a 	or	r4,r5,r6
 2000a58:	20009a1e 	bne	r4,zero,2000cc4 <__subdf3+0x2ec>
 2000a5c:	888001cc 	andi	r2,r17,7
 2000a60:	10000726 	beq	r2,zero,2000a80 <__subdf3+0xa8>
 2000a64:	888003cc 	andi	r2,r17,15
 2000a68:	01000104 	movi	r4,4
 2000a6c:	11000426 	beq	r2,r4,2000a80 <__subdf3+0xa8>
 2000a70:	890b883a 	add	r5,r17,r4
 2000a74:	2c63803a 	cmpltu	r17,r5,r17
 2000a78:	1c47883a 	add	r3,r3,r17
 2000a7c:	2823883a 	mov	r17,r5
 2000a80:	1880202c 	andhi	r2,r3,128
 2000a84:	10005926 	beq	r2,zero,2000bec <__subdf3+0x214>
 2000a88:	84000044 	addi	r16,r16,1
 2000a8c:	0081ffc4 	movi	r2,2047
 2000a90:	8080be26 	beq	r16,r2,2000d8c <__subdf3+0x3b4>
 2000a94:	017fe034 	movhi	r5,65408
 2000a98:	297fffc4 	addi	r5,r5,-1
 2000a9c:	1946703a 	and	r3,r3,r5
 2000aa0:	1804977a 	slli	r2,r3,29
 2000aa4:	1806927a 	slli	r3,r3,9
 2000aa8:	8822d0fa 	srli	r17,r17,3
 2000aac:	8401ffcc 	andi	r16,r16,2047
 2000ab0:	180ad33a 	srli	r5,r3,12
 2000ab4:	9100004c 	andi	r4,r18,1
 2000ab8:	1444b03a 	or	r2,r2,r17
 2000abc:	80c1ffcc 	andi	r3,r16,2047
 2000ac0:	1820953a 	slli	r16,r3,20
 2000ac4:	20c03fcc 	andi	r3,r4,255
 2000ac8:	180897fa 	slli	r4,r3,31
 2000acc:	00c00434 	movhi	r3,16
 2000ad0:	18ffffc4 	addi	r3,r3,-1
 2000ad4:	28c6703a 	and	r3,r5,r3
 2000ad8:	1c06b03a 	or	r3,r3,r16
 2000adc:	1906b03a 	or	r3,r3,r4
 2000ae0:	dfc00417 	ldw	ra,16(sp)
 2000ae4:	dcc00317 	ldw	r19,12(sp)
 2000ae8:	dc800217 	ldw	r18,8(sp)
 2000aec:	dc400117 	ldw	r17,4(sp)
 2000af0:	dc000017 	ldw	r16,0(sp)
 2000af4:	dec00504 	addi	sp,sp,20
 2000af8:	f800283a 	ret
 2000afc:	0101ffc4 	movi	r4,2047
 2000b00:	813fd626 	beq	r16,r4,2000a5c <__reset+0xfdfffa5c>
 2000b04:	29402034 	orhi	r5,r5,128
 2000b08:	01000e04 	movi	r4,56
 2000b0c:	2080a316 	blt	r4,r2,2000d9c <__subdf3+0x3c4>
 2000b10:	010007c4 	movi	r4,31
 2000b14:	2080c616 	blt	r4,r2,2000e30 <__subdf3+0x458>
 2000b18:	01000804 	movi	r4,32
 2000b1c:	2089c83a 	sub	r4,r4,r2
 2000b20:	2910983a 	sll	r8,r5,r4
 2000b24:	308ed83a 	srl	r7,r6,r2
 2000b28:	3108983a 	sll	r4,r6,r4
 2000b2c:	2884d83a 	srl	r2,r5,r2
 2000b30:	41ccb03a 	or	r6,r8,r7
 2000b34:	2008c03a 	cmpne	r4,r4,zero
 2000b38:	310cb03a 	or	r6,r6,r4
 2000b3c:	898dc83a 	sub	r6,r17,r6
 2000b40:	89a3803a 	cmpltu	r17,r17,r6
 2000b44:	1887c83a 	sub	r3,r3,r2
 2000b48:	1c47c83a 	sub	r3,r3,r17
 2000b4c:	3023883a 	mov	r17,r6
 2000b50:	1880202c 	andhi	r2,r3,128
 2000b54:	10002326 	beq	r2,zero,2000be4 <__subdf3+0x20c>
 2000b58:	04c02034 	movhi	r19,128
 2000b5c:	9cffffc4 	addi	r19,r19,-1
 2000b60:	1ce6703a 	and	r19,r3,r19
 2000b64:	98007a26 	beq	r19,zero,2000d50 <__subdf3+0x378>
 2000b68:	9809883a 	mov	r4,r19
 2000b6c:	20013fc0 	call	20013fc <__clzsi2>
 2000b70:	113ffe04 	addi	r4,r2,-8
 2000b74:	00c007c4 	movi	r3,31
 2000b78:	19007b16 	blt	r3,r4,2000d68 <__subdf3+0x390>
 2000b7c:	00800804 	movi	r2,32
 2000b80:	1105c83a 	sub	r2,r2,r4
 2000b84:	8884d83a 	srl	r2,r17,r2
 2000b88:	9906983a 	sll	r3,r19,r4
 2000b8c:	8922983a 	sll	r17,r17,r4
 2000b90:	10c4b03a 	or	r2,r2,r3
 2000b94:	24007816 	blt	r4,r16,2000d78 <__subdf3+0x3a0>
 2000b98:	2421c83a 	sub	r16,r4,r16
 2000b9c:	80c00044 	addi	r3,r16,1
 2000ba0:	010007c4 	movi	r4,31
 2000ba4:	20c09516 	blt	r4,r3,2000dfc <__subdf3+0x424>
 2000ba8:	01400804 	movi	r5,32
 2000bac:	28cbc83a 	sub	r5,r5,r3
 2000bb0:	88c8d83a 	srl	r4,r17,r3
 2000bb4:	8962983a 	sll	r17,r17,r5
 2000bb8:	114a983a 	sll	r5,r2,r5
 2000bbc:	10c6d83a 	srl	r3,r2,r3
 2000bc0:	8804c03a 	cmpne	r2,r17,zero
 2000bc4:	290ab03a 	or	r5,r5,r4
 2000bc8:	28a2b03a 	or	r17,r5,r2
 2000bcc:	0021883a 	mov	r16,zero
 2000bd0:	003fa206 	br	2000a5c <__reset+0xfdfffa5c>
 2000bd4:	2090b03a 	or	r8,r4,r2
 2000bd8:	40018e26 	beq	r8,zero,2001214 <__subdf3+0x83c>
 2000bdc:	1007883a 	mov	r3,r2
 2000be0:	2023883a 	mov	r17,r4
 2000be4:	888001cc 	andi	r2,r17,7
 2000be8:	103f9e1e 	bne	r2,zero,2000a64 <__reset+0xfdfffa64>
 2000bec:	1804977a 	slli	r2,r3,29
 2000bf0:	8822d0fa 	srli	r17,r17,3
 2000bf4:	1810d0fa 	srli	r8,r3,3
 2000bf8:	9100004c 	andi	r4,r18,1
 2000bfc:	1444b03a 	or	r2,r2,r17
 2000c00:	00c1ffc4 	movi	r3,2047
 2000c04:	80c02826 	beq	r16,r3,2000ca8 <__subdf3+0x2d0>
 2000c08:	01400434 	movhi	r5,16
 2000c0c:	297fffc4 	addi	r5,r5,-1
 2000c10:	80e0703a 	and	r16,r16,r3
 2000c14:	414a703a 	and	r5,r8,r5
 2000c18:	003fa806 	br	2000abc <__reset+0xfdfffabc>
 2000c1c:	0080630e 	bge	zero,r2,2000dac <__subdf3+0x3d4>
 2000c20:	48003026 	beq	r9,zero,2000ce4 <__subdf3+0x30c>
 2000c24:	0101ffc4 	movi	r4,2047
 2000c28:	813f8c26 	beq	r16,r4,2000a5c <__reset+0xfdfffa5c>
 2000c2c:	29402034 	orhi	r5,r5,128
 2000c30:	01000e04 	movi	r4,56
 2000c34:	2080a90e 	bge	r4,r2,2000edc <__subdf3+0x504>
 2000c38:	298cb03a 	or	r6,r5,r6
 2000c3c:	3012c03a 	cmpne	r9,r6,zero
 2000c40:	0005883a 	mov	r2,zero
 2000c44:	4c53883a 	add	r9,r9,r17
 2000c48:	4c63803a 	cmpltu	r17,r9,r17
 2000c4c:	10c7883a 	add	r3,r2,r3
 2000c50:	88c7883a 	add	r3,r17,r3
 2000c54:	4823883a 	mov	r17,r9
 2000c58:	1880202c 	andhi	r2,r3,128
 2000c5c:	1000d026 	beq	r2,zero,2000fa0 <__subdf3+0x5c8>
 2000c60:	84000044 	addi	r16,r16,1
 2000c64:	0081ffc4 	movi	r2,2047
 2000c68:	8080fe26 	beq	r16,r2,2001064 <__subdf3+0x68c>
 2000c6c:	00bfe034 	movhi	r2,65408
 2000c70:	10bfffc4 	addi	r2,r2,-1
 2000c74:	1886703a 	and	r3,r3,r2
 2000c78:	880ad07a 	srli	r5,r17,1
 2000c7c:	180497fa 	slli	r2,r3,31
 2000c80:	8900004c 	andi	r4,r17,1
 2000c84:	2922b03a 	or	r17,r5,r4
 2000c88:	1806d07a 	srli	r3,r3,1
 2000c8c:	1462b03a 	or	r17,r2,r17
 2000c90:	3825883a 	mov	r18,r7
 2000c94:	003f7106 	br	2000a5c <__reset+0xfdfffa5c>
 2000c98:	2984b03a 	or	r2,r5,r6
 2000c9c:	103f6826 	beq	r2,zero,2000a40 <__reset+0xfdfffa40>
 2000ca0:	39c03fcc 	andi	r7,r7,255
 2000ca4:	003f6706 	br	2000a44 <__reset+0xfdfffa44>
 2000ca8:	4086b03a 	or	r3,r8,r2
 2000cac:	18015226 	beq	r3,zero,20011f8 <__subdf3+0x820>
 2000cb0:	00c00434 	movhi	r3,16
 2000cb4:	41400234 	orhi	r5,r8,8
 2000cb8:	18ffffc4 	addi	r3,r3,-1
 2000cbc:	28ca703a 	and	r5,r5,r3
 2000cc0:	003f7e06 	br	2000abc <__reset+0xfdfffabc>
 2000cc4:	10bfffc4 	addi	r2,r2,-1
 2000cc8:	1000491e 	bne	r2,zero,2000df0 <__subdf3+0x418>
 2000ccc:	898fc83a 	sub	r7,r17,r6
 2000cd0:	89e3803a 	cmpltu	r17,r17,r7
 2000cd4:	1947c83a 	sub	r3,r3,r5
 2000cd8:	1c47c83a 	sub	r3,r3,r17
 2000cdc:	3823883a 	mov	r17,r7
 2000ce0:	003f9b06 	br	2000b50 <__reset+0xfdfffb50>
 2000ce4:	2988b03a 	or	r4,r5,r6
 2000ce8:	203f5c26 	beq	r4,zero,2000a5c <__reset+0xfdfffa5c>
 2000cec:	10bfffc4 	addi	r2,r2,-1
 2000cf0:	1000931e 	bne	r2,zero,2000f40 <__subdf3+0x568>
 2000cf4:	898d883a 	add	r6,r17,r6
 2000cf8:	3463803a 	cmpltu	r17,r6,r17
 2000cfc:	1947883a 	add	r3,r3,r5
 2000d00:	88c7883a 	add	r3,r17,r3
 2000d04:	3023883a 	mov	r17,r6
 2000d08:	003fd306 	br	2000c58 <__reset+0xfdfffc58>
 2000d0c:	1000541e 	bne	r2,zero,2000e60 <__subdf3+0x488>
 2000d10:	80800044 	addi	r2,r16,1
 2000d14:	1081ffcc 	andi	r2,r2,2047
 2000d18:	01000044 	movi	r4,1
 2000d1c:	2080a20e 	bge	r4,r2,2000fa8 <__subdf3+0x5d0>
 2000d20:	8989c83a 	sub	r4,r17,r6
 2000d24:	8905803a 	cmpltu	r2,r17,r4
 2000d28:	1967c83a 	sub	r19,r3,r5
 2000d2c:	98a7c83a 	sub	r19,r19,r2
 2000d30:	9880202c 	andhi	r2,r19,128
 2000d34:	10006326 	beq	r2,zero,2000ec4 <__subdf3+0x4ec>
 2000d38:	3463c83a 	sub	r17,r6,r17
 2000d3c:	28c7c83a 	sub	r3,r5,r3
 2000d40:	344d803a 	cmpltu	r6,r6,r17
 2000d44:	19a7c83a 	sub	r19,r3,r6
 2000d48:	3825883a 	mov	r18,r7
 2000d4c:	983f861e 	bne	r19,zero,2000b68 <__reset+0xfdfffb68>
 2000d50:	8809883a 	mov	r4,r17
 2000d54:	20013fc0 	call	20013fc <__clzsi2>
 2000d58:	10800804 	addi	r2,r2,32
 2000d5c:	113ffe04 	addi	r4,r2,-8
 2000d60:	00c007c4 	movi	r3,31
 2000d64:	193f850e 	bge	r3,r4,2000b7c <__reset+0xfdfffb7c>
 2000d68:	10bff604 	addi	r2,r2,-40
 2000d6c:	8884983a 	sll	r2,r17,r2
 2000d70:	0023883a 	mov	r17,zero
 2000d74:	243f880e 	bge	r4,r16,2000b98 <__reset+0xfdfffb98>
 2000d78:	00ffe034 	movhi	r3,65408
 2000d7c:	18ffffc4 	addi	r3,r3,-1
 2000d80:	8121c83a 	sub	r16,r16,r4
 2000d84:	10c6703a 	and	r3,r2,r3
 2000d88:	003f3406 	br	2000a5c <__reset+0xfdfffa5c>
 2000d8c:	9100004c 	andi	r4,r18,1
 2000d90:	000b883a 	mov	r5,zero
 2000d94:	0005883a 	mov	r2,zero
 2000d98:	003f4806 	br	2000abc <__reset+0xfdfffabc>
 2000d9c:	298cb03a 	or	r6,r5,r6
 2000da0:	300cc03a 	cmpne	r6,r6,zero
 2000da4:	0005883a 	mov	r2,zero
 2000da8:	003f6406 	br	2000b3c <__reset+0xfdfffb3c>
 2000dac:	10009a1e 	bne	r2,zero,2001018 <__subdf3+0x640>
 2000db0:	82400044 	addi	r9,r16,1
 2000db4:	4881ffcc 	andi	r2,r9,2047
 2000db8:	02800044 	movi	r10,1
 2000dbc:	5080670e 	bge	r10,r2,2000f5c <__subdf3+0x584>
 2000dc0:	0081ffc4 	movi	r2,2047
 2000dc4:	4880af26 	beq	r9,r2,2001084 <__subdf3+0x6ac>
 2000dc8:	898d883a 	add	r6,r17,r6
 2000dcc:	1945883a 	add	r2,r3,r5
 2000dd0:	3447803a 	cmpltu	r3,r6,r17
 2000dd4:	1887883a 	add	r3,r3,r2
 2000dd8:	182297fa 	slli	r17,r3,31
 2000ddc:	300cd07a 	srli	r6,r6,1
 2000de0:	1806d07a 	srli	r3,r3,1
 2000de4:	4821883a 	mov	r16,r9
 2000de8:	89a2b03a 	or	r17,r17,r6
 2000dec:	003f1b06 	br	2000a5c <__reset+0xfdfffa5c>
 2000df0:	0101ffc4 	movi	r4,2047
 2000df4:	813f441e 	bne	r16,r4,2000b08 <__reset+0xfdfffb08>
 2000df8:	003f1806 	br	2000a5c <__reset+0xfdfffa5c>
 2000dfc:	843ff844 	addi	r16,r16,-31
 2000e00:	01400804 	movi	r5,32
 2000e04:	1408d83a 	srl	r4,r2,r16
 2000e08:	19405026 	beq	r3,r5,2000f4c <__subdf3+0x574>
 2000e0c:	01401004 	movi	r5,64
 2000e10:	28c7c83a 	sub	r3,r5,r3
 2000e14:	10c4983a 	sll	r2,r2,r3
 2000e18:	88a2b03a 	or	r17,r17,r2
 2000e1c:	8822c03a 	cmpne	r17,r17,zero
 2000e20:	2462b03a 	or	r17,r4,r17
 2000e24:	0007883a 	mov	r3,zero
 2000e28:	0021883a 	mov	r16,zero
 2000e2c:	003f6d06 	br	2000be4 <__reset+0xfdfffbe4>
 2000e30:	11fff804 	addi	r7,r2,-32
 2000e34:	01000804 	movi	r4,32
 2000e38:	29ced83a 	srl	r7,r5,r7
 2000e3c:	11004526 	beq	r2,r4,2000f54 <__subdf3+0x57c>
 2000e40:	01001004 	movi	r4,64
 2000e44:	2089c83a 	sub	r4,r4,r2
 2000e48:	2904983a 	sll	r2,r5,r4
 2000e4c:	118cb03a 	or	r6,r2,r6
 2000e50:	300cc03a 	cmpne	r6,r6,zero
 2000e54:	398cb03a 	or	r6,r7,r6
 2000e58:	0005883a 	mov	r2,zero
 2000e5c:	003f3706 	br	2000b3c <__reset+0xfdfffb3c>
 2000e60:	80002a26 	beq	r16,zero,2000f0c <__subdf3+0x534>
 2000e64:	0101ffc4 	movi	r4,2047
 2000e68:	49006626 	beq	r9,r4,2001004 <__subdf3+0x62c>
 2000e6c:	0085c83a 	sub	r2,zero,r2
 2000e70:	18c02034 	orhi	r3,r3,128
 2000e74:	01000e04 	movi	r4,56
 2000e78:	20807e16 	blt	r4,r2,2001074 <__subdf3+0x69c>
 2000e7c:	010007c4 	movi	r4,31
 2000e80:	2080e716 	blt	r4,r2,2001220 <__subdf3+0x848>
 2000e84:	01000804 	movi	r4,32
 2000e88:	2089c83a 	sub	r4,r4,r2
 2000e8c:	1914983a 	sll	r10,r3,r4
 2000e90:	8890d83a 	srl	r8,r17,r2
 2000e94:	8908983a 	sll	r4,r17,r4
 2000e98:	1884d83a 	srl	r2,r3,r2
 2000e9c:	5222b03a 	or	r17,r10,r8
 2000ea0:	2006c03a 	cmpne	r3,r4,zero
 2000ea4:	88e2b03a 	or	r17,r17,r3
 2000ea8:	3463c83a 	sub	r17,r6,r17
 2000eac:	2885c83a 	sub	r2,r5,r2
 2000eb0:	344d803a 	cmpltu	r6,r6,r17
 2000eb4:	1187c83a 	sub	r3,r2,r6
 2000eb8:	4821883a 	mov	r16,r9
 2000ebc:	3825883a 	mov	r18,r7
 2000ec0:	003f2306 	br	2000b50 <__reset+0xfdfffb50>
 2000ec4:	24d0b03a 	or	r8,r4,r19
 2000ec8:	40001b1e 	bne	r8,zero,2000f38 <__subdf3+0x560>
 2000ecc:	0005883a 	mov	r2,zero
 2000ed0:	0009883a 	mov	r4,zero
 2000ed4:	0021883a 	mov	r16,zero
 2000ed8:	003f4906 	br	2000c00 <__reset+0xfdfffc00>
 2000edc:	010007c4 	movi	r4,31
 2000ee0:	20803a16 	blt	r4,r2,2000fcc <__subdf3+0x5f4>
 2000ee4:	01000804 	movi	r4,32
 2000ee8:	2089c83a 	sub	r4,r4,r2
 2000eec:	2912983a 	sll	r9,r5,r4
 2000ef0:	3090d83a 	srl	r8,r6,r2
 2000ef4:	3108983a 	sll	r4,r6,r4
 2000ef8:	2884d83a 	srl	r2,r5,r2
 2000efc:	4a12b03a 	or	r9,r9,r8
 2000f00:	2008c03a 	cmpne	r4,r4,zero
 2000f04:	4912b03a 	or	r9,r9,r4
 2000f08:	003f4e06 	br	2000c44 <__reset+0xfdfffc44>
 2000f0c:	1c48b03a 	or	r4,r3,r17
 2000f10:	20003c26 	beq	r4,zero,2001004 <__subdf3+0x62c>
 2000f14:	0084303a 	nor	r2,zero,r2
 2000f18:	1000381e 	bne	r2,zero,2000ffc <__subdf3+0x624>
 2000f1c:	3463c83a 	sub	r17,r6,r17
 2000f20:	28c5c83a 	sub	r2,r5,r3
 2000f24:	344d803a 	cmpltu	r6,r6,r17
 2000f28:	1187c83a 	sub	r3,r2,r6
 2000f2c:	4821883a 	mov	r16,r9
 2000f30:	3825883a 	mov	r18,r7
 2000f34:	003f0606 	br	2000b50 <__reset+0xfdfffb50>
 2000f38:	2023883a 	mov	r17,r4
 2000f3c:	003f0906 	br	2000b64 <__reset+0xfdfffb64>
 2000f40:	0101ffc4 	movi	r4,2047
 2000f44:	813f3a1e 	bne	r16,r4,2000c30 <__reset+0xfdfffc30>
 2000f48:	003ec406 	br	2000a5c <__reset+0xfdfffa5c>
 2000f4c:	0005883a 	mov	r2,zero
 2000f50:	003fb106 	br	2000e18 <__reset+0xfdfffe18>
 2000f54:	0005883a 	mov	r2,zero
 2000f58:	003fbc06 	br	2000e4c <__reset+0xfdfffe4c>
 2000f5c:	1c44b03a 	or	r2,r3,r17
 2000f60:	80008e1e 	bne	r16,zero,200119c <__subdf3+0x7c4>
 2000f64:	1000c826 	beq	r2,zero,2001288 <__subdf3+0x8b0>
 2000f68:	2984b03a 	or	r2,r5,r6
 2000f6c:	103ebb26 	beq	r2,zero,2000a5c <__reset+0xfdfffa5c>
 2000f70:	8989883a 	add	r4,r17,r6
 2000f74:	1945883a 	add	r2,r3,r5
 2000f78:	2447803a 	cmpltu	r3,r4,r17
 2000f7c:	1887883a 	add	r3,r3,r2
 2000f80:	1880202c 	andhi	r2,r3,128
 2000f84:	2023883a 	mov	r17,r4
 2000f88:	103f1626 	beq	r2,zero,2000be4 <__reset+0xfdfffbe4>
 2000f8c:	00bfe034 	movhi	r2,65408
 2000f90:	10bfffc4 	addi	r2,r2,-1
 2000f94:	5021883a 	mov	r16,r10
 2000f98:	1886703a 	and	r3,r3,r2
 2000f9c:	003eaf06 	br	2000a5c <__reset+0xfdfffa5c>
 2000fa0:	3825883a 	mov	r18,r7
 2000fa4:	003f0f06 	br	2000be4 <__reset+0xfdfffbe4>
 2000fa8:	1c44b03a 	or	r2,r3,r17
 2000fac:	8000251e 	bne	r16,zero,2001044 <__subdf3+0x66c>
 2000fb0:	1000661e 	bne	r2,zero,200114c <__subdf3+0x774>
 2000fb4:	2990b03a 	or	r8,r5,r6
 2000fb8:	40009626 	beq	r8,zero,2001214 <__subdf3+0x83c>
 2000fbc:	2807883a 	mov	r3,r5
 2000fc0:	3023883a 	mov	r17,r6
 2000fc4:	3825883a 	mov	r18,r7
 2000fc8:	003ea406 	br	2000a5c <__reset+0xfdfffa5c>
 2000fcc:	127ff804 	addi	r9,r2,-32
 2000fd0:	01000804 	movi	r4,32
 2000fd4:	2a52d83a 	srl	r9,r5,r9
 2000fd8:	11008c26 	beq	r2,r4,200120c <__subdf3+0x834>
 2000fdc:	01001004 	movi	r4,64
 2000fe0:	2085c83a 	sub	r2,r4,r2
 2000fe4:	2884983a 	sll	r2,r5,r2
 2000fe8:	118cb03a 	or	r6,r2,r6
 2000fec:	300cc03a 	cmpne	r6,r6,zero
 2000ff0:	4992b03a 	or	r9,r9,r6
 2000ff4:	0005883a 	mov	r2,zero
 2000ff8:	003f1206 	br	2000c44 <__reset+0xfdfffc44>
 2000ffc:	0101ffc4 	movi	r4,2047
 2001000:	493f9c1e 	bne	r9,r4,2000e74 <__reset+0xfdfffe74>
 2001004:	2807883a 	mov	r3,r5
 2001008:	3023883a 	mov	r17,r6
 200100c:	4821883a 	mov	r16,r9
 2001010:	3825883a 	mov	r18,r7
 2001014:	003e9106 	br	2000a5c <__reset+0xfdfffa5c>
 2001018:	80001f1e 	bne	r16,zero,2001098 <__subdf3+0x6c0>
 200101c:	1c48b03a 	or	r4,r3,r17
 2001020:	20005a26 	beq	r4,zero,200118c <__subdf3+0x7b4>
 2001024:	0084303a 	nor	r2,zero,r2
 2001028:	1000561e 	bne	r2,zero,2001184 <__subdf3+0x7ac>
 200102c:	89a3883a 	add	r17,r17,r6
 2001030:	1945883a 	add	r2,r3,r5
 2001034:	898d803a 	cmpltu	r6,r17,r6
 2001038:	3087883a 	add	r3,r6,r2
 200103c:	4821883a 	mov	r16,r9
 2001040:	003f0506 	br	2000c58 <__reset+0xfdfffc58>
 2001044:	10002b1e 	bne	r2,zero,20010f4 <__subdf3+0x71c>
 2001048:	2984b03a 	or	r2,r5,r6
 200104c:	10008026 	beq	r2,zero,2001250 <__subdf3+0x878>
 2001050:	2807883a 	mov	r3,r5
 2001054:	3023883a 	mov	r17,r6
 2001058:	3825883a 	mov	r18,r7
 200105c:	0401ffc4 	movi	r16,2047
 2001060:	003e7e06 	br	2000a5c <__reset+0xfdfffa5c>
 2001064:	3809883a 	mov	r4,r7
 2001068:	0011883a 	mov	r8,zero
 200106c:	0005883a 	mov	r2,zero
 2001070:	003ee306 	br	2000c00 <__reset+0xfdfffc00>
 2001074:	1c62b03a 	or	r17,r3,r17
 2001078:	8822c03a 	cmpne	r17,r17,zero
 200107c:	0005883a 	mov	r2,zero
 2001080:	003f8906 	br	2000ea8 <__reset+0xfdfffea8>
 2001084:	3809883a 	mov	r4,r7
 2001088:	4821883a 	mov	r16,r9
 200108c:	0011883a 	mov	r8,zero
 2001090:	0005883a 	mov	r2,zero
 2001094:	003eda06 	br	2000c00 <__reset+0xfdfffc00>
 2001098:	0101ffc4 	movi	r4,2047
 200109c:	49003b26 	beq	r9,r4,200118c <__subdf3+0x7b4>
 20010a0:	0085c83a 	sub	r2,zero,r2
 20010a4:	18c02034 	orhi	r3,r3,128
 20010a8:	01000e04 	movi	r4,56
 20010ac:	20806e16 	blt	r4,r2,2001268 <__subdf3+0x890>
 20010b0:	010007c4 	movi	r4,31
 20010b4:	20807716 	blt	r4,r2,2001294 <__subdf3+0x8bc>
 20010b8:	01000804 	movi	r4,32
 20010bc:	2089c83a 	sub	r4,r4,r2
 20010c0:	1914983a 	sll	r10,r3,r4
 20010c4:	8890d83a 	srl	r8,r17,r2
 20010c8:	8908983a 	sll	r4,r17,r4
 20010cc:	1884d83a 	srl	r2,r3,r2
 20010d0:	5222b03a 	or	r17,r10,r8
 20010d4:	2006c03a 	cmpne	r3,r4,zero
 20010d8:	88e2b03a 	or	r17,r17,r3
 20010dc:	89a3883a 	add	r17,r17,r6
 20010e0:	1145883a 	add	r2,r2,r5
 20010e4:	898d803a 	cmpltu	r6,r17,r6
 20010e8:	3087883a 	add	r3,r6,r2
 20010ec:	4821883a 	mov	r16,r9
 20010f0:	003ed906 	br	2000c58 <__reset+0xfdfffc58>
 20010f4:	2984b03a 	or	r2,r5,r6
 20010f8:	10004226 	beq	r2,zero,2001204 <__subdf3+0x82c>
 20010fc:	1808d0fa 	srli	r4,r3,3
 2001100:	8822d0fa 	srli	r17,r17,3
 2001104:	1806977a 	slli	r3,r3,29
 2001108:	2080022c 	andhi	r2,r4,8
 200110c:	1c62b03a 	or	r17,r3,r17
 2001110:	10000826 	beq	r2,zero,2001134 <__subdf3+0x75c>
 2001114:	2812d0fa 	srli	r9,r5,3
 2001118:	4880022c 	andhi	r2,r9,8
 200111c:	1000051e 	bne	r2,zero,2001134 <__subdf3+0x75c>
 2001120:	300cd0fa 	srli	r6,r6,3
 2001124:	2804977a 	slli	r2,r5,29
 2001128:	4809883a 	mov	r4,r9
 200112c:	3825883a 	mov	r18,r7
 2001130:	11a2b03a 	or	r17,r2,r6
 2001134:	8806d77a 	srli	r3,r17,29
 2001138:	200890fa 	slli	r4,r4,3
 200113c:	882290fa 	slli	r17,r17,3
 2001140:	0401ffc4 	movi	r16,2047
 2001144:	1906b03a 	or	r3,r3,r4
 2001148:	003e4406 	br	2000a5c <__reset+0xfdfffa5c>
 200114c:	2984b03a 	or	r2,r5,r6
 2001150:	103e4226 	beq	r2,zero,2000a5c <__reset+0xfdfffa5c>
 2001154:	8989c83a 	sub	r4,r17,r6
 2001158:	8911803a 	cmpltu	r8,r17,r4
 200115c:	1945c83a 	sub	r2,r3,r5
 2001160:	1205c83a 	sub	r2,r2,r8
 2001164:	1200202c 	andhi	r8,r2,128
 2001168:	403e9a26 	beq	r8,zero,2000bd4 <__reset+0xfdfffbd4>
 200116c:	3463c83a 	sub	r17,r6,r17
 2001170:	28c5c83a 	sub	r2,r5,r3
 2001174:	344d803a 	cmpltu	r6,r6,r17
 2001178:	1187c83a 	sub	r3,r2,r6
 200117c:	3825883a 	mov	r18,r7
 2001180:	003e3606 	br	2000a5c <__reset+0xfdfffa5c>
 2001184:	0101ffc4 	movi	r4,2047
 2001188:	493fc71e 	bne	r9,r4,20010a8 <__reset+0xfe0000a8>
 200118c:	2807883a 	mov	r3,r5
 2001190:	3023883a 	mov	r17,r6
 2001194:	4821883a 	mov	r16,r9
 2001198:	003e3006 	br	2000a5c <__reset+0xfdfffa5c>
 200119c:	10003626 	beq	r2,zero,2001278 <__subdf3+0x8a0>
 20011a0:	2984b03a 	or	r2,r5,r6
 20011a4:	10001726 	beq	r2,zero,2001204 <__subdf3+0x82c>
 20011a8:	1808d0fa 	srli	r4,r3,3
 20011ac:	8822d0fa 	srli	r17,r17,3
 20011b0:	1806977a 	slli	r3,r3,29
 20011b4:	2080022c 	andhi	r2,r4,8
 20011b8:	1c62b03a 	or	r17,r3,r17
 20011bc:	10000726 	beq	r2,zero,20011dc <__subdf3+0x804>
 20011c0:	2812d0fa 	srli	r9,r5,3
 20011c4:	4880022c 	andhi	r2,r9,8
 20011c8:	1000041e 	bne	r2,zero,20011dc <__subdf3+0x804>
 20011cc:	300cd0fa 	srli	r6,r6,3
 20011d0:	2804977a 	slli	r2,r5,29
 20011d4:	4809883a 	mov	r4,r9
 20011d8:	11a2b03a 	or	r17,r2,r6
 20011dc:	8806d77a 	srli	r3,r17,29
 20011e0:	200890fa 	slli	r4,r4,3
 20011e4:	882290fa 	slli	r17,r17,3
 20011e8:	3825883a 	mov	r18,r7
 20011ec:	1906b03a 	or	r3,r3,r4
 20011f0:	0401ffc4 	movi	r16,2047
 20011f4:	003e1906 	br	2000a5c <__reset+0xfdfffa5c>
 20011f8:	000b883a 	mov	r5,zero
 20011fc:	0005883a 	mov	r2,zero
 2001200:	003e2e06 	br	2000abc <__reset+0xfdfffabc>
 2001204:	0401ffc4 	movi	r16,2047
 2001208:	003e1406 	br	2000a5c <__reset+0xfdfffa5c>
 200120c:	0005883a 	mov	r2,zero
 2001210:	003f7506 	br	2000fe8 <__reset+0xfdffffe8>
 2001214:	0005883a 	mov	r2,zero
 2001218:	0009883a 	mov	r4,zero
 200121c:	003e7806 	br	2000c00 <__reset+0xfdfffc00>
 2001220:	123ff804 	addi	r8,r2,-32
 2001224:	01000804 	movi	r4,32
 2001228:	1a10d83a 	srl	r8,r3,r8
 200122c:	11002526 	beq	r2,r4,20012c4 <__subdf3+0x8ec>
 2001230:	01001004 	movi	r4,64
 2001234:	2085c83a 	sub	r2,r4,r2
 2001238:	1884983a 	sll	r2,r3,r2
 200123c:	1444b03a 	or	r2,r2,r17
 2001240:	1004c03a 	cmpne	r2,r2,zero
 2001244:	40a2b03a 	or	r17,r8,r2
 2001248:	0005883a 	mov	r2,zero
 200124c:	003f1606 	br	2000ea8 <__reset+0xfdfffea8>
 2001250:	02000434 	movhi	r8,16
 2001254:	0009883a 	mov	r4,zero
 2001258:	423fffc4 	addi	r8,r8,-1
 200125c:	00bfffc4 	movi	r2,-1
 2001260:	0401ffc4 	movi	r16,2047
 2001264:	003e6606 	br	2000c00 <__reset+0xfdfffc00>
 2001268:	1c62b03a 	or	r17,r3,r17
 200126c:	8822c03a 	cmpne	r17,r17,zero
 2001270:	0005883a 	mov	r2,zero
 2001274:	003f9906 	br	20010dc <__reset+0xfe0000dc>
 2001278:	2807883a 	mov	r3,r5
 200127c:	3023883a 	mov	r17,r6
 2001280:	0401ffc4 	movi	r16,2047
 2001284:	003df506 	br	2000a5c <__reset+0xfdfffa5c>
 2001288:	2807883a 	mov	r3,r5
 200128c:	3023883a 	mov	r17,r6
 2001290:	003df206 	br	2000a5c <__reset+0xfdfffa5c>
 2001294:	123ff804 	addi	r8,r2,-32
 2001298:	01000804 	movi	r4,32
 200129c:	1a10d83a 	srl	r8,r3,r8
 20012a0:	11000a26 	beq	r2,r4,20012cc <__subdf3+0x8f4>
 20012a4:	01001004 	movi	r4,64
 20012a8:	2085c83a 	sub	r2,r4,r2
 20012ac:	1884983a 	sll	r2,r3,r2
 20012b0:	1444b03a 	or	r2,r2,r17
 20012b4:	1004c03a 	cmpne	r2,r2,zero
 20012b8:	40a2b03a 	or	r17,r8,r2
 20012bc:	0005883a 	mov	r2,zero
 20012c0:	003f8606 	br	20010dc <__reset+0xfe0000dc>
 20012c4:	0005883a 	mov	r2,zero
 20012c8:	003fdc06 	br	200123c <__reset+0xfe00023c>
 20012cc:	0005883a 	mov	r2,zero
 20012d0:	003ff706 	br	20012b0 <__reset+0xfe0002b0>

020012d4 <__fixdfsi>:
 20012d4:	280cd53a 	srli	r6,r5,20
 20012d8:	00c00434 	movhi	r3,16
 20012dc:	18ffffc4 	addi	r3,r3,-1
 20012e0:	3181ffcc 	andi	r6,r6,2047
 20012e4:	01c0ff84 	movi	r7,1022
 20012e8:	28c6703a 	and	r3,r5,r3
 20012ec:	280ad7fa 	srli	r5,r5,31
 20012f0:	3980120e 	bge	r7,r6,200133c <__fixdfsi+0x68>
 20012f4:	00810744 	movi	r2,1053
 20012f8:	11800c16 	blt	r2,r6,200132c <__fixdfsi+0x58>
 20012fc:	00810cc4 	movi	r2,1075
 2001300:	1185c83a 	sub	r2,r2,r6
 2001304:	01c007c4 	movi	r7,31
 2001308:	18c00434 	orhi	r3,r3,16
 200130c:	38800d16 	blt	r7,r2,2001344 <__fixdfsi+0x70>
 2001310:	31befb44 	addi	r6,r6,-1043
 2001314:	2084d83a 	srl	r2,r4,r2
 2001318:	1986983a 	sll	r3,r3,r6
 200131c:	1884b03a 	or	r2,r3,r2
 2001320:	28000726 	beq	r5,zero,2001340 <__fixdfsi+0x6c>
 2001324:	0085c83a 	sub	r2,zero,r2
 2001328:	f800283a 	ret
 200132c:	00a00034 	movhi	r2,32768
 2001330:	10bfffc4 	addi	r2,r2,-1
 2001334:	2885883a 	add	r2,r5,r2
 2001338:	f800283a 	ret
 200133c:	0005883a 	mov	r2,zero
 2001340:	f800283a 	ret
 2001344:	008104c4 	movi	r2,1043
 2001348:	1185c83a 	sub	r2,r2,r6
 200134c:	1884d83a 	srl	r2,r3,r2
 2001350:	003ff306 	br	2001320 <__reset+0xfe000320>

02001354 <__floatunsidf>:
 2001354:	defffe04 	addi	sp,sp,-8
 2001358:	dc000015 	stw	r16,0(sp)
 200135c:	dfc00115 	stw	ra,4(sp)
 2001360:	2021883a 	mov	r16,r4
 2001364:	20002226 	beq	r4,zero,20013f0 <__floatunsidf+0x9c>
 2001368:	20013fc0 	call	20013fc <__clzsi2>
 200136c:	01010784 	movi	r4,1054
 2001370:	2089c83a 	sub	r4,r4,r2
 2001374:	01810cc4 	movi	r6,1075
 2001378:	310dc83a 	sub	r6,r6,r4
 200137c:	00c007c4 	movi	r3,31
 2001380:	1980120e 	bge	r3,r6,20013cc <__floatunsidf+0x78>
 2001384:	00c104c4 	movi	r3,1043
 2001388:	1907c83a 	sub	r3,r3,r4
 200138c:	80ca983a 	sll	r5,r16,r3
 2001390:	00800434 	movhi	r2,16
 2001394:	10bfffc4 	addi	r2,r2,-1
 2001398:	2101ffcc 	andi	r4,r4,2047
 200139c:	0021883a 	mov	r16,zero
 20013a0:	288a703a 	and	r5,r5,r2
 20013a4:	2008953a 	slli	r4,r4,20
 20013a8:	00c00434 	movhi	r3,16
 20013ac:	18ffffc4 	addi	r3,r3,-1
 20013b0:	28c6703a 	and	r3,r5,r3
 20013b4:	8005883a 	mov	r2,r16
 20013b8:	1906b03a 	or	r3,r3,r4
 20013bc:	dfc00117 	ldw	ra,4(sp)
 20013c0:	dc000017 	ldw	r16,0(sp)
 20013c4:	dec00204 	addi	sp,sp,8
 20013c8:	f800283a 	ret
 20013cc:	00c002c4 	movi	r3,11
 20013d0:	188bc83a 	sub	r5,r3,r2
 20013d4:	814ad83a 	srl	r5,r16,r5
 20013d8:	00c00434 	movhi	r3,16
 20013dc:	18ffffc4 	addi	r3,r3,-1
 20013e0:	81a0983a 	sll	r16,r16,r6
 20013e4:	2101ffcc 	andi	r4,r4,2047
 20013e8:	28ca703a 	and	r5,r5,r3
 20013ec:	003fed06 	br	20013a4 <__reset+0xfe0003a4>
 20013f0:	0009883a 	mov	r4,zero
 20013f4:	000b883a 	mov	r5,zero
 20013f8:	003fea06 	br	20013a4 <__reset+0xfe0003a4>

020013fc <__clzsi2>:
 20013fc:	00bfffd4 	movui	r2,65535
 2001400:	11000536 	bltu	r2,r4,2001418 <__clzsi2+0x1c>
 2001404:	00803fc4 	movi	r2,255
 2001408:	11000f36 	bltu	r2,r4,2001448 <__clzsi2+0x4c>
 200140c:	00800804 	movi	r2,32
 2001410:	0007883a 	mov	r3,zero
 2001414:	00000506 	br	200142c <__clzsi2+0x30>
 2001418:	00804034 	movhi	r2,256
 200141c:	10bfffc4 	addi	r2,r2,-1
 2001420:	11000c2e 	bgeu	r2,r4,2001454 <__clzsi2+0x58>
 2001424:	00800204 	movi	r2,8
 2001428:	00c00604 	movi	r3,24
 200142c:	20c8d83a 	srl	r4,r4,r3
 2001430:	00c08074 	movhi	r3,513
 2001434:	18c61144 	addi	r3,r3,6213
 2001438:	1909883a 	add	r4,r3,r4
 200143c:	20c00003 	ldbu	r3,0(r4)
 2001440:	10c5c83a 	sub	r2,r2,r3
 2001444:	f800283a 	ret
 2001448:	00800604 	movi	r2,24
 200144c:	00c00204 	movi	r3,8
 2001450:	003ff606 	br	200142c <__reset+0xfe00042c>
 2001454:	00800404 	movi	r2,16
 2001458:	1007883a 	mov	r3,r2
 200145c:	003ff306 	br	200142c <__reset+0xfe00042c>

02001460 <__mulsi3>:
 2001460:	0005883a 	mov	r2,zero
 2001464:	20000726 	beq	r4,zero,2001484 <__mulsi3+0x24>
 2001468:	20c0004c 	andi	r3,r4,1
 200146c:	2008d07a 	srli	r4,r4,1
 2001470:	18000126 	beq	r3,zero,2001478 <__mulsi3+0x18>
 2001474:	1145883a 	add	r2,r2,r5
 2001478:	294b883a 	add	r5,r5,r5
 200147c:	203ffa1e 	bne	r4,zero,2001468 <__reset+0xfe000468>
 2001480:	f800283a 	ret
 2001484:	f800283a 	ret

02001488 <_fprintf_r>:
 2001488:	defffe04 	addi	sp,sp,-8
 200148c:	2809883a 	mov	r4,r5
 2001490:	300b883a 	mov	r5,r6
 2001494:	dfc00015 	stw	ra,0(sp)
 2001498:	d9c00115 	stw	r7,4(sp)
 200149c:	d9800104 	addi	r6,sp,4
 20014a0:	2003b240 	call	2003b24 <__vfprintf_internal>
 20014a4:	dfc00017 	ldw	ra,0(sp)
 20014a8:	dec00204 	addi	sp,sp,8
 20014ac:	f800283a 	ret

020014b0 <fprintf>:
 20014b0:	defffd04 	addi	sp,sp,-12
 20014b4:	dfc00015 	stw	ra,0(sp)
 20014b8:	d9800115 	stw	r6,4(sp)
 20014bc:	d9c00215 	stw	r7,8(sp)
 20014c0:	d9800104 	addi	r6,sp,4
 20014c4:	2003b240 	call	2003b24 <__vfprintf_internal>
 20014c8:	dfc00017 	ldw	ra,0(sp)
 20014cc:	dec00304 	addi	sp,sp,12
 20014d0:	f800283a 	ret

020014d4 <_fputc_r>:
 20014d4:	defffc04 	addi	sp,sp,-16
 20014d8:	dc000215 	stw	r16,8(sp)
 20014dc:	dfc00315 	stw	ra,12(sp)
 20014e0:	2021883a 	mov	r16,r4
 20014e4:	20000726 	beq	r4,zero,2001504 <_fputc_r+0x30>
 20014e8:	20800e17 	ldw	r2,56(r4)
 20014ec:	1000051e 	bne	r2,zero,2001504 <_fputc_r+0x30>
 20014f0:	d9400015 	stw	r5,0(sp)
 20014f4:	d9800115 	stw	r6,4(sp)
 20014f8:	2005d600 	call	2005d60 <__sinit>
 20014fc:	d9800117 	ldw	r6,4(sp)
 2001500:	d9400017 	ldw	r5,0(sp)
 2001504:	8009883a 	mov	r4,r16
 2001508:	dfc00317 	ldw	ra,12(sp)
 200150c:	dc000217 	ldw	r16,8(sp)
 2001510:	dec00404 	addi	sp,sp,16
 2001514:	20015741 	jmpi	2001574 <_putc_r>

02001518 <fputc>:
 2001518:	00808074 	movhi	r2,513
 200151c:	defffc04 	addi	sp,sp,-16
 2001520:	108df904 	addi	r2,r2,14308
 2001524:	dc000115 	stw	r16,4(sp)
 2001528:	14000017 	ldw	r16,0(r2)
 200152c:	dc400215 	stw	r17,8(sp)
 2001530:	dfc00315 	stw	ra,12(sp)
 2001534:	2023883a 	mov	r17,r4
 2001538:	80000626 	beq	r16,zero,2001554 <fputc+0x3c>
 200153c:	80800e17 	ldw	r2,56(r16)
 2001540:	1000041e 	bne	r2,zero,2001554 <fputc+0x3c>
 2001544:	8009883a 	mov	r4,r16
 2001548:	d9400015 	stw	r5,0(sp)
 200154c:	2005d600 	call	2005d60 <__sinit>
 2001550:	d9400017 	ldw	r5,0(sp)
 2001554:	280d883a 	mov	r6,r5
 2001558:	8009883a 	mov	r4,r16
 200155c:	880b883a 	mov	r5,r17
 2001560:	dfc00317 	ldw	ra,12(sp)
 2001564:	dc400217 	ldw	r17,8(sp)
 2001568:	dc000117 	ldw	r16,4(sp)
 200156c:	dec00404 	addi	sp,sp,16
 2001570:	20015741 	jmpi	2001574 <_putc_r>

02001574 <_putc_r>:
 2001574:	defffc04 	addi	sp,sp,-16
 2001578:	dc000215 	stw	r16,8(sp)
 200157c:	dfc00315 	stw	ra,12(sp)
 2001580:	2021883a 	mov	r16,r4
 2001584:	20000226 	beq	r4,zero,2001590 <_putc_r+0x1c>
 2001588:	20800e17 	ldw	r2,56(r4)
 200158c:	10001b26 	beq	r2,zero,20015fc <_putc_r+0x88>
 2001590:	30800217 	ldw	r2,8(r6)
 2001594:	10bfffc4 	addi	r2,r2,-1
 2001598:	30800215 	stw	r2,8(r6)
 200159c:	10000a16 	blt	r2,zero,20015c8 <_putc_r+0x54>
 20015a0:	30800017 	ldw	r2,0(r6)
 20015a4:	11400005 	stb	r5,0(r2)
 20015a8:	30800017 	ldw	r2,0(r6)
 20015ac:	10c00044 	addi	r3,r2,1
 20015b0:	30c00015 	stw	r3,0(r6)
 20015b4:	10800003 	ldbu	r2,0(r2)
 20015b8:	dfc00317 	ldw	ra,12(sp)
 20015bc:	dc000217 	ldw	r16,8(sp)
 20015c0:	dec00404 	addi	sp,sp,16
 20015c4:	f800283a 	ret
 20015c8:	30c00617 	ldw	r3,24(r6)
 20015cc:	10c00616 	blt	r2,r3,20015e8 <_putc_r+0x74>
 20015d0:	30800017 	ldw	r2,0(r6)
 20015d4:	00c00284 	movi	r3,10
 20015d8:	11400005 	stb	r5,0(r2)
 20015dc:	30800017 	ldw	r2,0(r6)
 20015e0:	11400003 	ldbu	r5,0(r2)
 20015e4:	28fff11e 	bne	r5,r3,20015ac <__reset+0xfe0005ac>
 20015e8:	8009883a 	mov	r4,r16
 20015ec:	dfc00317 	ldw	ra,12(sp)
 20015f0:	dc000217 	ldw	r16,8(sp)
 20015f4:	dec00404 	addi	sp,sp,16
 20015f8:	2003bfc1 	jmpi	2003bfc <__swbuf_r>
 20015fc:	d9400015 	stw	r5,0(sp)
 2001600:	d9800115 	stw	r6,4(sp)
 2001604:	2005d600 	call	2005d60 <__sinit>
 2001608:	d9800117 	ldw	r6,4(sp)
 200160c:	d9400017 	ldw	r5,0(sp)
 2001610:	003fdf06 	br	2001590 <__reset+0xfe000590>

02001614 <putc>:
 2001614:	00808074 	movhi	r2,513
 2001618:	defffc04 	addi	sp,sp,-16
 200161c:	108df904 	addi	r2,r2,14308
 2001620:	dc000115 	stw	r16,4(sp)
 2001624:	14000017 	ldw	r16,0(r2)
 2001628:	dc400215 	stw	r17,8(sp)
 200162c:	dfc00315 	stw	ra,12(sp)
 2001630:	2023883a 	mov	r17,r4
 2001634:	80000226 	beq	r16,zero,2001640 <putc+0x2c>
 2001638:	80800e17 	ldw	r2,56(r16)
 200163c:	10001a26 	beq	r2,zero,20016a8 <putc+0x94>
 2001640:	28800217 	ldw	r2,8(r5)
 2001644:	10bfffc4 	addi	r2,r2,-1
 2001648:	28800215 	stw	r2,8(r5)
 200164c:	10000b16 	blt	r2,zero,200167c <putc+0x68>
 2001650:	28800017 	ldw	r2,0(r5)
 2001654:	14400005 	stb	r17,0(r2)
 2001658:	28800017 	ldw	r2,0(r5)
 200165c:	10c00044 	addi	r3,r2,1
 2001660:	28c00015 	stw	r3,0(r5)
 2001664:	10800003 	ldbu	r2,0(r2)
 2001668:	dfc00317 	ldw	ra,12(sp)
 200166c:	dc400217 	ldw	r17,8(sp)
 2001670:	dc000117 	ldw	r16,4(sp)
 2001674:	dec00404 	addi	sp,sp,16
 2001678:	f800283a 	ret
 200167c:	28c00617 	ldw	r3,24(r5)
 2001680:	10c00e16 	blt	r2,r3,20016bc <putc+0xa8>
 2001684:	28800017 	ldw	r2,0(r5)
 2001688:	01000284 	movi	r4,10
 200168c:	14400005 	stb	r17,0(r2)
 2001690:	28800017 	ldw	r2,0(r5)
 2001694:	10c00003 	ldbu	r3,0(r2)
 2001698:	193ff01e 	bne	r3,r4,200165c <__reset+0xfe00065c>
 200169c:	280d883a 	mov	r6,r5
 20016a0:	180b883a 	mov	r5,r3
 20016a4:	00000706 	br	20016c4 <putc+0xb0>
 20016a8:	8009883a 	mov	r4,r16
 20016ac:	d9400015 	stw	r5,0(sp)
 20016b0:	2005d600 	call	2005d60 <__sinit>
 20016b4:	d9400017 	ldw	r5,0(sp)
 20016b8:	003fe106 	br	2001640 <__reset+0xfe000640>
 20016bc:	280d883a 	mov	r6,r5
 20016c0:	880b883a 	mov	r5,r17
 20016c4:	8009883a 	mov	r4,r16
 20016c8:	dfc00317 	ldw	ra,12(sp)
 20016cc:	dc400217 	ldw	r17,8(sp)
 20016d0:	dc000117 	ldw	r16,4(sp)
 20016d4:	dec00404 	addi	sp,sp,16
 20016d8:	2003bfc1 	jmpi	2003bfc <__swbuf_r>

020016dc <_puts_r>:
 20016dc:	defff604 	addi	sp,sp,-40
 20016e0:	dc000715 	stw	r16,28(sp)
 20016e4:	2021883a 	mov	r16,r4
 20016e8:	2809883a 	mov	r4,r5
 20016ec:	dc400815 	stw	r17,32(sp)
 20016f0:	dfc00915 	stw	ra,36(sp)
 20016f4:	2823883a 	mov	r17,r5
 20016f8:	20017b00 	call	20017b0 <strlen>
 20016fc:	10c00044 	addi	r3,r2,1
 2001700:	d8800115 	stw	r2,4(sp)
 2001704:	00808074 	movhi	r2,513
 2001708:	10865304 	addi	r2,r2,6476
 200170c:	d8800215 	stw	r2,8(sp)
 2001710:	00800044 	movi	r2,1
 2001714:	d8800315 	stw	r2,12(sp)
 2001718:	00800084 	movi	r2,2
 200171c:	dc400015 	stw	r17,0(sp)
 2001720:	d8c00615 	stw	r3,24(sp)
 2001724:	dec00415 	stw	sp,16(sp)
 2001728:	d8800515 	stw	r2,20(sp)
 200172c:	80000226 	beq	r16,zero,2001738 <_puts_r+0x5c>
 2001730:	80800e17 	ldw	r2,56(r16)
 2001734:	10001426 	beq	r2,zero,2001788 <_puts_r+0xac>
 2001738:	81400217 	ldw	r5,8(r16)
 200173c:	2880030b 	ldhu	r2,12(r5)
 2001740:	10c8000c 	andi	r3,r2,8192
 2001744:	1800061e 	bne	r3,zero,2001760 <_puts_r+0x84>
 2001748:	29001917 	ldw	r4,100(r5)
 200174c:	00f7ffc4 	movi	r3,-8193
 2001750:	10880014 	ori	r2,r2,8192
 2001754:	20c6703a 	and	r3,r4,r3
 2001758:	2880030d 	sth	r2,12(r5)
 200175c:	28c01915 	stw	r3,100(r5)
 2001760:	d9800404 	addi	r6,sp,16
 2001764:	8009883a 	mov	r4,r16
 2001768:	20061e40 	call	20061e4 <__sfvwrite_r>
 200176c:	1000091e 	bne	r2,zero,2001794 <_puts_r+0xb8>
 2001770:	00800284 	movi	r2,10
 2001774:	dfc00917 	ldw	ra,36(sp)
 2001778:	dc400817 	ldw	r17,32(sp)
 200177c:	dc000717 	ldw	r16,28(sp)
 2001780:	dec00a04 	addi	sp,sp,40
 2001784:	f800283a 	ret
 2001788:	8009883a 	mov	r4,r16
 200178c:	2005d600 	call	2005d60 <__sinit>
 2001790:	003fe906 	br	2001738 <__reset+0xfe000738>
 2001794:	00bfffc4 	movi	r2,-1
 2001798:	003ff606 	br	2001774 <__reset+0xfe000774>

0200179c <puts>:
 200179c:	00808074 	movhi	r2,513
 20017a0:	108df904 	addi	r2,r2,14308
 20017a4:	200b883a 	mov	r5,r4
 20017a8:	11000017 	ldw	r4,0(r2)
 20017ac:	20016dc1 	jmpi	20016dc <_puts_r>

020017b0 <strlen>:
 20017b0:	208000cc 	andi	r2,r4,3
 20017b4:	10002026 	beq	r2,zero,2001838 <strlen+0x88>
 20017b8:	20800007 	ldb	r2,0(r4)
 20017bc:	10002026 	beq	r2,zero,2001840 <strlen+0x90>
 20017c0:	2005883a 	mov	r2,r4
 20017c4:	00000206 	br	20017d0 <strlen+0x20>
 20017c8:	10c00007 	ldb	r3,0(r2)
 20017cc:	18001826 	beq	r3,zero,2001830 <strlen+0x80>
 20017d0:	10800044 	addi	r2,r2,1
 20017d4:	10c000cc 	andi	r3,r2,3
 20017d8:	183ffb1e 	bne	r3,zero,20017c8 <__reset+0xfe0007c8>
 20017dc:	10c00017 	ldw	r3,0(r2)
 20017e0:	01ffbff4 	movhi	r7,65279
 20017e4:	39ffbfc4 	addi	r7,r7,-257
 20017e8:	00ca303a 	nor	r5,zero,r3
 20017ec:	01a02074 	movhi	r6,32897
 20017f0:	19c7883a 	add	r3,r3,r7
 20017f4:	31a02004 	addi	r6,r6,-32640
 20017f8:	1946703a 	and	r3,r3,r5
 20017fc:	1986703a 	and	r3,r3,r6
 2001800:	1800091e 	bne	r3,zero,2001828 <strlen+0x78>
 2001804:	10800104 	addi	r2,r2,4
 2001808:	10c00017 	ldw	r3,0(r2)
 200180c:	19cb883a 	add	r5,r3,r7
 2001810:	00c6303a 	nor	r3,zero,r3
 2001814:	28c6703a 	and	r3,r5,r3
 2001818:	1986703a 	and	r3,r3,r6
 200181c:	183ff926 	beq	r3,zero,2001804 <__reset+0xfe000804>
 2001820:	00000106 	br	2001828 <strlen+0x78>
 2001824:	10800044 	addi	r2,r2,1
 2001828:	10c00007 	ldb	r3,0(r2)
 200182c:	183ffd1e 	bne	r3,zero,2001824 <__reset+0xfe000824>
 2001830:	1105c83a 	sub	r2,r2,r4
 2001834:	f800283a 	ret
 2001838:	2005883a 	mov	r2,r4
 200183c:	003fe706 	br	20017dc <__reset+0xfe0007dc>
 2001840:	0005883a 	mov	r2,zero
 2001844:	f800283a 	ret

02001848 <___vfprintf_internal_r>:
 2001848:	deffb804 	addi	sp,sp,-288
 200184c:	dfc04715 	stw	ra,284(sp)
 2001850:	ddc04515 	stw	r23,276(sp)
 2001854:	dd404315 	stw	r21,268(sp)
 2001858:	d9002d15 	stw	r4,180(sp)
 200185c:	282f883a 	mov	r23,r5
 2001860:	302b883a 	mov	r21,r6
 2001864:	d9c02e15 	stw	r7,184(sp)
 2001868:	df004615 	stw	fp,280(sp)
 200186c:	dd804415 	stw	r22,272(sp)
 2001870:	dd004215 	stw	r20,264(sp)
 2001874:	dcc04115 	stw	r19,260(sp)
 2001878:	dc804015 	stw	r18,256(sp)
 200187c:	dc403f15 	stw	r17,252(sp)
 2001880:	dc003e15 	stw	r16,248(sp)
 2001884:	20068e00 	call	20068e0 <_localeconv_r>
 2001888:	10800017 	ldw	r2,0(r2)
 200188c:	1009883a 	mov	r4,r2
 2001890:	d8803415 	stw	r2,208(sp)
 2001894:	20017b00 	call	20017b0 <strlen>
 2001898:	d8803715 	stw	r2,220(sp)
 200189c:	d8802d17 	ldw	r2,180(sp)
 20018a0:	10000226 	beq	r2,zero,20018ac <___vfprintf_internal_r+0x64>
 20018a4:	10800e17 	ldw	r2,56(r2)
 20018a8:	1000fb26 	beq	r2,zero,2001c98 <___vfprintf_internal_r+0x450>
 20018ac:	b880030b 	ldhu	r2,12(r23)
 20018b0:	10c8000c 	andi	r3,r2,8192
 20018b4:	1800061e 	bne	r3,zero,20018d0 <___vfprintf_internal_r+0x88>
 20018b8:	b9001917 	ldw	r4,100(r23)
 20018bc:	00f7ffc4 	movi	r3,-8193
 20018c0:	10880014 	ori	r2,r2,8192
 20018c4:	20c6703a 	and	r3,r4,r3
 20018c8:	b880030d 	sth	r2,12(r23)
 20018cc:	b8c01915 	stw	r3,100(r23)
 20018d0:	10c0020c 	andi	r3,r2,8
 20018d4:	1800c326 	beq	r3,zero,2001be4 <___vfprintf_internal_r+0x39c>
 20018d8:	b8c00417 	ldw	r3,16(r23)
 20018dc:	1800c126 	beq	r3,zero,2001be4 <___vfprintf_internal_r+0x39c>
 20018e0:	1080068c 	andi	r2,r2,26
 20018e4:	00c00284 	movi	r3,10
 20018e8:	10c0c626 	beq	r2,r3,2001c04 <___vfprintf_internal_r+0x3bc>
 20018ec:	d8c00404 	addi	r3,sp,16
 20018f0:	05008074 	movhi	r20,513
 20018f4:	d9001e04 	addi	r4,sp,120
 20018f8:	a5066484 	addi	r20,r20,6546
 20018fc:	d8c01e15 	stw	r3,120(sp)
 2001900:	d8002015 	stw	zero,128(sp)
 2001904:	d8001f15 	stw	zero,124(sp)
 2001908:	d8003315 	stw	zero,204(sp)
 200190c:	d8003615 	stw	zero,216(sp)
 2001910:	d8003815 	stw	zero,224(sp)
 2001914:	1811883a 	mov	r8,r3
 2001918:	d8003915 	stw	zero,228(sp)
 200191c:	d8003a15 	stw	zero,232(sp)
 2001920:	d8002f15 	stw	zero,188(sp)
 2001924:	d9002815 	stw	r4,160(sp)
 2001928:	a8800007 	ldb	r2,0(r21)
 200192c:	10028b26 	beq	r2,zero,200235c <___vfprintf_internal_r+0xb14>
 2001930:	00c00944 	movi	r3,37
 2001934:	a823883a 	mov	r17,r21
 2001938:	10c0021e 	bne	r2,r3,2001944 <___vfprintf_internal_r+0xfc>
 200193c:	00001406 	br	2001990 <___vfprintf_internal_r+0x148>
 2001940:	10c00326 	beq	r2,r3,2001950 <___vfprintf_internal_r+0x108>
 2001944:	8c400044 	addi	r17,r17,1
 2001948:	88800007 	ldb	r2,0(r17)
 200194c:	103ffc1e 	bne	r2,zero,2001940 <__reset+0xfe000940>
 2001950:	8d61c83a 	sub	r16,r17,r21
 2001954:	80000e26 	beq	r16,zero,2001990 <___vfprintf_internal_r+0x148>
 2001958:	d8c02017 	ldw	r3,128(sp)
 200195c:	d8801f17 	ldw	r2,124(sp)
 2001960:	45400015 	stw	r21,0(r8)
 2001964:	1c07883a 	add	r3,r3,r16
 2001968:	10800044 	addi	r2,r2,1
 200196c:	d8c02015 	stw	r3,128(sp)
 2001970:	44000115 	stw	r16,4(r8)
 2001974:	d8801f15 	stw	r2,124(sp)
 2001978:	00c001c4 	movi	r3,7
 200197c:	1880a916 	blt	r3,r2,2001c24 <___vfprintf_internal_r+0x3dc>
 2001980:	42000204 	addi	r8,r8,8
 2001984:	d9402f17 	ldw	r5,188(sp)
 2001988:	2c0b883a 	add	r5,r5,r16
 200198c:	d9402f15 	stw	r5,188(sp)
 2001990:	88800007 	ldb	r2,0(r17)
 2001994:	1000aa26 	beq	r2,zero,2001c40 <___vfprintf_internal_r+0x3f8>
 2001998:	8d400044 	addi	r21,r17,1
 200199c:	8c400047 	ldb	r17,1(r17)
 20019a0:	0021883a 	mov	r16,zero
 20019a4:	00bfffc4 	movi	r2,-1
 20019a8:	0025883a 	mov	r18,zero
 20019ac:	dc002905 	stb	r16,164(sp)
 20019b0:	d8002785 	stb	zero,158(sp)
 20019b4:	d8002b05 	stb	zero,172(sp)
 20019b8:	d8802a15 	stw	r2,168(sp)
 20019bc:	d8003115 	stw	zero,196(sp)
 20019c0:	04c01604 	movi	r19,88
 20019c4:	05800244 	movi	r22,9
 20019c8:	9021883a 	mov	r16,r18
 20019cc:	4039883a 	mov	fp,r8
 20019d0:	ad400044 	addi	r21,r21,1
 20019d4:	88bff804 	addi	r2,r17,-32
 20019d8:	98833236 	bltu	r19,r2,20026a4 <___vfprintf_internal_r+0xe5c>
 20019dc:	100490ba 	slli	r2,r2,2
 20019e0:	00c08034 	movhi	r3,512
 20019e4:	18c67d04 	addi	r3,r3,6644
 20019e8:	10c5883a 	add	r2,r2,r3
 20019ec:	10800017 	ldw	r2,0(r2)
 20019f0:	1000683a 	jmp	r2
 20019f4:	0200259c 	xori	r8,zero,150
 20019f8:	020026a4 	muli	r8,zero,154
 20019fc:	020026a4 	muli	r8,zero,154
 2001a00:	020025bc 	xorhi	r8,zero,150
 2001a04:	020026a4 	muli	r8,zero,154
 2001a08:	020026a4 	muli	r8,zero,154
 2001a0c:	020026a4 	muli	r8,zero,154
 2001a10:	020026a4 	muli	r8,zero,154
 2001a14:	020026a4 	muli	r8,zero,154
 2001a18:	020026a4 	muli	r8,zero,154
 2001a1c:	02001ca4 	muli	r8,zero,114
 2001a20:	020024ac 	andhi	r8,zero,146
 2001a24:	020026a4 	muli	r8,zero,154
 2001a28:	02001b68 	cmpgeui	r8,zero,109
 2001a2c:	02001cc8 	cmpgei	r8,zero,115
 2001a30:	020026a4 	muli	r8,zero,154
 2001a34:	02001d18 	cmpnei	r8,zero,116
 2001a38:	02001d24 	muli	r8,zero,116
 2001a3c:	02001d24 	muli	r8,zero,116
 2001a40:	02001d24 	muli	r8,zero,116
 2001a44:	02001d24 	muli	r8,zero,116
 2001a48:	02001d24 	muli	r8,zero,116
 2001a4c:	02001d24 	muli	r8,zero,116
 2001a50:	02001d24 	muli	r8,zero,116
 2001a54:	02001d24 	muli	r8,zero,116
 2001a58:	02001d24 	muli	r8,zero,116
 2001a5c:	020026a4 	muli	r8,zero,154
 2001a60:	020026a4 	muli	r8,zero,154
 2001a64:	020026a4 	muli	r8,zero,154
 2001a68:	020026a4 	muli	r8,zero,154
 2001a6c:	020026a4 	muli	r8,zero,154
 2001a70:	020026a4 	muli	r8,zero,154
 2001a74:	020026a4 	muli	r8,zero,154
 2001a78:	020026a4 	muli	r8,zero,154
 2001a7c:	020026a4 	muli	r8,zero,154
 2001a80:	020026a4 	muli	r8,zero,154
 2001a84:	02001d60 	cmpeqi	r8,zero,117
 2001a88:	02001e28 	cmpgeui	r8,zero,120
 2001a8c:	020026a4 	muli	r8,zero,154
 2001a90:	02001e28 	cmpgeui	r8,zero,120
 2001a94:	020026a4 	muli	r8,zero,154
 2001a98:	020026a4 	muli	r8,zero,154
 2001a9c:	020026a4 	muli	r8,zero,154
 2001aa0:	020026a4 	muli	r8,zero,154
 2001aa4:	02001ed4 	movui	r8,123
 2001aa8:	020026a4 	muli	r8,zero,154
 2001aac:	020026a4 	muli	r8,zero,154
 2001ab0:	02001ee0 	cmpeqi	r8,zero,123
 2001ab4:	020026a4 	muli	r8,zero,154
 2001ab8:	020026a4 	muli	r8,zero,154
 2001abc:	020026a4 	muli	r8,zero,154
 2001ac0:	020026a4 	muli	r8,zero,154
 2001ac4:	020026a4 	muli	r8,zero,154
 2001ac8:	02002364 	muli	r8,zero,141
 2001acc:	020026a4 	muli	r8,zero,154
 2001ad0:	020026a4 	muli	r8,zero,154
 2001ad4:	020023d0 	cmplti	r8,zero,143
 2001ad8:	020026a4 	muli	r8,zero,154
 2001adc:	020026a4 	muli	r8,zero,154
 2001ae0:	020026a4 	muli	r8,zero,154
 2001ae4:	020026a4 	muli	r8,zero,154
 2001ae8:	020026a4 	muli	r8,zero,154
 2001aec:	020026a4 	muli	r8,zero,154
 2001af0:	020026a4 	muli	r8,zero,154
 2001af4:	020026a4 	muli	r8,zero,154
 2001af8:	020026a4 	muli	r8,zero,154
 2001afc:	020026a4 	muli	r8,zero,154
 2001b00:	02002648 	cmpgei	r8,zero,153
 2001b04:	020025c8 	cmpgei	r8,zero,151
 2001b08:	02001e28 	cmpgeui	r8,zero,120
 2001b0c:	02001e28 	cmpgeui	r8,zero,120
 2001b10:	02001e28 	cmpgeui	r8,zero,120
 2001b14:	020025e8 	cmpgeui	r8,zero,151
 2001b18:	020025c8 	cmpgei	r8,zero,151
 2001b1c:	020026a4 	muli	r8,zero,154
 2001b20:	020026a4 	muli	r8,zero,154
 2001b24:	020025f4 	movhi	r8,151
 2001b28:	020026a4 	muli	r8,zero,154
 2001b2c:	02002608 	cmpgei	r8,zero,152
 2001b30:	0200248c 	andi	r8,zero,146
 2001b34:	02001b74 	movhi	r8,109
 2001b38:	020024c4 	movi	r8,147
 2001b3c:	020026a4 	muli	r8,zero,154
 2001b40:	020024d0 	cmplti	r8,zero,147
 2001b44:	020026a4 	muli	r8,zero,154
 2001b48:	02002534 	movhi	r8,148
 2001b4c:	020026a4 	muli	r8,zero,154
 2001b50:	020026a4 	muli	r8,zero,154
 2001b54:	02002554 	movui	r8,149
 2001b58:	d8c03117 	ldw	r3,196(sp)
 2001b5c:	d8802e15 	stw	r2,184(sp)
 2001b60:	00c7c83a 	sub	r3,zero,r3
 2001b64:	d8c03115 	stw	r3,196(sp)
 2001b68:	84000114 	ori	r16,r16,4
 2001b6c:	ac400007 	ldb	r17,0(r21)
 2001b70:	003f9706 	br	20019d0 <__reset+0xfe0009d0>
 2001b74:	00800c04 	movi	r2,48
 2001b78:	d8802705 	stb	r2,156(sp)
 2001b7c:	00801e04 	movi	r2,120
 2001b80:	d8802745 	stb	r2,157(sp)
 2001b84:	d9002a17 	ldw	r4,168(sp)
 2001b88:	d8802e17 	ldw	r2,184(sp)
 2001b8c:	d8002785 	stb	zero,158(sp)
 2001b90:	e011883a 	mov	r8,fp
 2001b94:	10c00104 	addi	r3,r2,4
 2001b98:	14c00017 	ldw	r19,0(r2)
 2001b9c:	002d883a 	mov	r22,zero
 2001ba0:	80800094 	ori	r2,r16,2
 2001ba4:	2002ca16 	blt	r4,zero,20026d0 <___vfprintf_internal_r+0xe88>
 2001ba8:	00bfdfc4 	movi	r2,-129
 2001bac:	80a4703a 	and	r18,r16,r2
 2001bb0:	d8c02e15 	stw	r3,184(sp)
 2001bb4:	94800094 	ori	r18,r18,2
 2001bb8:	9802b41e 	bne	r19,zero,200268c <___vfprintf_internal_r+0xe44>
 2001bbc:	01408074 	movhi	r5,513
 2001bc0:	29465d04 	addi	r5,r5,6516
 2001bc4:	d9403915 	stw	r5,228(sp)
 2001bc8:	04401e04 	movi	r17,120
 2001bcc:	d8802a17 	ldw	r2,168(sp)
 2001bd0:	0039883a 	mov	fp,zero
 2001bd4:	1001fa26 	beq	r2,zero,20023c0 <___vfprintf_internal_r+0xb78>
 2001bd8:	0027883a 	mov	r19,zero
 2001bdc:	002d883a 	mov	r22,zero
 2001be0:	00021906 	br	2002448 <___vfprintf_internal_r+0xc00>
 2001be4:	d9002d17 	ldw	r4,180(sp)
 2001be8:	b80b883a 	mov	r5,r23
 2001bec:	2003d540 	call	2003d54 <__swsetup_r>
 2001bf0:	1005dc1e 	bne	r2,zero,2003364 <___vfprintf_internal_r+0x1b1c>
 2001bf4:	b880030b 	ldhu	r2,12(r23)
 2001bf8:	00c00284 	movi	r3,10
 2001bfc:	1080068c 	andi	r2,r2,26
 2001c00:	10ff3a1e 	bne	r2,r3,20018ec <__reset+0xfe0008ec>
 2001c04:	b880038f 	ldh	r2,14(r23)
 2001c08:	103f3816 	blt	r2,zero,20018ec <__reset+0xfe0008ec>
 2001c0c:	d9c02e17 	ldw	r7,184(sp)
 2001c10:	d9002d17 	ldw	r4,180(sp)
 2001c14:	a80d883a 	mov	r6,r21
 2001c18:	b80b883a 	mov	r5,r23
 2001c1c:	2003b400 	call	2003b40 <__sbprintf>
 2001c20:	00001106 	br	2001c68 <___vfprintf_internal_r+0x420>
 2001c24:	d9002d17 	ldw	r4,180(sp)
 2001c28:	d9801e04 	addi	r6,sp,120
 2001c2c:	b80b883a 	mov	r5,r23
 2001c30:	20091800 	call	2009180 <__sprint_r>
 2001c34:	1000081e 	bne	r2,zero,2001c58 <___vfprintf_internal_r+0x410>
 2001c38:	da000404 	addi	r8,sp,16
 2001c3c:	003f5106 	br	2001984 <__reset+0xfe000984>
 2001c40:	d8802017 	ldw	r2,128(sp)
 2001c44:	10000426 	beq	r2,zero,2001c58 <___vfprintf_internal_r+0x410>
 2001c48:	d9002d17 	ldw	r4,180(sp)
 2001c4c:	d9801e04 	addi	r6,sp,120
 2001c50:	b80b883a 	mov	r5,r23
 2001c54:	20091800 	call	2009180 <__sprint_r>
 2001c58:	b880030b 	ldhu	r2,12(r23)
 2001c5c:	1080100c 	andi	r2,r2,64
 2001c60:	1005c01e 	bne	r2,zero,2003364 <___vfprintf_internal_r+0x1b1c>
 2001c64:	d8802f17 	ldw	r2,188(sp)
 2001c68:	dfc04717 	ldw	ra,284(sp)
 2001c6c:	df004617 	ldw	fp,280(sp)
 2001c70:	ddc04517 	ldw	r23,276(sp)
 2001c74:	dd804417 	ldw	r22,272(sp)
 2001c78:	dd404317 	ldw	r21,268(sp)
 2001c7c:	dd004217 	ldw	r20,264(sp)
 2001c80:	dcc04117 	ldw	r19,260(sp)
 2001c84:	dc804017 	ldw	r18,256(sp)
 2001c88:	dc403f17 	ldw	r17,252(sp)
 2001c8c:	dc003e17 	ldw	r16,248(sp)
 2001c90:	dec04804 	addi	sp,sp,288
 2001c94:	f800283a 	ret
 2001c98:	d9002d17 	ldw	r4,180(sp)
 2001c9c:	2005d600 	call	2005d60 <__sinit>
 2001ca0:	003f0206 	br	20018ac <__reset+0xfe0008ac>
 2001ca4:	d9002e17 	ldw	r4,184(sp)
 2001ca8:	d9402e17 	ldw	r5,184(sp)
 2001cac:	21000017 	ldw	r4,0(r4)
 2001cb0:	28800104 	addi	r2,r5,4
 2001cb4:	d9003115 	stw	r4,196(sp)
 2001cb8:	203fa716 	blt	r4,zero,2001b58 <__reset+0xfe000b58>
 2001cbc:	d8802e15 	stw	r2,184(sp)
 2001cc0:	ac400007 	ldb	r17,0(r21)
 2001cc4:	003f4206 	br	20019d0 <__reset+0xfe0009d0>
 2001cc8:	ac400007 	ldb	r17,0(r21)
 2001ccc:	01000a84 	movi	r4,42
 2001cd0:	a8c00044 	addi	r3,r21,1
 2001cd4:	89075826 	beq	r17,r4,2003a38 <___vfprintf_internal_r+0x21f0>
 2001cd8:	8cbff404 	addi	r18,r17,-48
 2001cdc:	b486ae36 	bltu	r22,r18,2003798 <___vfprintf_internal_r+0x1f50>
 2001ce0:	0009883a 	mov	r4,zero
 2001ce4:	1823883a 	mov	r17,r3
 2001ce8:	01400284 	movi	r5,10
 2001cec:	20014600 	call	2001460 <__mulsi3>
 2001cf0:	88c00007 	ldb	r3,0(r17)
 2001cf4:	1489883a 	add	r4,r2,r18
 2001cf8:	8d400044 	addi	r21,r17,1
 2001cfc:	1cbff404 	addi	r18,r3,-48
 2001d00:	a823883a 	mov	r17,r21
 2001d04:	b4bff82e 	bgeu	r22,r18,2001ce8 <__reset+0xfe000ce8>
 2001d08:	1823883a 	mov	r17,r3
 2001d0c:	2005f616 	blt	r4,zero,20034e8 <___vfprintf_internal_r+0x1ca0>
 2001d10:	d9002a15 	stw	r4,168(sp)
 2001d14:	003f2f06 	br	20019d4 <__reset+0xfe0009d4>
 2001d18:	84002014 	ori	r16,r16,128
 2001d1c:	ac400007 	ldb	r17,0(r21)
 2001d20:	003f2b06 	br	20019d0 <__reset+0xfe0009d0>
 2001d24:	8cbff404 	addi	r18,r17,-48
 2001d28:	d8003115 	stw	zero,196(sp)
 2001d2c:	0009883a 	mov	r4,zero
 2001d30:	a823883a 	mov	r17,r21
 2001d34:	01400284 	movi	r5,10
 2001d38:	20014600 	call	2001460 <__mulsi3>
 2001d3c:	88c00007 	ldb	r3,0(r17)
 2001d40:	9089883a 	add	r4,r18,r2
 2001d44:	ad400044 	addi	r21,r21,1
 2001d48:	1cbff404 	addi	r18,r3,-48
 2001d4c:	a823883a 	mov	r17,r21
 2001d50:	b4bff82e 	bgeu	r22,r18,2001d34 <__reset+0xfe000d34>
 2001d54:	1823883a 	mov	r17,r3
 2001d58:	d9003115 	stw	r4,196(sp)
 2001d5c:	003f1d06 	br	20019d4 <__reset+0xfe0009d4>
 2001d60:	8025883a 	mov	r18,r16
 2001d64:	dc002903 	ldbu	r16,164(sp)
 2001d68:	e011883a 	mov	r8,fp
 2001d6c:	84003fcc 	andi	r16,r16,255
 2001d70:	8007531e 	bne	r16,zero,2003ac0 <___vfprintf_internal_r+0x2278>
 2001d74:	94800414 	ori	r18,r18,16
 2001d78:	9080080c 	andi	r2,r18,32
 2001d7c:	1003a326 	beq	r2,zero,2002c0c <___vfprintf_internal_r+0x13c4>
 2001d80:	d9002e17 	ldw	r4,184(sp)
 2001d84:	20800117 	ldw	r2,4(r4)
 2001d88:	24c00017 	ldw	r19,0(r4)
 2001d8c:	21000204 	addi	r4,r4,8
 2001d90:	d9002e15 	stw	r4,184(sp)
 2001d94:	102d883a 	mov	r22,r2
 2001d98:	10047316 	blt	r2,zero,2002f68 <___vfprintf_internal_r+0x1720>
 2001d9c:	d9002a17 	ldw	r4,168(sp)
 2001da0:	df002783 	ldbu	fp,158(sp)
 2001da4:	2003e416 	blt	r4,zero,2002d38 <___vfprintf_internal_r+0x14f0>
 2001da8:	00ffdfc4 	movi	r3,-129
 2001dac:	9d84b03a 	or	r2,r19,r22
 2001db0:	90e4703a 	and	r18,r18,r3
 2001db4:	10018026 	beq	r2,zero,20023b8 <___vfprintf_internal_r+0xb70>
 2001db8:	b003ab26 	beq	r22,zero,2002c68 <___vfprintf_internal_r+0x1420>
 2001dbc:	dc402915 	stw	r17,164(sp)
 2001dc0:	dc001e04 	addi	r16,sp,120
 2001dc4:	b023883a 	mov	r17,r22
 2001dc8:	402d883a 	mov	r22,r8
 2001dcc:	9809883a 	mov	r4,r19
 2001dd0:	880b883a 	mov	r5,r17
 2001dd4:	01800284 	movi	r6,10
 2001dd8:	000f883a 	mov	r7,zero
 2001ddc:	200b56c0 	call	200b56c <__umoddi3>
 2001de0:	10800c04 	addi	r2,r2,48
 2001de4:	843fffc4 	addi	r16,r16,-1
 2001de8:	9809883a 	mov	r4,r19
 2001dec:	880b883a 	mov	r5,r17
 2001df0:	80800005 	stb	r2,0(r16)
 2001df4:	01800284 	movi	r6,10
 2001df8:	000f883a 	mov	r7,zero
 2001dfc:	200af700 	call	200af70 <__udivdi3>
 2001e00:	1027883a 	mov	r19,r2
 2001e04:	10c4b03a 	or	r2,r2,r3
 2001e08:	1823883a 	mov	r17,r3
 2001e0c:	103fef1e 	bne	r2,zero,2001dcc <__reset+0xfe000dcc>
 2001e10:	d8c02817 	ldw	r3,160(sp)
 2001e14:	dc402917 	ldw	r17,164(sp)
 2001e18:	b011883a 	mov	r8,r22
 2001e1c:	1c07c83a 	sub	r3,r3,r16
 2001e20:	d8c02b15 	stw	r3,172(sp)
 2001e24:	00005f06 	br	2001fa4 <___vfprintf_internal_r+0x75c>
 2001e28:	8025883a 	mov	r18,r16
 2001e2c:	dc002903 	ldbu	r16,164(sp)
 2001e30:	e011883a 	mov	r8,fp
 2001e34:	84003fcc 	andi	r16,r16,255
 2001e38:	80071e1e 	bne	r16,zero,2003ab4 <___vfprintf_internal_r+0x226c>
 2001e3c:	9080020c 	andi	r2,r18,8
 2001e40:	1004af26 	beq	r2,zero,2003100 <___vfprintf_internal_r+0x18b8>
 2001e44:	d9002e17 	ldw	r4,184(sp)
 2001e48:	d9402e17 	ldw	r5,184(sp)
 2001e4c:	d8802e17 	ldw	r2,184(sp)
 2001e50:	21000017 	ldw	r4,0(r4)
 2001e54:	29400117 	ldw	r5,4(r5)
 2001e58:	10800204 	addi	r2,r2,8
 2001e5c:	d9003615 	stw	r4,216(sp)
 2001e60:	d9403815 	stw	r5,224(sp)
 2001e64:	d8802e15 	stw	r2,184(sp)
 2001e68:	d9003617 	ldw	r4,216(sp)
 2001e6c:	d9403817 	ldw	r5,224(sp)
 2001e70:	da003d15 	stw	r8,244(sp)
 2001e74:	04000044 	movi	r16,1
 2001e78:	2008da40 	call	2008da4 <__fpclassifyd>
 2001e7c:	da003d17 	ldw	r8,244(sp)
 2001e80:	1404441e 	bne	r2,r16,2002f94 <___vfprintf_internal_r+0x174c>
 2001e84:	d9003617 	ldw	r4,216(sp)
 2001e88:	d9403817 	ldw	r5,224(sp)
 2001e8c:	000d883a 	mov	r6,zero
 2001e90:	000f883a 	mov	r7,zero
 2001e94:	200d0c40 	call	200d0c4 <__ledf2>
 2001e98:	da003d17 	ldw	r8,244(sp)
 2001e9c:	1005e316 	blt	r2,zero,200362c <___vfprintf_internal_r+0x1de4>
 2001ea0:	df002783 	ldbu	fp,158(sp)
 2001ea4:	008011c4 	movi	r2,71
 2001ea8:	1445580e 	bge	r2,r17,200340c <___vfprintf_internal_r+0x1bc4>
 2001eac:	04008074 	movhi	r16,513
 2001eb0:	84065504 	addi	r16,r16,6484
 2001eb4:	00c000c4 	movi	r3,3
 2001eb8:	00bfdfc4 	movi	r2,-129
 2001ebc:	d8c02915 	stw	r3,164(sp)
 2001ec0:	90a4703a 	and	r18,r18,r2
 2001ec4:	d8c02b15 	stw	r3,172(sp)
 2001ec8:	d8002a15 	stw	zero,168(sp)
 2001ecc:	d8003215 	stw	zero,200(sp)
 2001ed0:	00003a06 	br	2001fbc <___vfprintf_internal_r+0x774>
 2001ed4:	84000214 	ori	r16,r16,8
 2001ed8:	ac400007 	ldb	r17,0(r21)
 2001edc:	003ebc06 	br	20019d0 <__reset+0xfe0009d0>
 2001ee0:	8025883a 	mov	r18,r16
 2001ee4:	dc002903 	ldbu	r16,164(sp)
 2001ee8:	e011883a 	mov	r8,fp
 2001eec:	84003fcc 	andi	r16,r16,255
 2001ef0:	8007001e 	bne	r16,zero,2003af4 <___vfprintf_internal_r+0x22ac>
 2001ef4:	94800414 	ori	r18,r18,16
 2001ef8:	9080080c 	andi	r2,r18,32
 2001efc:	1002fa26 	beq	r2,zero,2002ae8 <___vfprintf_internal_r+0x12a0>
 2001f00:	d9002e17 	ldw	r4,184(sp)
 2001f04:	d9402a17 	ldw	r5,168(sp)
 2001f08:	d8002785 	stb	zero,158(sp)
 2001f0c:	20800204 	addi	r2,r4,8
 2001f10:	24c00017 	ldw	r19,0(r4)
 2001f14:	25800117 	ldw	r22,4(r4)
 2001f18:	2804b116 	blt	r5,zero,20031e0 <___vfprintf_internal_r+0x1998>
 2001f1c:	013fdfc4 	movi	r4,-129
 2001f20:	9d86b03a 	or	r3,r19,r22
 2001f24:	d8802e15 	stw	r2,184(sp)
 2001f28:	9124703a 	and	r18,r18,r4
 2001f2c:	1802fb1e 	bne	r3,zero,2002b1c <___vfprintf_internal_r+0x12d4>
 2001f30:	d8c02a17 	ldw	r3,168(sp)
 2001f34:	0039883a 	mov	fp,zero
 2001f38:	1805e526 	beq	r3,zero,20036d0 <___vfprintf_internal_r+0x1e88>
 2001f3c:	0027883a 	mov	r19,zero
 2001f40:	002d883a 	mov	r22,zero
 2001f44:	dc001e04 	addi	r16,sp,120
 2001f48:	9806d0fa 	srli	r3,r19,3
 2001f4c:	b008977a 	slli	r4,r22,29
 2001f50:	b02cd0fa 	srli	r22,r22,3
 2001f54:	9cc001cc 	andi	r19,r19,7
 2001f58:	98800c04 	addi	r2,r19,48
 2001f5c:	843fffc4 	addi	r16,r16,-1
 2001f60:	20e6b03a 	or	r19,r4,r3
 2001f64:	80800005 	stb	r2,0(r16)
 2001f68:	9d86b03a 	or	r3,r19,r22
 2001f6c:	183ff61e 	bne	r3,zero,2001f48 <__reset+0xfe000f48>
 2001f70:	90c0004c 	andi	r3,r18,1
 2001f74:	18014126 	beq	r3,zero,200247c <___vfprintf_internal_r+0xc34>
 2001f78:	10803fcc 	andi	r2,r2,255
 2001f7c:	1080201c 	xori	r2,r2,128
 2001f80:	10bfe004 	addi	r2,r2,-128
 2001f84:	00c00c04 	movi	r3,48
 2001f88:	10c13c26 	beq	r2,r3,200247c <___vfprintf_internal_r+0xc34>
 2001f8c:	80ffffc5 	stb	r3,-1(r16)
 2001f90:	d8c02817 	ldw	r3,160(sp)
 2001f94:	80bfffc4 	addi	r2,r16,-1
 2001f98:	1021883a 	mov	r16,r2
 2001f9c:	1887c83a 	sub	r3,r3,r2
 2001fa0:	d8c02b15 	stw	r3,172(sp)
 2001fa4:	d8802b17 	ldw	r2,172(sp)
 2001fa8:	d9002a17 	ldw	r4,168(sp)
 2001fac:	1100010e 	bge	r2,r4,2001fb4 <___vfprintf_internal_r+0x76c>
 2001fb0:	2005883a 	mov	r2,r4
 2001fb4:	d8802915 	stw	r2,164(sp)
 2001fb8:	d8003215 	stw	zero,200(sp)
 2001fbc:	e7003fcc 	andi	fp,fp,255
 2001fc0:	e700201c 	xori	fp,fp,128
 2001fc4:	e73fe004 	addi	fp,fp,-128
 2001fc8:	e0000326 	beq	fp,zero,2001fd8 <___vfprintf_internal_r+0x790>
 2001fcc:	d8c02917 	ldw	r3,164(sp)
 2001fd0:	18c00044 	addi	r3,r3,1
 2001fd4:	d8c02915 	stw	r3,164(sp)
 2001fd8:	90c0008c 	andi	r3,r18,2
 2001fdc:	d8c02c15 	stw	r3,176(sp)
 2001fe0:	18000326 	beq	r3,zero,2001ff0 <___vfprintf_internal_r+0x7a8>
 2001fe4:	d8c02917 	ldw	r3,164(sp)
 2001fe8:	18c00084 	addi	r3,r3,2
 2001fec:	d8c02915 	stw	r3,164(sp)
 2001ff0:	90c0210c 	andi	r3,r18,132
 2001ff4:	d8c03015 	stw	r3,192(sp)
 2001ff8:	1801c51e 	bne	r3,zero,2002710 <___vfprintf_internal_r+0xec8>
 2001ffc:	d9003117 	ldw	r4,196(sp)
 2002000:	d8c02917 	ldw	r3,164(sp)
 2002004:	20e7c83a 	sub	r19,r4,r3
 2002008:	04c1c10e 	bge	zero,r19,2002710 <___vfprintf_internal_r+0xec8>
 200200c:	02400404 	movi	r9,16
 2002010:	d8c02017 	ldw	r3,128(sp)
 2002014:	d8801f17 	ldw	r2,124(sp)
 2002018:	4cc52f0e 	bge	r9,r19,20034d8 <___vfprintf_internal_r+0x1c90>
 200201c:	01408074 	movhi	r5,513
 2002020:	29466884 	addi	r5,r5,6562
 2002024:	dc403b15 	stw	r17,236(sp)
 2002028:	d9403515 	stw	r5,212(sp)
 200202c:	9823883a 	mov	r17,r19
 2002030:	482d883a 	mov	r22,r9
 2002034:	9027883a 	mov	r19,r18
 2002038:	070001c4 	movi	fp,7
 200203c:	8025883a 	mov	r18,r16
 2002040:	dc002d17 	ldw	r16,180(sp)
 2002044:	00000306 	br	2002054 <___vfprintf_internal_r+0x80c>
 2002048:	8c7ffc04 	addi	r17,r17,-16
 200204c:	42000204 	addi	r8,r8,8
 2002050:	b440130e 	bge	r22,r17,20020a0 <___vfprintf_internal_r+0x858>
 2002054:	01008074 	movhi	r4,513
 2002058:	18c00404 	addi	r3,r3,16
 200205c:	10800044 	addi	r2,r2,1
 2002060:	21066884 	addi	r4,r4,6562
 2002064:	41000015 	stw	r4,0(r8)
 2002068:	45800115 	stw	r22,4(r8)
 200206c:	d8c02015 	stw	r3,128(sp)
 2002070:	d8801f15 	stw	r2,124(sp)
 2002074:	e0bff40e 	bge	fp,r2,2002048 <__reset+0xfe001048>
 2002078:	d9801e04 	addi	r6,sp,120
 200207c:	b80b883a 	mov	r5,r23
 2002080:	8009883a 	mov	r4,r16
 2002084:	20091800 	call	2009180 <__sprint_r>
 2002088:	103ef31e 	bne	r2,zero,2001c58 <__reset+0xfe000c58>
 200208c:	8c7ffc04 	addi	r17,r17,-16
 2002090:	d8c02017 	ldw	r3,128(sp)
 2002094:	d8801f17 	ldw	r2,124(sp)
 2002098:	da000404 	addi	r8,sp,16
 200209c:	b47fed16 	blt	r22,r17,2002054 <__reset+0xfe001054>
 20020a0:	9021883a 	mov	r16,r18
 20020a4:	9825883a 	mov	r18,r19
 20020a8:	8827883a 	mov	r19,r17
 20020ac:	dc403b17 	ldw	r17,236(sp)
 20020b0:	d9403517 	ldw	r5,212(sp)
 20020b4:	98c7883a 	add	r3,r19,r3
 20020b8:	10800044 	addi	r2,r2,1
 20020bc:	41400015 	stw	r5,0(r8)
 20020c0:	44c00115 	stw	r19,4(r8)
 20020c4:	d8c02015 	stw	r3,128(sp)
 20020c8:	d8801f15 	stw	r2,124(sp)
 20020cc:	010001c4 	movi	r4,7
 20020d0:	2082c516 	blt	r4,r2,2002be8 <___vfprintf_internal_r+0x13a0>
 20020d4:	df002787 	ldb	fp,158(sp)
 20020d8:	42000204 	addi	r8,r8,8
 20020dc:	e0000c26 	beq	fp,zero,2002110 <___vfprintf_internal_r+0x8c8>
 20020e0:	d8801f17 	ldw	r2,124(sp)
 20020e4:	d9002784 	addi	r4,sp,158
 20020e8:	18c00044 	addi	r3,r3,1
 20020ec:	10800044 	addi	r2,r2,1
 20020f0:	41000015 	stw	r4,0(r8)
 20020f4:	01000044 	movi	r4,1
 20020f8:	41000115 	stw	r4,4(r8)
 20020fc:	d8c02015 	stw	r3,128(sp)
 2002100:	d8801f15 	stw	r2,124(sp)
 2002104:	010001c4 	movi	r4,7
 2002108:	20825e16 	blt	r4,r2,2002a84 <___vfprintf_internal_r+0x123c>
 200210c:	42000204 	addi	r8,r8,8
 2002110:	d8802c17 	ldw	r2,176(sp)
 2002114:	10000c26 	beq	r2,zero,2002148 <___vfprintf_internal_r+0x900>
 2002118:	d8801f17 	ldw	r2,124(sp)
 200211c:	d9002704 	addi	r4,sp,156
 2002120:	18c00084 	addi	r3,r3,2
 2002124:	10800044 	addi	r2,r2,1
 2002128:	41000015 	stw	r4,0(r8)
 200212c:	01000084 	movi	r4,2
 2002130:	41000115 	stw	r4,4(r8)
 2002134:	d8c02015 	stw	r3,128(sp)
 2002138:	d8801f15 	stw	r2,124(sp)
 200213c:	010001c4 	movi	r4,7
 2002140:	20825816 	blt	r4,r2,2002aa4 <___vfprintf_internal_r+0x125c>
 2002144:	42000204 	addi	r8,r8,8
 2002148:	d9003017 	ldw	r4,192(sp)
 200214c:	00802004 	movi	r2,128
 2002150:	2081bb26 	beq	r4,r2,2002840 <___vfprintf_internal_r+0xff8>
 2002154:	d9402a17 	ldw	r5,168(sp)
 2002158:	d8802b17 	ldw	r2,172(sp)
 200215c:	28adc83a 	sub	r22,r5,r2
 2002160:	0580310e 	bge	zero,r22,2002228 <___vfprintf_internal_r+0x9e0>
 2002164:	07000404 	movi	fp,16
 2002168:	d8801f17 	ldw	r2,124(sp)
 200216c:	e584360e 	bge	fp,r22,2003248 <___vfprintf_internal_r+0x1a00>
 2002170:	01408074 	movhi	r5,513
 2002174:	29466484 	addi	r5,r5,6546
 2002178:	dc402a15 	stw	r17,168(sp)
 200217c:	d9402c15 	stw	r5,176(sp)
 2002180:	b023883a 	mov	r17,r22
 2002184:	04c001c4 	movi	r19,7
 2002188:	a82d883a 	mov	r22,r21
 200218c:	902b883a 	mov	r21,r18
 2002190:	8025883a 	mov	r18,r16
 2002194:	dc002d17 	ldw	r16,180(sp)
 2002198:	00000306 	br	20021a8 <___vfprintf_internal_r+0x960>
 200219c:	8c7ffc04 	addi	r17,r17,-16
 20021a0:	42000204 	addi	r8,r8,8
 20021a4:	e440110e 	bge	fp,r17,20021ec <___vfprintf_internal_r+0x9a4>
 20021a8:	18c00404 	addi	r3,r3,16
 20021ac:	10800044 	addi	r2,r2,1
 20021b0:	45000015 	stw	r20,0(r8)
 20021b4:	47000115 	stw	fp,4(r8)
 20021b8:	d8c02015 	stw	r3,128(sp)
 20021bc:	d8801f15 	stw	r2,124(sp)
 20021c0:	98bff60e 	bge	r19,r2,200219c <__reset+0xfe00119c>
 20021c4:	d9801e04 	addi	r6,sp,120
 20021c8:	b80b883a 	mov	r5,r23
 20021cc:	8009883a 	mov	r4,r16
 20021d0:	20091800 	call	2009180 <__sprint_r>
 20021d4:	103ea01e 	bne	r2,zero,2001c58 <__reset+0xfe000c58>
 20021d8:	8c7ffc04 	addi	r17,r17,-16
 20021dc:	d8c02017 	ldw	r3,128(sp)
 20021e0:	d8801f17 	ldw	r2,124(sp)
 20021e4:	da000404 	addi	r8,sp,16
 20021e8:	e47fef16 	blt	fp,r17,20021a8 <__reset+0xfe0011a8>
 20021ec:	9021883a 	mov	r16,r18
 20021f0:	a825883a 	mov	r18,r21
 20021f4:	b02b883a 	mov	r21,r22
 20021f8:	882d883a 	mov	r22,r17
 20021fc:	dc402a17 	ldw	r17,168(sp)
 2002200:	d9002c17 	ldw	r4,176(sp)
 2002204:	1d87883a 	add	r3,r3,r22
 2002208:	10800044 	addi	r2,r2,1
 200220c:	41000015 	stw	r4,0(r8)
 2002210:	45800115 	stw	r22,4(r8)
 2002214:	d8c02015 	stw	r3,128(sp)
 2002218:	d8801f15 	stw	r2,124(sp)
 200221c:	010001c4 	movi	r4,7
 2002220:	20821016 	blt	r4,r2,2002a64 <___vfprintf_internal_r+0x121c>
 2002224:	42000204 	addi	r8,r8,8
 2002228:	9080400c 	andi	r2,r18,256
 200222c:	10013a1e 	bne	r2,zero,2002718 <___vfprintf_internal_r+0xed0>
 2002230:	d9402b17 	ldw	r5,172(sp)
 2002234:	d8801f17 	ldw	r2,124(sp)
 2002238:	44000015 	stw	r16,0(r8)
 200223c:	1947883a 	add	r3,r3,r5
 2002240:	10800044 	addi	r2,r2,1
 2002244:	41400115 	stw	r5,4(r8)
 2002248:	d8c02015 	stw	r3,128(sp)
 200224c:	d8801f15 	stw	r2,124(sp)
 2002250:	010001c4 	movi	r4,7
 2002254:	2081f516 	blt	r4,r2,2002a2c <___vfprintf_internal_r+0x11e4>
 2002258:	42000204 	addi	r8,r8,8
 200225c:	9480010c 	andi	r18,r18,4
 2002260:	90003226 	beq	r18,zero,200232c <___vfprintf_internal_r+0xae4>
 2002264:	d9403117 	ldw	r5,196(sp)
 2002268:	d8802917 	ldw	r2,164(sp)
 200226c:	28a1c83a 	sub	r16,r5,r2
 2002270:	04002e0e 	bge	zero,r16,200232c <___vfprintf_internal_r+0xae4>
 2002274:	04400404 	movi	r17,16
 2002278:	d8801f17 	ldw	r2,124(sp)
 200227c:	8c04c40e 	bge	r17,r16,2003590 <___vfprintf_internal_r+0x1d48>
 2002280:	01408074 	movhi	r5,513
 2002284:	29466884 	addi	r5,r5,6562
 2002288:	d9403515 	stw	r5,212(sp)
 200228c:	048001c4 	movi	r18,7
 2002290:	dcc02d17 	ldw	r19,180(sp)
 2002294:	00000306 	br	20022a4 <___vfprintf_internal_r+0xa5c>
 2002298:	843ffc04 	addi	r16,r16,-16
 200229c:	42000204 	addi	r8,r8,8
 20022a0:	8c00130e 	bge	r17,r16,20022f0 <___vfprintf_internal_r+0xaa8>
 20022a4:	01008074 	movhi	r4,513
 20022a8:	18c00404 	addi	r3,r3,16
 20022ac:	10800044 	addi	r2,r2,1
 20022b0:	21066884 	addi	r4,r4,6562
 20022b4:	41000015 	stw	r4,0(r8)
 20022b8:	44400115 	stw	r17,4(r8)
 20022bc:	d8c02015 	stw	r3,128(sp)
 20022c0:	d8801f15 	stw	r2,124(sp)
 20022c4:	90bff40e 	bge	r18,r2,2002298 <__reset+0xfe001298>
 20022c8:	d9801e04 	addi	r6,sp,120
 20022cc:	b80b883a 	mov	r5,r23
 20022d0:	9809883a 	mov	r4,r19
 20022d4:	20091800 	call	2009180 <__sprint_r>
 20022d8:	103e5f1e 	bne	r2,zero,2001c58 <__reset+0xfe000c58>
 20022dc:	843ffc04 	addi	r16,r16,-16
 20022e0:	d8c02017 	ldw	r3,128(sp)
 20022e4:	d8801f17 	ldw	r2,124(sp)
 20022e8:	da000404 	addi	r8,sp,16
 20022ec:	8c3fed16 	blt	r17,r16,20022a4 <__reset+0xfe0012a4>
 20022f0:	d9403517 	ldw	r5,212(sp)
 20022f4:	1c07883a 	add	r3,r3,r16
 20022f8:	10800044 	addi	r2,r2,1
 20022fc:	41400015 	stw	r5,0(r8)
 2002300:	44000115 	stw	r16,4(r8)
 2002304:	d8c02015 	stw	r3,128(sp)
 2002308:	d8801f15 	stw	r2,124(sp)
 200230c:	010001c4 	movi	r4,7
 2002310:	2080060e 	bge	r4,r2,200232c <___vfprintf_internal_r+0xae4>
 2002314:	d9002d17 	ldw	r4,180(sp)
 2002318:	d9801e04 	addi	r6,sp,120
 200231c:	b80b883a 	mov	r5,r23
 2002320:	20091800 	call	2009180 <__sprint_r>
 2002324:	103e4c1e 	bne	r2,zero,2001c58 <__reset+0xfe000c58>
 2002328:	d8c02017 	ldw	r3,128(sp)
 200232c:	d8803117 	ldw	r2,196(sp)
 2002330:	d9002917 	ldw	r4,164(sp)
 2002334:	1100010e 	bge	r2,r4,200233c <___vfprintf_internal_r+0xaf4>
 2002338:	2005883a 	mov	r2,r4
 200233c:	d9402f17 	ldw	r5,188(sp)
 2002340:	288b883a 	add	r5,r5,r2
 2002344:	d9402f15 	stw	r5,188(sp)
 2002348:	1801c01e 	bne	r3,zero,2002a4c <___vfprintf_internal_r+0x1204>
 200234c:	a8800007 	ldb	r2,0(r21)
 2002350:	d8001f15 	stw	zero,124(sp)
 2002354:	da000404 	addi	r8,sp,16
 2002358:	103d751e 	bne	r2,zero,2001930 <__reset+0xfe000930>
 200235c:	a823883a 	mov	r17,r21
 2002360:	003d8b06 	br	2001990 <__reset+0xfe000990>
 2002364:	8025883a 	mov	r18,r16
 2002368:	dc002903 	ldbu	r16,164(sp)
 200236c:	e011883a 	mov	r8,fp
 2002370:	84003fcc 	andi	r16,r16,255
 2002374:	8005e51e 	bne	r16,zero,2003b0c <___vfprintf_internal_r+0x22c4>
 2002378:	94800414 	ori	r18,r18,16
 200237c:	9080080c 	andi	r2,r18,32
 2002380:	10022b26 	beq	r2,zero,2002c30 <___vfprintf_internal_r+0x13e8>
 2002384:	d9002e17 	ldw	r4,184(sp)
 2002388:	d9402a17 	ldw	r5,168(sp)
 200238c:	d8002785 	stb	zero,158(sp)
 2002390:	20c00204 	addi	r3,r4,8
 2002394:	24c00017 	ldw	r19,0(r4)
 2002398:	25800117 	ldw	r22,4(r4)
 200239c:	28042e16 	blt	r5,zero,2003458 <___vfprintf_internal_r+0x1c10>
 20023a0:	013fdfc4 	movi	r4,-129
 20023a4:	9d84b03a 	or	r2,r19,r22
 20023a8:	d8c02e15 	stw	r3,184(sp)
 20023ac:	9124703a 	and	r18,r18,r4
 20023b0:	0039883a 	mov	fp,zero
 20023b4:	103e801e 	bne	r2,zero,2001db8 <__reset+0xfe000db8>
 20023b8:	d9002a17 	ldw	r4,168(sp)
 20023bc:	2002e01e 	bne	r4,zero,2002f40 <___vfprintf_internal_r+0x16f8>
 20023c0:	d8002a15 	stw	zero,168(sp)
 20023c4:	d8002b15 	stw	zero,172(sp)
 20023c8:	dc001e04 	addi	r16,sp,120
 20023cc:	003ef506 	br	2001fa4 <__reset+0xfe000fa4>
 20023d0:	8025883a 	mov	r18,r16
 20023d4:	dc002903 	ldbu	r16,164(sp)
 20023d8:	e011883a 	mov	r8,fp
 20023dc:	84003fcc 	andi	r16,r16,255
 20023e0:	8005ba1e 	bne	r16,zero,2003acc <___vfprintf_internal_r+0x2284>
 20023e4:	01008074 	movhi	r4,513
 20023e8:	21065804 	addi	r4,r4,6496
 20023ec:	d9003915 	stw	r4,228(sp)
 20023f0:	9080080c 	andi	r2,r18,32
 20023f4:	10006126 	beq	r2,zero,200257c <___vfprintf_internal_r+0xd34>
 20023f8:	d9402e17 	ldw	r5,184(sp)
 20023fc:	2cc00017 	ldw	r19,0(r5)
 2002400:	2d800117 	ldw	r22,4(r5)
 2002404:	29400204 	addi	r5,r5,8
 2002408:	d9402e15 	stw	r5,184(sp)
 200240c:	9080004c 	andi	r2,r18,1
 2002410:	1001ac26 	beq	r2,zero,2002ac4 <___vfprintf_internal_r+0x127c>
 2002414:	9d84b03a 	or	r2,r19,r22
 2002418:	10038526 	beq	r2,zero,2003230 <___vfprintf_internal_r+0x19e8>
 200241c:	d8c02a17 	ldw	r3,168(sp)
 2002420:	00800c04 	movi	r2,48
 2002424:	d8802705 	stb	r2,156(sp)
 2002428:	dc402745 	stb	r17,157(sp)
 200242c:	d8002785 	stb	zero,158(sp)
 2002430:	90800094 	ori	r2,r18,2
 2002434:	18047916 	blt	r3,zero,200361c <___vfprintf_internal_r+0x1dd4>
 2002438:	00bfdfc4 	movi	r2,-129
 200243c:	90a4703a 	and	r18,r18,r2
 2002440:	94800094 	ori	r18,r18,2
 2002444:	0039883a 	mov	fp,zero
 2002448:	d9003917 	ldw	r4,228(sp)
 200244c:	dc001e04 	addi	r16,sp,120
 2002450:	988003cc 	andi	r2,r19,15
 2002454:	b006973a 	slli	r3,r22,28
 2002458:	2085883a 	add	r2,r4,r2
 200245c:	9826d13a 	srli	r19,r19,4
 2002460:	10800003 	ldbu	r2,0(r2)
 2002464:	b02cd13a 	srli	r22,r22,4
 2002468:	843fffc4 	addi	r16,r16,-1
 200246c:	1ce6b03a 	or	r19,r3,r19
 2002470:	80800005 	stb	r2,0(r16)
 2002474:	9d84b03a 	or	r2,r19,r22
 2002478:	103ff51e 	bne	r2,zero,2002450 <__reset+0xfe001450>
 200247c:	d8c02817 	ldw	r3,160(sp)
 2002480:	1c07c83a 	sub	r3,r3,r16
 2002484:	d8c02b15 	stw	r3,172(sp)
 2002488:	003ec606 	br	2001fa4 <__reset+0xfe000fa4>
 200248c:	8025883a 	mov	r18,r16
 2002490:	dc002903 	ldbu	r16,164(sp)
 2002494:	e011883a 	mov	r8,fp
 2002498:	84003fcc 	andi	r16,r16,255
 200249c:	803e9626 	beq	r16,zero,2001ef8 <__reset+0xfe000ef8>
 20024a0:	d8c02b03 	ldbu	r3,172(sp)
 20024a4:	d8c02785 	stb	r3,158(sp)
 20024a8:	003e9306 	br	2001ef8 <__reset+0xfe000ef8>
 20024ac:	00c00044 	movi	r3,1
 20024b0:	d8c02905 	stb	r3,164(sp)
 20024b4:	00c00ac4 	movi	r3,43
 20024b8:	d8c02b05 	stb	r3,172(sp)
 20024bc:	ac400007 	ldb	r17,0(r21)
 20024c0:	003d4306 	br	20019d0 <__reset+0xfe0009d0>
 20024c4:	84000814 	ori	r16,r16,32
 20024c8:	ac400007 	ldb	r17,0(r21)
 20024cc:	003d4006 	br	20019d0 <__reset+0xfe0009d0>
 20024d0:	d8802e17 	ldw	r2,184(sp)
 20024d4:	8025883a 	mov	r18,r16
 20024d8:	d8002785 	stb	zero,158(sp)
 20024dc:	14000017 	ldw	r16,0(r2)
 20024e0:	e011883a 	mov	r8,fp
 20024e4:	14c00104 	addi	r19,r2,4
 20024e8:	80042d26 	beq	r16,zero,20035a0 <___vfprintf_internal_r+0x1d58>
 20024ec:	d8c02a17 	ldw	r3,168(sp)
 20024f0:	1803e416 	blt	r3,zero,2003484 <___vfprintf_internal_r+0x1c3c>
 20024f4:	180d883a 	mov	r6,r3
 20024f8:	000b883a 	mov	r5,zero
 20024fc:	8009883a 	mov	r4,r16
 2002500:	df003d15 	stw	fp,244(sp)
 2002504:	20072d80 	call	20072d8 <memchr>
 2002508:	da003d17 	ldw	r8,244(sp)
 200250c:	10046826 	beq	r2,zero,20036b0 <___vfprintf_internal_r+0x1e68>
 2002510:	1405c83a 	sub	r2,r2,r16
 2002514:	d8802b15 	stw	r2,172(sp)
 2002518:	1003e016 	blt	r2,zero,200349c <___vfprintf_internal_r+0x1c54>
 200251c:	df002783 	ldbu	fp,158(sp)
 2002520:	d8802915 	stw	r2,164(sp)
 2002524:	dcc02e15 	stw	r19,184(sp)
 2002528:	d8002a15 	stw	zero,168(sp)
 200252c:	d8003215 	stw	zero,200(sp)
 2002530:	003ea206 	br	2001fbc <__reset+0xfe000fbc>
 2002534:	8025883a 	mov	r18,r16
 2002538:	dc002903 	ldbu	r16,164(sp)
 200253c:	e011883a 	mov	r8,fp
 2002540:	84003fcc 	andi	r16,r16,255
 2002544:	803f8d26 	beq	r16,zero,200237c <__reset+0xfe00137c>
 2002548:	d8c02b03 	ldbu	r3,172(sp)
 200254c:	d8c02785 	stb	r3,158(sp)
 2002550:	003f8a06 	br	200237c <__reset+0xfe00137c>
 2002554:	8025883a 	mov	r18,r16
 2002558:	dc002903 	ldbu	r16,164(sp)
 200255c:	e011883a 	mov	r8,fp
 2002560:	84003fcc 	andi	r16,r16,255
 2002564:	8005661e 	bne	r16,zero,2003b00 <___vfprintf_internal_r+0x22b8>
 2002568:	01008074 	movhi	r4,513
 200256c:	21065d04 	addi	r4,r4,6516
 2002570:	d9003915 	stw	r4,228(sp)
 2002574:	9080080c 	andi	r2,r18,32
 2002578:	103f9f1e 	bne	r2,zero,20023f8 <__reset+0xfe0013f8>
 200257c:	9080040c 	andi	r2,r18,16
 2002580:	1002eb26 	beq	r2,zero,2003130 <___vfprintf_internal_r+0x18e8>
 2002584:	d8802e17 	ldw	r2,184(sp)
 2002588:	002d883a 	mov	r22,zero
 200258c:	14c00017 	ldw	r19,0(r2)
 2002590:	10800104 	addi	r2,r2,4
 2002594:	d8802e15 	stw	r2,184(sp)
 2002598:	003f9c06 	br	200240c <__reset+0xfe00140c>
 200259c:	d8802b07 	ldb	r2,172(sp)
 20025a0:	1002e11e 	bne	r2,zero,2003128 <___vfprintf_internal_r+0x18e0>
 20025a4:	00c00044 	movi	r3,1
 20025a8:	d8c02905 	stb	r3,164(sp)
 20025ac:	00c00804 	movi	r3,32
 20025b0:	d8c02b05 	stb	r3,172(sp)
 20025b4:	ac400007 	ldb	r17,0(r21)
 20025b8:	003d0506 	br	20019d0 <__reset+0xfe0009d0>
 20025bc:	84000054 	ori	r16,r16,1
 20025c0:	ac400007 	ldb	r17,0(r21)
 20025c4:	003d0206 	br	20019d0 <__reset+0xfe0009d0>
 20025c8:	8025883a 	mov	r18,r16
 20025cc:	dc002903 	ldbu	r16,164(sp)
 20025d0:	e011883a 	mov	r8,fp
 20025d4:	84003fcc 	andi	r16,r16,255
 20025d8:	803de726 	beq	r16,zero,2001d78 <__reset+0xfe000d78>
 20025dc:	d8c02b03 	ldbu	r3,172(sp)
 20025e0:	d8c02785 	stb	r3,158(sp)
 20025e4:	003de406 	br	2001d78 <__reset+0xfe000d78>
 20025e8:	84001014 	ori	r16,r16,64
 20025ec:	ac400007 	ldb	r17,0(r21)
 20025f0:	003cf706 	br	20019d0 <__reset+0xfe0009d0>
 20025f4:	ac400007 	ldb	r17,0(r21)
 20025f8:	00801b04 	movi	r2,108
 20025fc:	88838f26 	beq	r17,r2,200343c <___vfprintf_internal_r+0x1bf4>
 2002600:	84000414 	ori	r16,r16,16
 2002604:	003cf206 	br	20019d0 <__reset+0xfe0009d0>
 2002608:	8025883a 	mov	r18,r16
 200260c:	dc002903 	ldbu	r16,164(sp)
 2002610:	e011883a 	mov	r8,fp
 2002614:	84003fcc 	andi	r16,r16,255
 2002618:	80053f1e 	bne	r16,zero,2003b18 <___vfprintf_internal_r+0x22d0>
 200261c:	9080080c 	andi	r2,r18,32
 2002620:	1002d226 	beq	r2,zero,200316c <___vfprintf_internal_r+0x1924>
 2002624:	d9002e17 	ldw	r4,184(sp)
 2002628:	d9402f17 	ldw	r5,188(sp)
 200262c:	20800017 	ldw	r2,0(r4)
 2002630:	2807d7fa 	srai	r3,r5,31
 2002634:	21000104 	addi	r4,r4,4
 2002638:	d9002e15 	stw	r4,184(sp)
 200263c:	11400015 	stw	r5,0(r2)
 2002640:	10c00115 	stw	r3,4(r2)
 2002644:	003cb806 	br	2001928 <__reset+0xfe000928>
 2002648:	d8c02e17 	ldw	r3,184(sp)
 200264c:	d9002e17 	ldw	r4,184(sp)
 2002650:	8025883a 	mov	r18,r16
 2002654:	18800017 	ldw	r2,0(r3)
 2002658:	21000104 	addi	r4,r4,4
 200265c:	00c00044 	movi	r3,1
 2002660:	e011883a 	mov	r8,fp
 2002664:	d8c02915 	stw	r3,164(sp)
 2002668:	d8002785 	stb	zero,158(sp)
 200266c:	d8801405 	stb	r2,80(sp)
 2002670:	d9002e15 	stw	r4,184(sp)
 2002674:	d8c02b15 	stw	r3,172(sp)
 2002678:	d8002a15 	stw	zero,168(sp)
 200267c:	d8003215 	stw	zero,200(sp)
 2002680:	dc001404 	addi	r16,sp,80
 2002684:	0039883a 	mov	fp,zero
 2002688:	003e5306 	br	2001fd8 <__reset+0xfe000fd8>
 200268c:	01008074 	movhi	r4,513
 2002690:	21065d04 	addi	r4,r4,6516
 2002694:	0039883a 	mov	fp,zero
 2002698:	d9003915 	stw	r4,228(sp)
 200269c:	04401e04 	movi	r17,120
 20026a0:	003f6906 	br	2002448 <__reset+0xfe001448>
 20026a4:	8025883a 	mov	r18,r16
 20026a8:	dc002903 	ldbu	r16,164(sp)
 20026ac:	e011883a 	mov	r8,fp
 20026b0:	84003fcc 	andi	r16,r16,255
 20026b4:	8005081e 	bne	r16,zero,2003ad8 <___vfprintf_internal_r+0x2290>
 20026b8:	883d6126 	beq	r17,zero,2001c40 <__reset+0xfe000c40>
 20026bc:	00c00044 	movi	r3,1
 20026c0:	d8c02915 	stw	r3,164(sp)
 20026c4:	dc401405 	stb	r17,80(sp)
 20026c8:	d8002785 	stb	zero,158(sp)
 20026cc:	003fe906 	br	2002674 <__reset+0xfe001674>
 20026d0:	01408074 	movhi	r5,513
 20026d4:	29465d04 	addi	r5,r5,6516
 20026d8:	d9403915 	stw	r5,228(sp)
 20026dc:	d8c02e15 	stw	r3,184(sp)
 20026e0:	1025883a 	mov	r18,r2
 20026e4:	04401e04 	movi	r17,120
 20026e8:	9d84b03a 	or	r2,r19,r22
 20026ec:	1000fc1e 	bne	r2,zero,2002ae0 <___vfprintf_internal_r+0x1298>
 20026f0:	0039883a 	mov	fp,zero
 20026f4:	00800084 	movi	r2,2
 20026f8:	10803fcc 	andi	r2,r2,255
 20026fc:	00c00044 	movi	r3,1
 2002700:	10c20f26 	beq	r2,r3,2002f40 <___vfprintf_internal_r+0x16f8>
 2002704:	00c00084 	movi	r3,2
 2002708:	10fd3326 	beq	r2,r3,2001bd8 <__reset+0xfe000bd8>
 200270c:	003e0b06 	br	2001f3c <__reset+0xfe000f3c>
 2002710:	d8c02017 	ldw	r3,128(sp)
 2002714:	003e7106 	br	20020dc <__reset+0xfe0010dc>
 2002718:	00801944 	movi	r2,101
 200271c:	14407e0e 	bge	r2,r17,2002918 <___vfprintf_internal_r+0x10d0>
 2002720:	d9003617 	ldw	r4,216(sp)
 2002724:	d9403817 	ldw	r5,224(sp)
 2002728:	000d883a 	mov	r6,zero
 200272c:	000f883a 	mov	r7,zero
 2002730:	d8c03c15 	stw	r3,240(sp)
 2002734:	da003d15 	stw	r8,244(sp)
 2002738:	200cf600 	call	200cf60 <__eqdf2>
 200273c:	d8c03c17 	ldw	r3,240(sp)
 2002740:	da003d17 	ldw	r8,244(sp)
 2002744:	1000f71e 	bne	r2,zero,2002b24 <___vfprintf_internal_r+0x12dc>
 2002748:	d8801f17 	ldw	r2,124(sp)
 200274c:	01008074 	movhi	r4,513
 2002750:	21066404 	addi	r4,r4,6544
 2002754:	18c00044 	addi	r3,r3,1
 2002758:	10800044 	addi	r2,r2,1
 200275c:	41000015 	stw	r4,0(r8)
 2002760:	01000044 	movi	r4,1
 2002764:	41000115 	stw	r4,4(r8)
 2002768:	d8c02015 	stw	r3,128(sp)
 200276c:	d8801f15 	stw	r2,124(sp)
 2002770:	010001c4 	movi	r4,7
 2002774:	2082b816 	blt	r4,r2,2003258 <___vfprintf_internal_r+0x1a10>
 2002778:	42000204 	addi	r8,r8,8
 200277c:	d8802617 	ldw	r2,152(sp)
 2002780:	d9403317 	ldw	r5,204(sp)
 2002784:	11400216 	blt	r2,r5,2002790 <___vfprintf_internal_r+0xf48>
 2002788:	9080004c 	andi	r2,r18,1
 200278c:	103eb326 	beq	r2,zero,200225c <__reset+0xfe00125c>
 2002790:	d8803717 	ldw	r2,220(sp)
 2002794:	d9003417 	ldw	r4,208(sp)
 2002798:	d9403717 	ldw	r5,220(sp)
 200279c:	1887883a 	add	r3,r3,r2
 20027a0:	d8801f17 	ldw	r2,124(sp)
 20027a4:	41000015 	stw	r4,0(r8)
 20027a8:	41400115 	stw	r5,4(r8)
 20027ac:	10800044 	addi	r2,r2,1
 20027b0:	d8c02015 	stw	r3,128(sp)
 20027b4:	d8801f15 	stw	r2,124(sp)
 20027b8:	010001c4 	movi	r4,7
 20027bc:	20832916 	blt	r4,r2,2003464 <___vfprintf_internal_r+0x1c1c>
 20027c0:	42000204 	addi	r8,r8,8
 20027c4:	d8803317 	ldw	r2,204(sp)
 20027c8:	143fffc4 	addi	r16,r2,-1
 20027cc:	043ea30e 	bge	zero,r16,200225c <__reset+0xfe00125c>
 20027d0:	04400404 	movi	r17,16
 20027d4:	d8801f17 	ldw	r2,124(sp)
 20027d8:	8c00880e 	bge	r17,r16,20029fc <___vfprintf_internal_r+0x11b4>
 20027dc:	01408074 	movhi	r5,513
 20027e0:	29466484 	addi	r5,r5,6546
 20027e4:	d9402c15 	stw	r5,176(sp)
 20027e8:	058001c4 	movi	r22,7
 20027ec:	dcc02d17 	ldw	r19,180(sp)
 20027f0:	00000306 	br	2002800 <___vfprintf_internal_r+0xfb8>
 20027f4:	42000204 	addi	r8,r8,8
 20027f8:	843ffc04 	addi	r16,r16,-16
 20027fc:	8c00820e 	bge	r17,r16,2002a08 <___vfprintf_internal_r+0x11c0>
 2002800:	18c00404 	addi	r3,r3,16
 2002804:	10800044 	addi	r2,r2,1
 2002808:	45000015 	stw	r20,0(r8)
 200280c:	44400115 	stw	r17,4(r8)
 2002810:	d8c02015 	stw	r3,128(sp)
 2002814:	d8801f15 	stw	r2,124(sp)
 2002818:	b0bff60e 	bge	r22,r2,20027f4 <__reset+0xfe0017f4>
 200281c:	d9801e04 	addi	r6,sp,120
 2002820:	b80b883a 	mov	r5,r23
 2002824:	9809883a 	mov	r4,r19
 2002828:	20091800 	call	2009180 <__sprint_r>
 200282c:	103d0a1e 	bne	r2,zero,2001c58 <__reset+0xfe000c58>
 2002830:	d8c02017 	ldw	r3,128(sp)
 2002834:	d8801f17 	ldw	r2,124(sp)
 2002838:	da000404 	addi	r8,sp,16
 200283c:	003fee06 	br	20027f8 <__reset+0xfe0017f8>
 2002840:	d9403117 	ldw	r5,196(sp)
 2002844:	d8802917 	ldw	r2,164(sp)
 2002848:	28adc83a 	sub	r22,r5,r2
 200284c:	05be410e 	bge	zero,r22,2002154 <__reset+0xfe001154>
 2002850:	07000404 	movi	fp,16
 2002854:	d8801f17 	ldw	r2,124(sp)
 2002858:	e5838f0e 	bge	fp,r22,2003698 <___vfprintf_internal_r+0x1e50>
 200285c:	01408074 	movhi	r5,513
 2002860:	29466484 	addi	r5,r5,6546
 2002864:	dc403015 	stw	r17,192(sp)
 2002868:	d9402c15 	stw	r5,176(sp)
 200286c:	b023883a 	mov	r17,r22
 2002870:	04c001c4 	movi	r19,7
 2002874:	a82d883a 	mov	r22,r21
 2002878:	902b883a 	mov	r21,r18
 200287c:	8025883a 	mov	r18,r16
 2002880:	dc002d17 	ldw	r16,180(sp)
 2002884:	00000306 	br	2002894 <___vfprintf_internal_r+0x104c>
 2002888:	8c7ffc04 	addi	r17,r17,-16
 200288c:	42000204 	addi	r8,r8,8
 2002890:	e440110e 	bge	fp,r17,20028d8 <___vfprintf_internal_r+0x1090>
 2002894:	18c00404 	addi	r3,r3,16
 2002898:	10800044 	addi	r2,r2,1
 200289c:	45000015 	stw	r20,0(r8)
 20028a0:	47000115 	stw	fp,4(r8)
 20028a4:	d8c02015 	stw	r3,128(sp)
 20028a8:	d8801f15 	stw	r2,124(sp)
 20028ac:	98bff60e 	bge	r19,r2,2002888 <__reset+0xfe001888>
 20028b0:	d9801e04 	addi	r6,sp,120
 20028b4:	b80b883a 	mov	r5,r23
 20028b8:	8009883a 	mov	r4,r16
 20028bc:	20091800 	call	2009180 <__sprint_r>
 20028c0:	103ce51e 	bne	r2,zero,2001c58 <__reset+0xfe000c58>
 20028c4:	8c7ffc04 	addi	r17,r17,-16
 20028c8:	d8c02017 	ldw	r3,128(sp)
 20028cc:	d8801f17 	ldw	r2,124(sp)
 20028d0:	da000404 	addi	r8,sp,16
 20028d4:	e47fef16 	blt	fp,r17,2002894 <__reset+0xfe001894>
 20028d8:	9021883a 	mov	r16,r18
 20028dc:	a825883a 	mov	r18,r21
 20028e0:	b02b883a 	mov	r21,r22
 20028e4:	882d883a 	mov	r22,r17
 20028e8:	dc403017 	ldw	r17,192(sp)
 20028ec:	d9002c17 	ldw	r4,176(sp)
 20028f0:	1d87883a 	add	r3,r3,r22
 20028f4:	10800044 	addi	r2,r2,1
 20028f8:	41000015 	stw	r4,0(r8)
 20028fc:	45800115 	stw	r22,4(r8)
 2002900:	d8c02015 	stw	r3,128(sp)
 2002904:	d8801f15 	stw	r2,124(sp)
 2002908:	010001c4 	movi	r4,7
 200290c:	20818e16 	blt	r4,r2,2002f48 <___vfprintf_internal_r+0x1700>
 2002910:	42000204 	addi	r8,r8,8
 2002914:	003e0f06 	br	2002154 <__reset+0xfe001154>
 2002918:	d9403317 	ldw	r5,204(sp)
 200291c:	00800044 	movi	r2,1
 2002920:	18c00044 	addi	r3,r3,1
 2002924:	1141530e 	bge	r2,r5,2002e74 <___vfprintf_internal_r+0x162c>
 2002928:	dc401f17 	ldw	r17,124(sp)
 200292c:	00800044 	movi	r2,1
 2002930:	40800115 	stw	r2,4(r8)
 2002934:	8c400044 	addi	r17,r17,1
 2002938:	44000015 	stw	r16,0(r8)
 200293c:	d8c02015 	stw	r3,128(sp)
 2002940:	dc401f15 	stw	r17,124(sp)
 2002944:	008001c4 	movi	r2,7
 2002948:	14416b16 	blt	r2,r17,2002ef8 <___vfprintf_internal_r+0x16b0>
 200294c:	42000204 	addi	r8,r8,8
 2002950:	d8803717 	ldw	r2,220(sp)
 2002954:	d9003417 	ldw	r4,208(sp)
 2002958:	8c400044 	addi	r17,r17,1
 200295c:	10c7883a 	add	r3,r2,r3
 2002960:	40800115 	stw	r2,4(r8)
 2002964:	41000015 	stw	r4,0(r8)
 2002968:	d8c02015 	stw	r3,128(sp)
 200296c:	dc401f15 	stw	r17,124(sp)
 2002970:	008001c4 	movi	r2,7
 2002974:	14416916 	blt	r2,r17,2002f1c <___vfprintf_internal_r+0x16d4>
 2002978:	45800204 	addi	r22,r8,8
 200297c:	d9003617 	ldw	r4,216(sp)
 2002980:	d9403817 	ldw	r5,224(sp)
 2002984:	000d883a 	mov	r6,zero
 2002988:	000f883a 	mov	r7,zero
 200298c:	d8c03c15 	stw	r3,240(sp)
 2002990:	200cf600 	call	200cf60 <__eqdf2>
 2002994:	d8c03c17 	ldw	r3,240(sp)
 2002998:	1000bc26 	beq	r2,zero,2002c8c <___vfprintf_internal_r+0x1444>
 200299c:	d9403317 	ldw	r5,204(sp)
 20029a0:	84000044 	addi	r16,r16,1
 20029a4:	8c400044 	addi	r17,r17,1
 20029a8:	28bfffc4 	addi	r2,r5,-1
 20029ac:	1887883a 	add	r3,r3,r2
 20029b0:	b0800115 	stw	r2,4(r22)
 20029b4:	b4000015 	stw	r16,0(r22)
 20029b8:	d8c02015 	stw	r3,128(sp)
 20029bc:	dc401f15 	stw	r17,124(sp)
 20029c0:	008001c4 	movi	r2,7
 20029c4:	14414316 	blt	r2,r17,2002ed4 <___vfprintf_internal_r+0x168c>
 20029c8:	b5800204 	addi	r22,r22,8
 20029cc:	d9003a17 	ldw	r4,232(sp)
 20029d0:	df0022c4 	addi	fp,sp,139
 20029d4:	8c400044 	addi	r17,r17,1
 20029d8:	20c7883a 	add	r3,r4,r3
 20029dc:	b7000015 	stw	fp,0(r22)
 20029e0:	b1000115 	stw	r4,4(r22)
 20029e4:	d8c02015 	stw	r3,128(sp)
 20029e8:	dc401f15 	stw	r17,124(sp)
 20029ec:	008001c4 	movi	r2,7
 20029f0:	14400e16 	blt	r2,r17,2002a2c <___vfprintf_internal_r+0x11e4>
 20029f4:	b2000204 	addi	r8,r22,8
 20029f8:	003e1806 	br	200225c <__reset+0xfe00125c>
 20029fc:	01008074 	movhi	r4,513
 2002a00:	21066484 	addi	r4,r4,6546
 2002a04:	d9002c15 	stw	r4,176(sp)
 2002a08:	d9002c17 	ldw	r4,176(sp)
 2002a0c:	1c07883a 	add	r3,r3,r16
 2002a10:	44000115 	stw	r16,4(r8)
 2002a14:	41000015 	stw	r4,0(r8)
 2002a18:	10800044 	addi	r2,r2,1
 2002a1c:	d8c02015 	stw	r3,128(sp)
 2002a20:	d8801f15 	stw	r2,124(sp)
 2002a24:	010001c4 	movi	r4,7
 2002a28:	20be0b0e 	bge	r4,r2,2002258 <__reset+0xfe001258>
 2002a2c:	d9002d17 	ldw	r4,180(sp)
 2002a30:	d9801e04 	addi	r6,sp,120
 2002a34:	b80b883a 	mov	r5,r23
 2002a38:	20091800 	call	2009180 <__sprint_r>
 2002a3c:	103c861e 	bne	r2,zero,2001c58 <__reset+0xfe000c58>
 2002a40:	d8c02017 	ldw	r3,128(sp)
 2002a44:	da000404 	addi	r8,sp,16
 2002a48:	003e0406 	br	200225c <__reset+0xfe00125c>
 2002a4c:	d9002d17 	ldw	r4,180(sp)
 2002a50:	d9801e04 	addi	r6,sp,120
 2002a54:	b80b883a 	mov	r5,r23
 2002a58:	20091800 	call	2009180 <__sprint_r>
 2002a5c:	103e3b26 	beq	r2,zero,200234c <__reset+0xfe00134c>
 2002a60:	003c7d06 	br	2001c58 <__reset+0xfe000c58>
 2002a64:	d9002d17 	ldw	r4,180(sp)
 2002a68:	d9801e04 	addi	r6,sp,120
 2002a6c:	b80b883a 	mov	r5,r23
 2002a70:	20091800 	call	2009180 <__sprint_r>
 2002a74:	103c781e 	bne	r2,zero,2001c58 <__reset+0xfe000c58>
 2002a78:	d8c02017 	ldw	r3,128(sp)
 2002a7c:	da000404 	addi	r8,sp,16
 2002a80:	003de906 	br	2002228 <__reset+0xfe001228>
 2002a84:	d9002d17 	ldw	r4,180(sp)
 2002a88:	d9801e04 	addi	r6,sp,120
 2002a8c:	b80b883a 	mov	r5,r23
 2002a90:	20091800 	call	2009180 <__sprint_r>
 2002a94:	103c701e 	bne	r2,zero,2001c58 <__reset+0xfe000c58>
 2002a98:	d8c02017 	ldw	r3,128(sp)
 2002a9c:	da000404 	addi	r8,sp,16
 2002aa0:	003d9b06 	br	2002110 <__reset+0xfe001110>
 2002aa4:	d9002d17 	ldw	r4,180(sp)
 2002aa8:	d9801e04 	addi	r6,sp,120
 2002aac:	b80b883a 	mov	r5,r23
 2002ab0:	20091800 	call	2009180 <__sprint_r>
 2002ab4:	103c681e 	bne	r2,zero,2001c58 <__reset+0xfe000c58>
 2002ab8:	d8c02017 	ldw	r3,128(sp)
 2002abc:	da000404 	addi	r8,sp,16
 2002ac0:	003da106 	br	2002148 <__reset+0xfe001148>
 2002ac4:	d9402a17 	ldw	r5,168(sp)
 2002ac8:	d8002785 	stb	zero,158(sp)
 2002acc:	283f0616 	blt	r5,zero,20026e8 <__reset+0xfe0016e8>
 2002ad0:	00ffdfc4 	movi	r3,-129
 2002ad4:	9d84b03a 	or	r2,r19,r22
 2002ad8:	90e4703a 	and	r18,r18,r3
 2002adc:	103c3b26 	beq	r2,zero,2001bcc <__reset+0xfe000bcc>
 2002ae0:	0039883a 	mov	fp,zero
 2002ae4:	003e5806 	br	2002448 <__reset+0xfe001448>
 2002ae8:	9080040c 	andi	r2,r18,16
 2002aec:	1001b326 	beq	r2,zero,20031bc <___vfprintf_internal_r+0x1974>
 2002af0:	d8c02e17 	ldw	r3,184(sp)
 2002af4:	d9002a17 	ldw	r4,168(sp)
 2002af8:	d8002785 	stb	zero,158(sp)
 2002afc:	18800104 	addi	r2,r3,4
 2002b00:	1cc00017 	ldw	r19,0(r3)
 2002b04:	002d883a 	mov	r22,zero
 2002b08:	2001b516 	blt	r4,zero,20031e0 <___vfprintf_internal_r+0x1998>
 2002b0c:	00ffdfc4 	movi	r3,-129
 2002b10:	d8802e15 	stw	r2,184(sp)
 2002b14:	90e4703a 	and	r18,r18,r3
 2002b18:	983d0526 	beq	r19,zero,2001f30 <__reset+0xfe000f30>
 2002b1c:	0039883a 	mov	fp,zero
 2002b20:	003d0806 	br	2001f44 <__reset+0xfe000f44>
 2002b24:	dc402617 	ldw	r17,152(sp)
 2002b28:	0441d30e 	bge	zero,r17,2003278 <___vfprintf_internal_r+0x1a30>
 2002b2c:	dc403217 	ldw	r17,200(sp)
 2002b30:	d8803317 	ldw	r2,204(sp)
 2002b34:	1440010e 	bge	r2,r17,2002b3c <___vfprintf_internal_r+0x12f4>
 2002b38:	1023883a 	mov	r17,r2
 2002b3c:	04400a0e 	bge	zero,r17,2002b68 <___vfprintf_internal_r+0x1320>
 2002b40:	d8801f17 	ldw	r2,124(sp)
 2002b44:	1c47883a 	add	r3,r3,r17
 2002b48:	44000015 	stw	r16,0(r8)
 2002b4c:	10800044 	addi	r2,r2,1
 2002b50:	44400115 	stw	r17,4(r8)
 2002b54:	d8c02015 	stw	r3,128(sp)
 2002b58:	d8801f15 	stw	r2,124(sp)
 2002b5c:	010001c4 	movi	r4,7
 2002b60:	20826516 	blt	r4,r2,20034f8 <___vfprintf_internal_r+0x1cb0>
 2002b64:	42000204 	addi	r8,r8,8
 2002b68:	88026116 	blt	r17,zero,20034f0 <___vfprintf_internal_r+0x1ca8>
 2002b6c:	d9003217 	ldw	r4,200(sp)
 2002b70:	2463c83a 	sub	r17,r4,r17
 2002b74:	04407b0e 	bge	zero,r17,2002d64 <___vfprintf_internal_r+0x151c>
 2002b78:	05800404 	movi	r22,16
 2002b7c:	d8801f17 	ldw	r2,124(sp)
 2002b80:	b4419d0e 	bge	r22,r17,20031f8 <___vfprintf_internal_r+0x19b0>
 2002b84:	01008074 	movhi	r4,513
 2002b88:	21066484 	addi	r4,r4,6546
 2002b8c:	d9002c15 	stw	r4,176(sp)
 2002b90:	070001c4 	movi	fp,7
 2002b94:	dcc02d17 	ldw	r19,180(sp)
 2002b98:	00000306 	br	2002ba8 <___vfprintf_internal_r+0x1360>
 2002b9c:	42000204 	addi	r8,r8,8
 2002ba0:	8c7ffc04 	addi	r17,r17,-16
 2002ba4:	b441970e 	bge	r22,r17,2003204 <___vfprintf_internal_r+0x19bc>
 2002ba8:	18c00404 	addi	r3,r3,16
 2002bac:	10800044 	addi	r2,r2,1
 2002bb0:	45000015 	stw	r20,0(r8)
 2002bb4:	45800115 	stw	r22,4(r8)
 2002bb8:	d8c02015 	stw	r3,128(sp)
 2002bbc:	d8801f15 	stw	r2,124(sp)
 2002bc0:	e0bff60e 	bge	fp,r2,2002b9c <__reset+0xfe001b9c>
 2002bc4:	d9801e04 	addi	r6,sp,120
 2002bc8:	b80b883a 	mov	r5,r23
 2002bcc:	9809883a 	mov	r4,r19
 2002bd0:	20091800 	call	2009180 <__sprint_r>
 2002bd4:	103c201e 	bne	r2,zero,2001c58 <__reset+0xfe000c58>
 2002bd8:	d8c02017 	ldw	r3,128(sp)
 2002bdc:	d8801f17 	ldw	r2,124(sp)
 2002be0:	da000404 	addi	r8,sp,16
 2002be4:	003fee06 	br	2002ba0 <__reset+0xfe001ba0>
 2002be8:	d9002d17 	ldw	r4,180(sp)
 2002bec:	d9801e04 	addi	r6,sp,120
 2002bf0:	b80b883a 	mov	r5,r23
 2002bf4:	20091800 	call	2009180 <__sprint_r>
 2002bf8:	103c171e 	bne	r2,zero,2001c58 <__reset+0xfe000c58>
 2002bfc:	d8c02017 	ldw	r3,128(sp)
 2002c00:	df002787 	ldb	fp,158(sp)
 2002c04:	da000404 	addi	r8,sp,16
 2002c08:	003d3406 	br	20020dc <__reset+0xfe0010dc>
 2002c0c:	9080040c 	andi	r2,r18,16
 2002c10:	10016126 	beq	r2,zero,2003198 <___vfprintf_internal_r+0x1950>
 2002c14:	d9402e17 	ldw	r5,184(sp)
 2002c18:	2cc00017 	ldw	r19,0(r5)
 2002c1c:	29400104 	addi	r5,r5,4
 2002c20:	d9402e15 	stw	r5,184(sp)
 2002c24:	982dd7fa 	srai	r22,r19,31
 2002c28:	b005883a 	mov	r2,r22
 2002c2c:	003c5a06 	br	2001d98 <__reset+0xfe000d98>
 2002c30:	9080040c 	andi	r2,r18,16
 2002c34:	10003526 	beq	r2,zero,2002d0c <___vfprintf_internal_r+0x14c4>
 2002c38:	d8c02e17 	ldw	r3,184(sp)
 2002c3c:	d9002a17 	ldw	r4,168(sp)
 2002c40:	d8002785 	stb	zero,158(sp)
 2002c44:	18800104 	addi	r2,r3,4
 2002c48:	1cc00017 	ldw	r19,0(r3)
 2002c4c:	002d883a 	mov	r22,zero
 2002c50:	20003716 	blt	r4,zero,2002d30 <___vfprintf_internal_r+0x14e8>
 2002c54:	00ffdfc4 	movi	r3,-129
 2002c58:	d8802e15 	stw	r2,184(sp)
 2002c5c:	90e4703a 	and	r18,r18,r3
 2002c60:	0039883a 	mov	fp,zero
 2002c64:	983dd426 	beq	r19,zero,20023b8 <__reset+0xfe0013b8>
 2002c68:	00800244 	movi	r2,9
 2002c6c:	14fc5336 	bltu	r2,r19,2001dbc <__reset+0xfe000dbc>
 2002c70:	d8c02817 	ldw	r3,160(sp)
 2002c74:	dc001dc4 	addi	r16,sp,119
 2002c78:	9cc00c04 	addi	r19,r19,48
 2002c7c:	1c07c83a 	sub	r3,r3,r16
 2002c80:	dcc01dc5 	stb	r19,119(sp)
 2002c84:	d8c02b15 	stw	r3,172(sp)
 2002c88:	003cc606 	br	2001fa4 <__reset+0xfe000fa4>
 2002c8c:	d8803317 	ldw	r2,204(sp)
 2002c90:	143fffc4 	addi	r16,r2,-1
 2002c94:	043f4d0e 	bge	zero,r16,20029cc <__reset+0xfe0019cc>
 2002c98:	07000404 	movi	fp,16
 2002c9c:	e400810e 	bge	fp,r16,2002ea4 <___vfprintf_internal_r+0x165c>
 2002ca0:	01408074 	movhi	r5,513
 2002ca4:	29466484 	addi	r5,r5,6546
 2002ca8:	d9402c15 	stw	r5,176(sp)
 2002cac:	01c001c4 	movi	r7,7
 2002cb0:	dcc02d17 	ldw	r19,180(sp)
 2002cb4:	00000306 	br	2002cc4 <___vfprintf_internal_r+0x147c>
 2002cb8:	b5800204 	addi	r22,r22,8
 2002cbc:	843ffc04 	addi	r16,r16,-16
 2002cc0:	e4007b0e 	bge	fp,r16,2002eb0 <___vfprintf_internal_r+0x1668>
 2002cc4:	18c00404 	addi	r3,r3,16
 2002cc8:	8c400044 	addi	r17,r17,1
 2002ccc:	b5000015 	stw	r20,0(r22)
 2002cd0:	b7000115 	stw	fp,4(r22)
 2002cd4:	d8c02015 	stw	r3,128(sp)
 2002cd8:	dc401f15 	stw	r17,124(sp)
 2002cdc:	3c7ff60e 	bge	r7,r17,2002cb8 <__reset+0xfe001cb8>
 2002ce0:	d9801e04 	addi	r6,sp,120
 2002ce4:	b80b883a 	mov	r5,r23
 2002ce8:	9809883a 	mov	r4,r19
 2002cec:	d9c03c15 	stw	r7,240(sp)
 2002cf0:	20091800 	call	2009180 <__sprint_r>
 2002cf4:	d9c03c17 	ldw	r7,240(sp)
 2002cf8:	103bd71e 	bne	r2,zero,2001c58 <__reset+0xfe000c58>
 2002cfc:	d8c02017 	ldw	r3,128(sp)
 2002d00:	dc401f17 	ldw	r17,124(sp)
 2002d04:	dd800404 	addi	r22,sp,16
 2002d08:	003fec06 	br	2002cbc <__reset+0xfe001cbc>
 2002d0c:	9080100c 	andi	r2,r18,64
 2002d10:	d8002785 	stb	zero,158(sp)
 2002d14:	10010e26 	beq	r2,zero,2003150 <___vfprintf_internal_r+0x1908>
 2002d18:	d9402e17 	ldw	r5,184(sp)
 2002d1c:	d8c02a17 	ldw	r3,168(sp)
 2002d20:	002d883a 	mov	r22,zero
 2002d24:	28800104 	addi	r2,r5,4
 2002d28:	2cc0000b 	ldhu	r19,0(r5)
 2002d2c:	183fc90e 	bge	r3,zero,2002c54 <__reset+0xfe001c54>
 2002d30:	d8802e15 	stw	r2,184(sp)
 2002d34:	0039883a 	mov	fp,zero
 2002d38:	9d84b03a 	or	r2,r19,r22
 2002d3c:	103c1e1e 	bne	r2,zero,2001db8 <__reset+0xfe000db8>
 2002d40:	00800044 	movi	r2,1
 2002d44:	003e6c06 	br	20026f8 <__reset+0xfe0016f8>
 2002d48:	d9002d17 	ldw	r4,180(sp)
 2002d4c:	d9801e04 	addi	r6,sp,120
 2002d50:	b80b883a 	mov	r5,r23
 2002d54:	20091800 	call	2009180 <__sprint_r>
 2002d58:	103bbf1e 	bne	r2,zero,2001c58 <__reset+0xfe000c58>
 2002d5c:	d8c02017 	ldw	r3,128(sp)
 2002d60:	da000404 	addi	r8,sp,16
 2002d64:	d9003217 	ldw	r4,200(sp)
 2002d68:	d8802617 	ldw	r2,152(sp)
 2002d6c:	d9403317 	ldw	r5,204(sp)
 2002d70:	8123883a 	add	r17,r16,r4
 2002d74:	11400216 	blt	r2,r5,2002d80 <___vfprintf_internal_r+0x1538>
 2002d78:	9100004c 	andi	r4,r18,1
 2002d7c:	20000d26 	beq	r4,zero,2002db4 <___vfprintf_internal_r+0x156c>
 2002d80:	d9003717 	ldw	r4,220(sp)
 2002d84:	d9403417 	ldw	r5,208(sp)
 2002d88:	1907883a 	add	r3,r3,r4
 2002d8c:	d9001f17 	ldw	r4,124(sp)
 2002d90:	41400015 	stw	r5,0(r8)
 2002d94:	d9403717 	ldw	r5,220(sp)
 2002d98:	21000044 	addi	r4,r4,1
 2002d9c:	d8c02015 	stw	r3,128(sp)
 2002da0:	41400115 	stw	r5,4(r8)
 2002da4:	d9001f15 	stw	r4,124(sp)
 2002da8:	014001c4 	movi	r5,7
 2002dac:	2901e816 	blt	r5,r4,2003550 <___vfprintf_internal_r+0x1d08>
 2002db0:	42000204 	addi	r8,r8,8
 2002db4:	d9003317 	ldw	r4,204(sp)
 2002db8:	8121883a 	add	r16,r16,r4
 2002dbc:	2085c83a 	sub	r2,r4,r2
 2002dc0:	8461c83a 	sub	r16,r16,r17
 2002dc4:	1400010e 	bge	r2,r16,2002dcc <___vfprintf_internal_r+0x1584>
 2002dc8:	1021883a 	mov	r16,r2
 2002dcc:	04000a0e 	bge	zero,r16,2002df8 <___vfprintf_internal_r+0x15b0>
 2002dd0:	d9001f17 	ldw	r4,124(sp)
 2002dd4:	1c07883a 	add	r3,r3,r16
 2002dd8:	44400015 	stw	r17,0(r8)
 2002ddc:	21000044 	addi	r4,r4,1
 2002de0:	44000115 	stw	r16,4(r8)
 2002de4:	d8c02015 	stw	r3,128(sp)
 2002de8:	d9001f15 	stw	r4,124(sp)
 2002dec:	014001c4 	movi	r5,7
 2002df0:	2901fb16 	blt	r5,r4,20035e0 <___vfprintf_internal_r+0x1d98>
 2002df4:	42000204 	addi	r8,r8,8
 2002df8:	8001f716 	blt	r16,zero,20035d8 <___vfprintf_internal_r+0x1d90>
 2002dfc:	1421c83a 	sub	r16,r2,r16
 2002e00:	043d160e 	bge	zero,r16,200225c <__reset+0xfe00125c>
 2002e04:	04400404 	movi	r17,16
 2002e08:	d8801f17 	ldw	r2,124(sp)
 2002e0c:	8c3efb0e 	bge	r17,r16,20029fc <__reset+0xfe0019fc>
 2002e10:	01408074 	movhi	r5,513
 2002e14:	29466484 	addi	r5,r5,6546
 2002e18:	d9402c15 	stw	r5,176(sp)
 2002e1c:	058001c4 	movi	r22,7
 2002e20:	dcc02d17 	ldw	r19,180(sp)
 2002e24:	00000306 	br	2002e34 <___vfprintf_internal_r+0x15ec>
 2002e28:	42000204 	addi	r8,r8,8
 2002e2c:	843ffc04 	addi	r16,r16,-16
 2002e30:	8c3ef50e 	bge	r17,r16,2002a08 <__reset+0xfe001a08>
 2002e34:	18c00404 	addi	r3,r3,16
 2002e38:	10800044 	addi	r2,r2,1
 2002e3c:	45000015 	stw	r20,0(r8)
 2002e40:	44400115 	stw	r17,4(r8)
 2002e44:	d8c02015 	stw	r3,128(sp)
 2002e48:	d8801f15 	stw	r2,124(sp)
 2002e4c:	b0bff60e 	bge	r22,r2,2002e28 <__reset+0xfe001e28>
 2002e50:	d9801e04 	addi	r6,sp,120
 2002e54:	b80b883a 	mov	r5,r23
 2002e58:	9809883a 	mov	r4,r19
 2002e5c:	20091800 	call	2009180 <__sprint_r>
 2002e60:	103b7d1e 	bne	r2,zero,2001c58 <__reset+0xfe000c58>
 2002e64:	d8c02017 	ldw	r3,128(sp)
 2002e68:	d8801f17 	ldw	r2,124(sp)
 2002e6c:	da000404 	addi	r8,sp,16
 2002e70:	003fee06 	br	2002e2c <__reset+0xfe001e2c>
 2002e74:	9088703a 	and	r4,r18,r2
 2002e78:	203eab1e 	bne	r4,zero,2002928 <__reset+0xfe001928>
 2002e7c:	dc401f17 	ldw	r17,124(sp)
 2002e80:	40800115 	stw	r2,4(r8)
 2002e84:	44000015 	stw	r16,0(r8)
 2002e88:	8c400044 	addi	r17,r17,1
 2002e8c:	d8c02015 	stw	r3,128(sp)
 2002e90:	dc401f15 	stw	r17,124(sp)
 2002e94:	008001c4 	movi	r2,7
 2002e98:	14400e16 	blt	r2,r17,2002ed4 <___vfprintf_internal_r+0x168c>
 2002e9c:	45800204 	addi	r22,r8,8
 2002ea0:	003eca06 	br	20029cc <__reset+0xfe0019cc>
 2002ea4:	01008074 	movhi	r4,513
 2002ea8:	21066484 	addi	r4,r4,6546
 2002eac:	d9002c15 	stw	r4,176(sp)
 2002eb0:	d8802c17 	ldw	r2,176(sp)
 2002eb4:	1c07883a 	add	r3,r3,r16
 2002eb8:	8c400044 	addi	r17,r17,1
 2002ebc:	b0800015 	stw	r2,0(r22)
 2002ec0:	b4000115 	stw	r16,4(r22)
 2002ec4:	d8c02015 	stw	r3,128(sp)
 2002ec8:	dc401f15 	stw	r17,124(sp)
 2002ecc:	008001c4 	movi	r2,7
 2002ed0:	147ebd0e 	bge	r2,r17,20029c8 <__reset+0xfe0019c8>
 2002ed4:	d9002d17 	ldw	r4,180(sp)
 2002ed8:	d9801e04 	addi	r6,sp,120
 2002edc:	b80b883a 	mov	r5,r23
 2002ee0:	20091800 	call	2009180 <__sprint_r>
 2002ee4:	103b5c1e 	bne	r2,zero,2001c58 <__reset+0xfe000c58>
 2002ee8:	d8c02017 	ldw	r3,128(sp)
 2002eec:	dc401f17 	ldw	r17,124(sp)
 2002ef0:	dd800404 	addi	r22,sp,16
 2002ef4:	003eb506 	br	20029cc <__reset+0xfe0019cc>
 2002ef8:	d9002d17 	ldw	r4,180(sp)
 2002efc:	d9801e04 	addi	r6,sp,120
 2002f00:	b80b883a 	mov	r5,r23
 2002f04:	20091800 	call	2009180 <__sprint_r>
 2002f08:	103b531e 	bne	r2,zero,2001c58 <__reset+0xfe000c58>
 2002f0c:	d8c02017 	ldw	r3,128(sp)
 2002f10:	dc401f17 	ldw	r17,124(sp)
 2002f14:	da000404 	addi	r8,sp,16
 2002f18:	003e8d06 	br	2002950 <__reset+0xfe001950>
 2002f1c:	d9002d17 	ldw	r4,180(sp)
 2002f20:	d9801e04 	addi	r6,sp,120
 2002f24:	b80b883a 	mov	r5,r23
 2002f28:	20091800 	call	2009180 <__sprint_r>
 2002f2c:	103b4a1e 	bne	r2,zero,2001c58 <__reset+0xfe000c58>
 2002f30:	d8c02017 	ldw	r3,128(sp)
 2002f34:	dc401f17 	ldw	r17,124(sp)
 2002f38:	dd800404 	addi	r22,sp,16
 2002f3c:	003e8f06 	br	200297c <__reset+0xfe00197c>
 2002f40:	0027883a 	mov	r19,zero
 2002f44:	003f4a06 	br	2002c70 <__reset+0xfe001c70>
 2002f48:	d9002d17 	ldw	r4,180(sp)
 2002f4c:	d9801e04 	addi	r6,sp,120
 2002f50:	b80b883a 	mov	r5,r23
 2002f54:	20091800 	call	2009180 <__sprint_r>
 2002f58:	103b3f1e 	bne	r2,zero,2001c58 <__reset+0xfe000c58>
 2002f5c:	d8c02017 	ldw	r3,128(sp)
 2002f60:	da000404 	addi	r8,sp,16
 2002f64:	003c7b06 	br	2002154 <__reset+0xfe001154>
 2002f68:	d9402a17 	ldw	r5,168(sp)
 2002f6c:	04e7c83a 	sub	r19,zero,r19
 2002f70:	07000b44 	movi	fp,45
 2002f74:	9804c03a 	cmpne	r2,r19,zero
 2002f78:	05adc83a 	sub	r22,zero,r22
 2002f7c:	df002785 	stb	fp,158(sp)
 2002f80:	b0adc83a 	sub	r22,r22,r2
 2002f84:	28017b16 	blt	r5,zero,2003574 <___vfprintf_internal_r+0x1d2c>
 2002f88:	00bfdfc4 	movi	r2,-129
 2002f8c:	90a4703a 	and	r18,r18,r2
 2002f90:	003b8906 	br	2001db8 <__reset+0xfe000db8>
 2002f94:	d9003617 	ldw	r4,216(sp)
 2002f98:	d9403817 	ldw	r5,224(sp)
 2002f9c:	da003d15 	stw	r8,244(sp)
 2002fa0:	2008da40 	call	2008da4 <__fpclassifyd>
 2002fa4:	da003d17 	ldw	r8,244(sp)
 2002fa8:	1000f026 	beq	r2,zero,200336c <___vfprintf_internal_r+0x1b24>
 2002fac:	d9002a17 	ldw	r4,168(sp)
 2002fb0:	05bff7c4 	movi	r22,-33
 2002fb4:	00bfffc4 	movi	r2,-1
 2002fb8:	8dac703a 	and	r22,r17,r22
 2002fbc:	20820026 	beq	r4,r2,20037c0 <___vfprintf_internal_r+0x1f78>
 2002fc0:	008011c4 	movi	r2,71
 2002fc4:	b081f726 	beq	r22,r2,20037a4 <___vfprintf_internal_r+0x1f5c>
 2002fc8:	d9003817 	ldw	r4,224(sp)
 2002fcc:	90c04014 	ori	r3,r18,256
 2002fd0:	d8c02c15 	stw	r3,176(sp)
 2002fd4:	20021516 	blt	r4,zero,200382c <___vfprintf_internal_r+0x1fe4>
 2002fd8:	dcc03817 	ldw	r19,224(sp)
 2002fdc:	d8002905 	stb	zero,164(sp)
 2002fe0:	00801984 	movi	r2,102
 2002fe4:	8881f926 	beq	r17,r2,20037cc <___vfprintf_internal_r+0x1f84>
 2002fe8:	00801184 	movi	r2,70
 2002fec:	88821c26 	beq	r17,r2,2003860 <___vfprintf_internal_r+0x2018>
 2002ff0:	00801144 	movi	r2,69
 2002ff4:	b081ef26 	beq	r22,r2,20037b4 <___vfprintf_internal_r+0x1f6c>
 2002ff8:	d8c02a17 	ldw	r3,168(sp)
 2002ffc:	d8802104 	addi	r2,sp,132
 2003000:	d8800315 	stw	r2,12(sp)
 2003004:	d9403617 	ldw	r5,216(sp)
 2003008:	d8802504 	addi	r2,sp,148
 200300c:	d9002d17 	ldw	r4,180(sp)
 2003010:	d8800215 	stw	r2,8(sp)
 2003014:	d8802604 	addi	r2,sp,152
 2003018:	d8c00015 	stw	r3,0(sp)
 200301c:	d8800115 	stw	r2,4(sp)
 2003020:	01c00084 	movi	r7,2
 2003024:	980d883a 	mov	r6,r19
 2003028:	d8c03c15 	stw	r3,240(sp)
 200302c:	da003d15 	stw	r8,244(sp)
 2003030:	20040d00 	call	20040d0 <_dtoa_r>
 2003034:	1021883a 	mov	r16,r2
 2003038:	008019c4 	movi	r2,103
 200303c:	d8c03c17 	ldw	r3,240(sp)
 2003040:	da003d17 	ldw	r8,244(sp)
 2003044:	88817126 	beq	r17,r2,200360c <___vfprintf_internal_r+0x1dc4>
 2003048:	008011c4 	movi	r2,71
 200304c:	88829126 	beq	r17,r2,2003a94 <___vfprintf_internal_r+0x224c>
 2003050:	80f9883a 	add	fp,r16,r3
 2003054:	d9003617 	ldw	r4,216(sp)
 2003058:	000d883a 	mov	r6,zero
 200305c:	000f883a 	mov	r7,zero
 2003060:	980b883a 	mov	r5,r19
 2003064:	da003d15 	stw	r8,244(sp)
 2003068:	200cf600 	call	200cf60 <__eqdf2>
 200306c:	da003d17 	ldw	r8,244(sp)
 2003070:	10018d26 	beq	r2,zero,20036a8 <___vfprintf_internal_r+0x1e60>
 2003074:	d8802117 	ldw	r2,132(sp)
 2003078:	1700062e 	bgeu	r2,fp,2003094 <___vfprintf_internal_r+0x184c>
 200307c:	01000c04 	movi	r4,48
 2003080:	10c00044 	addi	r3,r2,1
 2003084:	d8c02115 	stw	r3,132(sp)
 2003088:	11000005 	stb	r4,0(r2)
 200308c:	d8802117 	ldw	r2,132(sp)
 2003090:	173ffb36 	bltu	r2,fp,2003080 <__reset+0xfe002080>
 2003094:	1405c83a 	sub	r2,r2,r16
 2003098:	d8803315 	stw	r2,204(sp)
 200309c:	008011c4 	movi	r2,71
 20030a0:	b0817626 	beq	r22,r2,200367c <___vfprintf_internal_r+0x1e34>
 20030a4:	00801944 	movi	r2,101
 20030a8:	1442800e 	bge	r2,r17,2003aac <___vfprintf_internal_r+0x2264>
 20030ac:	d8c02617 	ldw	r3,152(sp)
 20030b0:	00801984 	movi	r2,102
 20030b4:	d8c03215 	stw	r3,200(sp)
 20030b8:	8881fe26 	beq	r17,r2,20038b4 <___vfprintf_internal_r+0x206c>
 20030bc:	d8c03217 	ldw	r3,200(sp)
 20030c0:	d9003317 	ldw	r4,204(sp)
 20030c4:	1901dd16 	blt	r3,r4,200383c <___vfprintf_internal_r+0x1ff4>
 20030c8:	9480004c 	andi	r18,r18,1
 20030cc:	90022b1e 	bne	r18,zero,200397c <___vfprintf_internal_r+0x2134>
 20030d0:	1805883a 	mov	r2,r3
 20030d4:	18028316 	blt	r3,zero,2003ae4 <___vfprintf_internal_r+0x229c>
 20030d8:	d8c03217 	ldw	r3,200(sp)
 20030dc:	044019c4 	movi	r17,103
 20030e0:	d8c02b15 	stw	r3,172(sp)
 20030e4:	df002907 	ldb	fp,164(sp)
 20030e8:	e001531e 	bne	fp,zero,2003638 <___vfprintf_internal_r+0x1df0>
 20030ec:	df002783 	ldbu	fp,158(sp)
 20030f0:	d8802915 	stw	r2,164(sp)
 20030f4:	dc802c17 	ldw	r18,176(sp)
 20030f8:	d8002a15 	stw	zero,168(sp)
 20030fc:	003baf06 	br	2001fbc <__reset+0xfe000fbc>
 2003100:	d8c02e17 	ldw	r3,184(sp)
 2003104:	d9002e17 	ldw	r4,184(sp)
 2003108:	d9402e17 	ldw	r5,184(sp)
 200310c:	18c00017 	ldw	r3,0(r3)
 2003110:	21000117 	ldw	r4,4(r4)
 2003114:	29400204 	addi	r5,r5,8
 2003118:	d8c03615 	stw	r3,216(sp)
 200311c:	d9003815 	stw	r4,224(sp)
 2003120:	d9402e15 	stw	r5,184(sp)
 2003124:	003b5006 	br	2001e68 <__reset+0xfe000e68>
 2003128:	ac400007 	ldb	r17,0(r21)
 200312c:	003a2806 	br	20019d0 <__reset+0xfe0009d0>
 2003130:	9080100c 	andi	r2,r18,64
 2003134:	1000a826 	beq	r2,zero,20033d8 <___vfprintf_internal_r+0x1b90>
 2003138:	d8c02e17 	ldw	r3,184(sp)
 200313c:	002d883a 	mov	r22,zero
 2003140:	1cc0000b 	ldhu	r19,0(r3)
 2003144:	18c00104 	addi	r3,r3,4
 2003148:	d8c02e15 	stw	r3,184(sp)
 200314c:	003caf06 	br	200240c <__reset+0xfe00140c>
 2003150:	d9002e17 	ldw	r4,184(sp)
 2003154:	d9402a17 	ldw	r5,168(sp)
 2003158:	002d883a 	mov	r22,zero
 200315c:	20800104 	addi	r2,r4,4
 2003160:	24c00017 	ldw	r19,0(r4)
 2003164:	283ebb0e 	bge	r5,zero,2002c54 <__reset+0xfe001c54>
 2003168:	003ef106 	br	2002d30 <__reset+0xfe001d30>
 200316c:	9080040c 	andi	r2,r18,16
 2003170:	1000921e 	bne	r2,zero,20033bc <___vfprintf_internal_r+0x1b74>
 2003174:	9480100c 	andi	r18,r18,64
 2003178:	90013926 	beq	r18,zero,2003660 <___vfprintf_internal_r+0x1e18>
 200317c:	d9402e17 	ldw	r5,184(sp)
 2003180:	d8c02f17 	ldw	r3,188(sp)
 2003184:	28800017 	ldw	r2,0(r5)
 2003188:	29400104 	addi	r5,r5,4
 200318c:	d9402e15 	stw	r5,184(sp)
 2003190:	10c0000d 	sth	r3,0(r2)
 2003194:	0039e406 	br	2001928 <__reset+0xfe000928>
 2003198:	9080100c 	andi	r2,r18,64
 200319c:	10008026 	beq	r2,zero,20033a0 <___vfprintf_internal_r+0x1b58>
 20031a0:	d8802e17 	ldw	r2,184(sp)
 20031a4:	14c0000f 	ldh	r19,0(r2)
 20031a8:	10800104 	addi	r2,r2,4
 20031ac:	d8802e15 	stw	r2,184(sp)
 20031b0:	982dd7fa 	srai	r22,r19,31
 20031b4:	b005883a 	mov	r2,r22
 20031b8:	003af706 	br	2001d98 <__reset+0xfe000d98>
 20031bc:	9080100c 	andi	r2,r18,64
 20031c0:	d8002785 	stb	zero,158(sp)
 20031c4:	10008a1e 	bne	r2,zero,20033f0 <___vfprintf_internal_r+0x1ba8>
 20031c8:	d9002e17 	ldw	r4,184(sp)
 20031cc:	d9402a17 	ldw	r5,168(sp)
 20031d0:	002d883a 	mov	r22,zero
 20031d4:	20800104 	addi	r2,r4,4
 20031d8:	24c00017 	ldw	r19,0(r4)
 20031dc:	283e4b0e 	bge	r5,zero,2002b0c <__reset+0xfe001b0c>
 20031e0:	9d86b03a 	or	r3,r19,r22
 20031e4:	d8802e15 	stw	r2,184(sp)
 20031e8:	183e4c1e 	bne	r3,zero,2002b1c <__reset+0xfe001b1c>
 20031ec:	0039883a 	mov	fp,zero
 20031f0:	0005883a 	mov	r2,zero
 20031f4:	003d4006 	br	20026f8 <__reset+0xfe0016f8>
 20031f8:	01408074 	movhi	r5,513
 20031fc:	29466484 	addi	r5,r5,6546
 2003200:	d9402c15 	stw	r5,176(sp)
 2003204:	d9402c17 	ldw	r5,176(sp)
 2003208:	1c47883a 	add	r3,r3,r17
 200320c:	10800044 	addi	r2,r2,1
 2003210:	41400015 	stw	r5,0(r8)
 2003214:	44400115 	stw	r17,4(r8)
 2003218:	d8c02015 	stw	r3,128(sp)
 200321c:	d8801f15 	stw	r2,124(sp)
 2003220:	010001c4 	movi	r4,7
 2003224:	20bec816 	blt	r4,r2,2002d48 <__reset+0xfe001d48>
 2003228:	42000204 	addi	r8,r8,8
 200322c:	003ecd06 	br	2002d64 <__reset+0xfe001d64>
 2003230:	d9002a17 	ldw	r4,168(sp)
 2003234:	d8002785 	stb	zero,158(sp)
 2003238:	203d2d16 	blt	r4,zero,20026f0 <__reset+0xfe0016f0>
 200323c:	00bfdfc4 	movi	r2,-129
 2003240:	90a4703a 	and	r18,r18,r2
 2003244:	003a6106 	br	2001bcc <__reset+0xfe000bcc>
 2003248:	01008074 	movhi	r4,513
 200324c:	21066484 	addi	r4,r4,6546
 2003250:	d9002c15 	stw	r4,176(sp)
 2003254:	003bea06 	br	2002200 <__reset+0xfe001200>
 2003258:	d9002d17 	ldw	r4,180(sp)
 200325c:	d9801e04 	addi	r6,sp,120
 2003260:	b80b883a 	mov	r5,r23
 2003264:	20091800 	call	2009180 <__sprint_r>
 2003268:	103a7b1e 	bne	r2,zero,2001c58 <__reset+0xfe000c58>
 200326c:	d8c02017 	ldw	r3,128(sp)
 2003270:	da000404 	addi	r8,sp,16
 2003274:	003d4106 	br	200277c <__reset+0xfe00177c>
 2003278:	d8801f17 	ldw	r2,124(sp)
 200327c:	01408074 	movhi	r5,513
 2003280:	01000044 	movi	r4,1
 2003284:	18c00044 	addi	r3,r3,1
 2003288:	10800044 	addi	r2,r2,1
 200328c:	29466404 	addi	r5,r5,6544
 2003290:	41000115 	stw	r4,4(r8)
 2003294:	41400015 	stw	r5,0(r8)
 2003298:	d8c02015 	stw	r3,128(sp)
 200329c:	d8801f15 	stw	r2,124(sp)
 20032a0:	010001c4 	movi	r4,7
 20032a4:	20805c16 	blt	r4,r2,2003418 <___vfprintf_internal_r+0x1bd0>
 20032a8:	42000204 	addi	r8,r8,8
 20032ac:	8800041e 	bne	r17,zero,20032c0 <___vfprintf_internal_r+0x1a78>
 20032b0:	d8803317 	ldw	r2,204(sp)
 20032b4:	1000021e 	bne	r2,zero,20032c0 <___vfprintf_internal_r+0x1a78>
 20032b8:	9080004c 	andi	r2,r18,1
 20032bc:	103be726 	beq	r2,zero,200225c <__reset+0xfe00125c>
 20032c0:	d9003717 	ldw	r4,220(sp)
 20032c4:	d8801f17 	ldw	r2,124(sp)
 20032c8:	d9403417 	ldw	r5,208(sp)
 20032cc:	20c7883a 	add	r3,r4,r3
 20032d0:	10800044 	addi	r2,r2,1
 20032d4:	41000115 	stw	r4,4(r8)
 20032d8:	41400015 	stw	r5,0(r8)
 20032dc:	d8c02015 	stw	r3,128(sp)
 20032e0:	d8801f15 	stw	r2,124(sp)
 20032e4:	010001c4 	movi	r4,7
 20032e8:	20812116 	blt	r4,r2,2003770 <___vfprintf_internal_r+0x1f28>
 20032ec:	42000204 	addi	r8,r8,8
 20032f0:	0463c83a 	sub	r17,zero,r17
 20032f4:	0440730e 	bge	zero,r17,20034c4 <___vfprintf_internal_r+0x1c7c>
 20032f8:	05800404 	movi	r22,16
 20032fc:	b440860e 	bge	r22,r17,2003518 <___vfprintf_internal_r+0x1cd0>
 2003300:	01408074 	movhi	r5,513
 2003304:	29466484 	addi	r5,r5,6546
 2003308:	d9402c15 	stw	r5,176(sp)
 200330c:	070001c4 	movi	fp,7
 2003310:	dcc02d17 	ldw	r19,180(sp)
 2003314:	00000306 	br	2003324 <___vfprintf_internal_r+0x1adc>
 2003318:	42000204 	addi	r8,r8,8
 200331c:	8c7ffc04 	addi	r17,r17,-16
 2003320:	b440800e 	bge	r22,r17,2003524 <___vfprintf_internal_r+0x1cdc>
 2003324:	18c00404 	addi	r3,r3,16
 2003328:	10800044 	addi	r2,r2,1
 200332c:	45000015 	stw	r20,0(r8)
 2003330:	45800115 	stw	r22,4(r8)
 2003334:	d8c02015 	stw	r3,128(sp)
 2003338:	d8801f15 	stw	r2,124(sp)
 200333c:	e0bff60e 	bge	fp,r2,2003318 <__reset+0xfe002318>
 2003340:	d9801e04 	addi	r6,sp,120
 2003344:	b80b883a 	mov	r5,r23
 2003348:	9809883a 	mov	r4,r19
 200334c:	20091800 	call	2009180 <__sprint_r>
 2003350:	103a411e 	bne	r2,zero,2001c58 <__reset+0xfe000c58>
 2003354:	d8c02017 	ldw	r3,128(sp)
 2003358:	d8801f17 	ldw	r2,124(sp)
 200335c:	da000404 	addi	r8,sp,16
 2003360:	003fee06 	br	200331c <__reset+0xfe00231c>
 2003364:	00bfffc4 	movi	r2,-1
 2003368:	003a3f06 	br	2001c68 <__reset+0xfe000c68>
 200336c:	008011c4 	movi	r2,71
 2003370:	1440b816 	blt	r2,r17,2003654 <___vfprintf_internal_r+0x1e0c>
 2003374:	04008074 	movhi	r16,513
 2003378:	84065604 	addi	r16,r16,6488
 200337c:	00c000c4 	movi	r3,3
 2003380:	00bfdfc4 	movi	r2,-129
 2003384:	d8c02915 	stw	r3,164(sp)
 2003388:	90a4703a 	and	r18,r18,r2
 200338c:	df002783 	ldbu	fp,158(sp)
 2003390:	d8c02b15 	stw	r3,172(sp)
 2003394:	d8002a15 	stw	zero,168(sp)
 2003398:	d8003215 	stw	zero,200(sp)
 200339c:	003b0706 	br	2001fbc <__reset+0xfe000fbc>
 20033a0:	d8c02e17 	ldw	r3,184(sp)
 20033a4:	1cc00017 	ldw	r19,0(r3)
 20033a8:	18c00104 	addi	r3,r3,4
 20033ac:	d8c02e15 	stw	r3,184(sp)
 20033b0:	982dd7fa 	srai	r22,r19,31
 20033b4:	b005883a 	mov	r2,r22
 20033b8:	003a7706 	br	2001d98 <__reset+0xfe000d98>
 20033bc:	d8c02e17 	ldw	r3,184(sp)
 20033c0:	d9002f17 	ldw	r4,188(sp)
 20033c4:	18800017 	ldw	r2,0(r3)
 20033c8:	18c00104 	addi	r3,r3,4
 20033cc:	d8c02e15 	stw	r3,184(sp)
 20033d0:	11000015 	stw	r4,0(r2)
 20033d4:	00395406 	br	2001928 <__reset+0xfe000928>
 20033d8:	d9002e17 	ldw	r4,184(sp)
 20033dc:	002d883a 	mov	r22,zero
 20033e0:	24c00017 	ldw	r19,0(r4)
 20033e4:	21000104 	addi	r4,r4,4
 20033e8:	d9002e15 	stw	r4,184(sp)
 20033ec:	003c0706 	br	200240c <__reset+0xfe00140c>
 20033f0:	d9402e17 	ldw	r5,184(sp)
 20033f4:	d8c02a17 	ldw	r3,168(sp)
 20033f8:	002d883a 	mov	r22,zero
 20033fc:	28800104 	addi	r2,r5,4
 2003400:	2cc0000b 	ldhu	r19,0(r5)
 2003404:	183dc10e 	bge	r3,zero,2002b0c <__reset+0xfe001b0c>
 2003408:	003f7506 	br	20031e0 <__reset+0xfe0021e0>
 200340c:	04008074 	movhi	r16,513
 2003410:	84065404 	addi	r16,r16,6480
 2003414:	003aa706 	br	2001eb4 <__reset+0xfe000eb4>
 2003418:	d9002d17 	ldw	r4,180(sp)
 200341c:	d9801e04 	addi	r6,sp,120
 2003420:	b80b883a 	mov	r5,r23
 2003424:	20091800 	call	2009180 <__sprint_r>
 2003428:	103a0b1e 	bne	r2,zero,2001c58 <__reset+0xfe000c58>
 200342c:	dc402617 	ldw	r17,152(sp)
 2003430:	d8c02017 	ldw	r3,128(sp)
 2003434:	da000404 	addi	r8,sp,16
 2003438:	003f9c06 	br	20032ac <__reset+0xfe0022ac>
 200343c:	ac400043 	ldbu	r17,1(r21)
 2003440:	84000814 	ori	r16,r16,32
 2003444:	ad400044 	addi	r21,r21,1
 2003448:	8c403fcc 	andi	r17,r17,255
 200344c:	8c40201c 	xori	r17,r17,128
 2003450:	8c7fe004 	addi	r17,r17,-128
 2003454:	00395e06 	br	20019d0 <__reset+0xfe0009d0>
 2003458:	d8c02e15 	stw	r3,184(sp)
 200345c:	0039883a 	mov	fp,zero
 2003460:	003e3506 	br	2002d38 <__reset+0xfe001d38>
 2003464:	d9002d17 	ldw	r4,180(sp)
 2003468:	d9801e04 	addi	r6,sp,120
 200346c:	b80b883a 	mov	r5,r23
 2003470:	20091800 	call	2009180 <__sprint_r>
 2003474:	1039f81e 	bne	r2,zero,2001c58 <__reset+0xfe000c58>
 2003478:	d8c02017 	ldw	r3,128(sp)
 200347c:	da000404 	addi	r8,sp,16
 2003480:	003cd006 	br	20027c4 <__reset+0xfe0017c4>
 2003484:	8009883a 	mov	r4,r16
 2003488:	df003d15 	stw	fp,244(sp)
 200348c:	20017b00 	call	20017b0 <strlen>
 2003490:	d8802b15 	stw	r2,172(sp)
 2003494:	da003d17 	ldw	r8,244(sp)
 2003498:	103c200e 	bge	r2,zero,200251c <__reset+0xfe00151c>
 200349c:	0005883a 	mov	r2,zero
 20034a0:	003c1e06 	br	200251c <__reset+0xfe00151c>
 20034a4:	d9002d17 	ldw	r4,180(sp)
 20034a8:	d9801e04 	addi	r6,sp,120
 20034ac:	b80b883a 	mov	r5,r23
 20034b0:	20091800 	call	2009180 <__sprint_r>
 20034b4:	1039e81e 	bne	r2,zero,2001c58 <__reset+0xfe000c58>
 20034b8:	d8c02017 	ldw	r3,128(sp)
 20034bc:	d8801f17 	ldw	r2,124(sp)
 20034c0:	da000404 	addi	r8,sp,16
 20034c4:	d9403317 	ldw	r5,204(sp)
 20034c8:	10800044 	addi	r2,r2,1
 20034cc:	44000015 	stw	r16,0(r8)
 20034d0:	28c7883a 	add	r3,r5,r3
 20034d4:	003b5b06 	br	2002244 <__reset+0xfe001244>
 20034d8:	01008074 	movhi	r4,513
 20034dc:	21066884 	addi	r4,r4,6562
 20034e0:	d9003515 	stw	r4,212(sp)
 20034e4:	003af206 	br	20020b0 <__reset+0xfe0010b0>
 20034e8:	013fffc4 	movi	r4,-1
 20034ec:	003a0806 	br	2001d10 <__reset+0xfe000d10>
 20034f0:	0023883a 	mov	r17,zero
 20034f4:	003d9d06 	br	2002b6c <__reset+0xfe001b6c>
 20034f8:	d9002d17 	ldw	r4,180(sp)
 20034fc:	d9801e04 	addi	r6,sp,120
 2003500:	b80b883a 	mov	r5,r23
 2003504:	20091800 	call	2009180 <__sprint_r>
 2003508:	1039d31e 	bne	r2,zero,2001c58 <__reset+0xfe000c58>
 200350c:	d8c02017 	ldw	r3,128(sp)
 2003510:	da000404 	addi	r8,sp,16
 2003514:	003d9406 	br	2002b68 <__reset+0xfe001b68>
 2003518:	01008074 	movhi	r4,513
 200351c:	21066484 	addi	r4,r4,6546
 2003520:	d9002c15 	stw	r4,176(sp)
 2003524:	d9002c17 	ldw	r4,176(sp)
 2003528:	1c47883a 	add	r3,r3,r17
 200352c:	10800044 	addi	r2,r2,1
 2003530:	41000015 	stw	r4,0(r8)
 2003534:	44400115 	stw	r17,4(r8)
 2003538:	d8c02015 	stw	r3,128(sp)
 200353c:	d8801f15 	stw	r2,124(sp)
 2003540:	010001c4 	movi	r4,7
 2003544:	20bfd716 	blt	r4,r2,20034a4 <__reset+0xfe0024a4>
 2003548:	42000204 	addi	r8,r8,8
 200354c:	003fdd06 	br	20034c4 <__reset+0xfe0024c4>
 2003550:	d9002d17 	ldw	r4,180(sp)
 2003554:	d9801e04 	addi	r6,sp,120
 2003558:	b80b883a 	mov	r5,r23
 200355c:	20091800 	call	2009180 <__sprint_r>
 2003560:	1039bd1e 	bne	r2,zero,2001c58 <__reset+0xfe000c58>
 2003564:	d8802617 	ldw	r2,152(sp)
 2003568:	d8c02017 	ldw	r3,128(sp)
 200356c:	da000404 	addi	r8,sp,16
 2003570:	003e1006 	br	2002db4 <__reset+0xfe001db4>
 2003574:	00800044 	movi	r2,1
 2003578:	10803fcc 	andi	r2,r2,255
 200357c:	00c00044 	movi	r3,1
 2003580:	10fa0d26 	beq	r2,r3,2001db8 <__reset+0xfe000db8>
 2003584:	00c00084 	movi	r3,2
 2003588:	10fbaf26 	beq	r2,r3,2002448 <__reset+0xfe001448>
 200358c:	003a6d06 	br	2001f44 <__reset+0xfe000f44>
 2003590:	01008074 	movhi	r4,513
 2003594:	21066884 	addi	r4,r4,6562
 2003598:	d9003515 	stw	r4,212(sp)
 200359c:	003b5406 	br	20022f0 <__reset+0xfe0012f0>
 20035a0:	d8802a17 	ldw	r2,168(sp)
 20035a4:	00c00184 	movi	r3,6
 20035a8:	1880012e 	bgeu	r3,r2,20035b0 <___vfprintf_internal_r+0x1d68>
 20035ac:	1805883a 	mov	r2,r3
 20035b0:	d8802b15 	stw	r2,172(sp)
 20035b4:	1000ef16 	blt	r2,zero,2003974 <___vfprintf_internal_r+0x212c>
 20035b8:	04008074 	movhi	r16,513
 20035bc:	d8802915 	stw	r2,164(sp)
 20035c0:	dcc02e15 	stw	r19,184(sp)
 20035c4:	d8002a15 	stw	zero,168(sp)
 20035c8:	d8003215 	stw	zero,200(sp)
 20035cc:	84066204 	addi	r16,r16,6536
 20035d0:	0039883a 	mov	fp,zero
 20035d4:	003a8006 	br	2001fd8 <__reset+0xfe000fd8>
 20035d8:	0021883a 	mov	r16,zero
 20035dc:	003e0706 	br	2002dfc <__reset+0xfe001dfc>
 20035e0:	d9002d17 	ldw	r4,180(sp)
 20035e4:	d9801e04 	addi	r6,sp,120
 20035e8:	b80b883a 	mov	r5,r23
 20035ec:	20091800 	call	2009180 <__sprint_r>
 20035f0:	1039991e 	bne	r2,zero,2001c58 <__reset+0xfe000c58>
 20035f4:	d8802617 	ldw	r2,152(sp)
 20035f8:	d9403317 	ldw	r5,204(sp)
 20035fc:	d8c02017 	ldw	r3,128(sp)
 2003600:	da000404 	addi	r8,sp,16
 2003604:	2885c83a 	sub	r2,r5,r2
 2003608:	003dfb06 	br	2002df8 <__reset+0xfe001df8>
 200360c:	9080004c 	andi	r2,r18,1
 2003610:	103e8f1e 	bne	r2,zero,2003050 <__reset+0xfe002050>
 2003614:	d8802117 	ldw	r2,132(sp)
 2003618:	003e9e06 	br	2003094 <__reset+0xfe002094>
 200361c:	1025883a 	mov	r18,r2
 2003620:	0039883a 	mov	fp,zero
 2003624:	00800084 	movi	r2,2
 2003628:	003fd306 	br	2003578 <__reset+0xfe002578>
 200362c:	07000b44 	movi	fp,45
 2003630:	df002785 	stb	fp,158(sp)
 2003634:	003a1b06 	br	2001ea4 <__reset+0xfe000ea4>
 2003638:	00c00b44 	movi	r3,45
 200363c:	d8c02785 	stb	r3,158(sp)
 2003640:	d8802915 	stw	r2,164(sp)
 2003644:	dc802c17 	ldw	r18,176(sp)
 2003648:	d8002a15 	stw	zero,168(sp)
 200364c:	07000b44 	movi	fp,45
 2003650:	003a5e06 	br	2001fcc <__reset+0xfe000fcc>
 2003654:	04008074 	movhi	r16,513
 2003658:	84065704 	addi	r16,r16,6492
 200365c:	003f4706 	br	200337c <__reset+0xfe00237c>
 2003660:	d9002e17 	ldw	r4,184(sp)
 2003664:	d9402f17 	ldw	r5,188(sp)
 2003668:	20800017 	ldw	r2,0(r4)
 200366c:	21000104 	addi	r4,r4,4
 2003670:	d9002e15 	stw	r4,184(sp)
 2003674:	11400015 	stw	r5,0(r2)
 2003678:	0038ab06 	br	2001928 <__reset+0xfe000928>
 200367c:	dd802617 	ldw	r22,152(sp)
 2003680:	00bfff44 	movi	r2,-3
 2003684:	b0801c16 	blt	r22,r2,20036f8 <___vfprintf_internal_r+0x1eb0>
 2003688:	d9402a17 	ldw	r5,168(sp)
 200368c:	2d801a16 	blt	r5,r22,20036f8 <___vfprintf_internal_r+0x1eb0>
 2003690:	dd803215 	stw	r22,200(sp)
 2003694:	003e8906 	br	20030bc <__reset+0xfe0020bc>
 2003698:	01008074 	movhi	r4,513
 200369c:	21066484 	addi	r4,r4,6546
 20036a0:	d9002c15 	stw	r4,176(sp)
 20036a4:	003c9106 	br	20028ec <__reset+0xfe0018ec>
 20036a8:	e005883a 	mov	r2,fp
 20036ac:	003e7906 	br	2003094 <__reset+0xfe002094>
 20036b0:	d9002a17 	ldw	r4,168(sp)
 20036b4:	df002783 	ldbu	fp,158(sp)
 20036b8:	dcc02e15 	stw	r19,184(sp)
 20036bc:	d9002915 	stw	r4,164(sp)
 20036c0:	d9002b15 	stw	r4,172(sp)
 20036c4:	d8002a15 	stw	zero,168(sp)
 20036c8:	d8003215 	stw	zero,200(sp)
 20036cc:	003a3b06 	br	2001fbc <__reset+0xfe000fbc>
 20036d0:	9080004c 	andi	r2,r18,1
 20036d4:	0039883a 	mov	fp,zero
 20036d8:	10000426 	beq	r2,zero,20036ec <___vfprintf_internal_r+0x1ea4>
 20036dc:	00800c04 	movi	r2,48
 20036e0:	dc001dc4 	addi	r16,sp,119
 20036e4:	d8801dc5 	stb	r2,119(sp)
 20036e8:	003b6406 	br	200247c <__reset+0xfe00147c>
 20036ec:	d8002b15 	stw	zero,172(sp)
 20036f0:	dc001e04 	addi	r16,sp,120
 20036f4:	003a2b06 	br	2001fa4 <__reset+0xfe000fa4>
 20036f8:	8c7fff84 	addi	r17,r17,-2
 20036fc:	b5bfffc4 	addi	r22,r22,-1
 2003700:	dd802615 	stw	r22,152(sp)
 2003704:	dc4022c5 	stb	r17,139(sp)
 2003708:	b000bf16 	blt	r22,zero,2003a08 <___vfprintf_internal_r+0x21c0>
 200370c:	00800ac4 	movi	r2,43
 2003710:	d8802305 	stb	r2,140(sp)
 2003714:	00800244 	movi	r2,9
 2003718:	15807016 	blt	r2,r22,20038dc <___vfprintf_internal_r+0x2094>
 200371c:	00800c04 	movi	r2,48
 2003720:	b5800c04 	addi	r22,r22,48
 2003724:	d8802345 	stb	r2,141(sp)
 2003728:	dd802385 	stb	r22,142(sp)
 200372c:	d88023c4 	addi	r2,sp,143
 2003730:	df0022c4 	addi	fp,sp,139
 2003734:	d8c03317 	ldw	r3,204(sp)
 2003738:	1739c83a 	sub	fp,r2,fp
 200373c:	d9003317 	ldw	r4,204(sp)
 2003740:	e0c7883a 	add	r3,fp,r3
 2003744:	df003a15 	stw	fp,232(sp)
 2003748:	d8c02b15 	stw	r3,172(sp)
 200374c:	00800044 	movi	r2,1
 2003750:	1100b30e 	bge	r2,r4,2003a20 <___vfprintf_internal_r+0x21d8>
 2003754:	d8c02b17 	ldw	r3,172(sp)
 2003758:	18c00044 	addi	r3,r3,1
 200375c:	d8c02b15 	stw	r3,172(sp)
 2003760:	1805883a 	mov	r2,r3
 2003764:	1800ac16 	blt	r3,zero,2003a18 <___vfprintf_internal_r+0x21d0>
 2003768:	d8003215 	stw	zero,200(sp)
 200376c:	003e5d06 	br	20030e4 <__reset+0xfe0020e4>
 2003770:	d9002d17 	ldw	r4,180(sp)
 2003774:	d9801e04 	addi	r6,sp,120
 2003778:	b80b883a 	mov	r5,r23
 200377c:	20091800 	call	2009180 <__sprint_r>
 2003780:	1039351e 	bne	r2,zero,2001c58 <__reset+0xfe000c58>
 2003784:	dc402617 	ldw	r17,152(sp)
 2003788:	d8c02017 	ldw	r3,128(sp)
 200378c:	d8801f17 	ldw	r2,124(sp)
 2003790:	da000404 	addi	r8,sp,16
 2003794:	003ed606 	br	20032f0 <__reset+0xfe0022f0>
 2003798:	182b883a 	mov	r21,r3
 200379c:	d8002a15 	stw	zero,168(sp)
 20037a0:	00388c06 	br	20019d4 <__reset+0xfe0009d4>
 20037a4:	d8802a17 	ldw	r2,168(sp)
 20037a8:	103e071e 	bne	r2,zero,2002fc8 <__reset+0xfe001fc8>
 20037ac:	dc002a15 	stw	r16,168(sp)
 20037b0:	003e0506 	br	2002fc8 <__reset+0xfe001fc8>
 20037b4:	d9002a17 	ldw	r4,168(sp)
 20037b8:	20c00044 	addi	r3,r4,1
 20037bc:	003e0f06 	br	2002ffc <__reset+0xfe001ffc>
 20037c0:	01400184 	movi	r5,6
 20037c4:	d9402a15 	stw	r5,168(sp)
 20037c8:	003dff06 	br	2002fc8 <__reset+0xfe001fc8>
 20037cc:	d8802104 	addi	r2,sp,132
 20037d0:	d8800315 	stw	r2,12(sp)
 20037d4:	d8802504 	addi	r2,sp,148
 20037d8:	d8800215 	stw	r2,8(sp)
 20037dc:	d8802604 	addi	r2,sp,152
 20037e0:	d8800115 	stw	r2,4(sp)
 20037e4:	d8802a17 	ldw	r2,168(sp)
 20037e8:	d9403617 	ldw	r5,216(sp)
 20037ec:	d9002d17 	ldw	r4,180(sp)
 20037f0:	d8800015 	stw	r2,0(sp)
 20037f4:	01c000c4 	movi	r7,3
 20037f8:	980d883a 	mov	r6,r19
 20037fc:	da003d15 	stw	r8,244(sp)
 2003800:	20040d00 	call	20040d0 <_dtoa_r>
 2003804:	d8c02a17 	ldw	r3,168(sp)
 2003808:	da003d17 	ldw	r8,244(sp)
 200380c:	1021883a 	mov	r16,r2
 2003810:	10f9883a 	add	fp,r2,r3
 2003814:	81000007 	ldb	r4,0(r16)
 2003818:	00800c04 	movi	r2,48
 200381c:	20805e26 	beq	r4,r2,2003998 <___vfprintf_internal_r+0x2150>
 2003820:	d8c02617 	ldw	r3,152(sp)
 2003824:	e0f9883a 	add	fp,fp,r3
 2003828:	003e0a06 	br	2003054 <__reset+0xfe002054>
 200382c:	00c00b44 	movi	r3,45
 2003830:	24e0003c 	xorhi	r19,r4,32768
 2003834:	d8c02905 	stb	r3,164(sp)
 2003838:	003de906 	br	2002fe0 <__reset+0xfe001fe0>
 200383c:	d8c03217 	ldw	r3,200(sp)
 2003840:	00c07a0e 	bge	zero,r3,2003a2c <___vfprintf_internal_r+0x21e4>
 2003844:	00800044 	movi	r2,1
 2003848:	d9003317 	ldw	r4,204(sp)
 200384c:	1105883a 	add	r2,r2,r4
 2003850:	d8802b15 	stw	r2,172(sp)
 2003854:	10004e16 	blt	r2,zero,2003990 <___vfprintf_internal_r+0x2148>
 2003858:	044019c4 	movi	r17,103
 200385c:	003e2106 	br	20030e4 <__reset+0xfe0020e4>
 2003860:	d9002a17 	ldw	r4,168(sp)
 2003864:	d8802104 	addi	r2,sp,132
 2003868:	d8800315 	stw	r2,12(sp)
 200386c:	d9000015 	stw	r4,0(sp)
 2003870:	d8802504 	addi	r2,sp,148
 2003874:	d9403617 	ldw	r5,216(sp)
 2003878:	d9002d17 	ldw	r4,180(sp)
 200387c:	d8800215 	stw	r2,8(sp)
 2003880:	d8802604 	addi	r2,sp,152
 2003884:	d8800115 	stw	r2,4(sp)
 2003888:	01c000c4 	movi	r7,3
 200388c:	980d883a 	mov	r6,r19
 2003890:	da003d15 	stw	r8,244(sp)
 2003894:	20040d00 	call	20040d0 <_dtoa_r>
 2003898:	d8c02a17 	ldw	r3,168(sp)
 200389c:	da003d17 	ldw	r8,244(sp)
 20038a0:	1021883a 	mov	r16,r2
 20038a4:	00801184 	movi	r2,70
 20038a8:	80f9883a 	add	fp,r16,r3
 20038ac:	88bfd926 	beq	r17,r2,2003814 <__reset+0xfe002814>
 20038b0:	003de806 	br	2003054 <__reset+0xfe002054>
 20038b4:	d9002a17 	ldw	r4,168(sp)
 20038b8:	00c04d0e 	bge	zero,r3,20039f0 <___vfprintf_internal_r+0x21a8>
 20038bc:	2000441e 	bne	r4,zero,20039d0 <___vfprintf_internal_r+0x2188>
 20038c0:	9480004c 	andi	r18,r18,1
 20038c4:	9000421e 	bne	r18,zero,20039d0 <___vfprintf_internal_r+0x2188>
 20038c8:	1805883a 	mov	r2,r3
 20038cc:	18006f16 	blt	r3,zero,2003a8c <___vfprintf_internal_r+0x2244>
 20038d0:	d8c03217 	ldw	r3,200(sp)
 20038d4:	d8c02b15 	stw	r3,172(sp)
 20038d8:	003e0206 	br	20030e4 <__reset+0xfe0020e4>
 20038dc:	df0022c4 	addi	fp,sp,139
 20038e0:	dc002a15 	stw	r16,168(sp)
 20038e4:	4027883a 	mov	r19,r8
 20038e8:	e021883a 	mov	r16,fp
 20038ec:	b009883a 	mov	r4,r22
 20038f0:	01400284 	movi	r5,10
 20038f4:	200bbb40 	call	200bbb4 <__modsi3>
 20038f8:	10800c04 	addi	r2,r2,48
 20038fc:	843fffc4 	addi	r16,r16,-1
 2003900:	b009883a 	mov	r4,r22
 2003904:	01400284 	movi	r5,10
 2003908:	80800005 	stb	r2,0(r16)
 200390c:	200bb300 	call	200bb30 <__divsi3>
 2003910:	102d883a 	mov	r22,r2
 2003914:	00800244 	movi	r2,9
 2003918:	15bff416 	blt	r2,r22,20038ec <__reset+0xfe0028ec>
 200391c:	9811883a 	mov	r8,r19
 2003920:	b0800c04 	addi	r2,r22,48
 2003924:	8027883a 	mov	r19,r16
 2003928:	997fffc4 	addi	r5,r19,-1
 200392c:	98bfffc5 	stb	r2,-1(r19)
 2003930:	dc002a17 	ldw	r16,168(sp)
 2003934:	2f006d2e 	bgeu	r5,fp,2003aec <___vfprintf_internal_r+0x22a4>
 2003938:	d9c02384 	addi	r7,sp,142
 200393c:	3ccfc83a 	sub	r7,r7,r19
 2003940:	d9002344 	addi	r4,sp,141
 2003944:	e1cf883a 	add	r7,fp,r7
 2003948:	00000106 	br	2003950 <___vfprintf_internal_r+0x2108>
 200394c:	28800003 	ldbu	r2,0(r5)
 2003950:	20800005 	stb	r2,0(r4)
 2003954:	21000044 	addi	r4,r4,1
 2003958:	29400044 	addi	r5,r5,1
 200395c:	393ffb1e 	bne	r7,r4,200394c <__reset+0xfe00294c>
 2003960:	d8802304 	addi	r2,sp,140
 2003964:	14c5c83a 	sub	r2,r2,r19
 2003968:	d8c02344 	addi	r3,sp,141
 200396c:	1885883a 	add	r2,r3,r2
 2003970:	003f7006 	br	2003734 <__reset+0xfe002734>
 2003974:	0005883a 	mov	r2,zero
 2003978:	003f0f06 	br	20035b8 <__reset+0xfe0025b8>
 200397c:	d8c03217 	ldw	r3,200(sp)
 2003980:	18c00044 	addi	r3,r3,1
 2003984:	d8c02b15 	stw	r3,172(sp)
 2003988:	1805883a 	mov	r2,r3
 200398c:	183fb20e 	bge	r3,zero,2003858 <__reset+0xfe002858>
 2003990:	0005883a 	mov	r2,zero
 2003994:	003fb006 	br	2003858 <__reset+0xfe002858>
 2003998:	d9003617 	ldw	r4,216(sp)
 200399c:	000d883a 	mov	r6,zero
 20039a0:	000f883a 	mov	r7,zero
 20039a4:	980b883a 	mov	r5,r19
 20039a8:	d8c03c15 	stw	r3,240(sp)
 20039ac:	da003d15 	stw	r8,244(sp)
 20039b0:	200cf600 	call	200cf60 <__eqdf2>
 20039b4:	d8c03c17 	ldw	r3,240(sp)
 20039b8:	da003d17 	ldw	r8,244(sp)
 20039bc:	103f9826 	beq	r2,zero,2003820 <__reset+0xfe002820>
 20039c0:	00800044 	movi	r2,1
 20039c4:	10c7c83a 	sub	r3,r2,r3
 20039c8:	d8c02615 	stw	r3,152(sp)
 20039cc:	003f9506 	br	2003824 <__reset+0xfe002824>
 20039d0:	d9002a17 	ldw	r4,168(sp)
 20039d4:	d8c03217 	ldw	r3,200(sp)
 20039d8:	20800044 	addi	r2,r4,1
 20039dc:	1885883a 	add	r2,r3,r2
 20039e0:	d8802b15 	stw	r2,172(sp)
 20039e4:	103dbf0e 	bge	r2,zero,20030e4 <__reset+0xfe0020e4>
 20039e8:	0005883a 	mov	r2,zero
 20039ec:	003dbd06 	br	20030e4 <__reset+0xfe0020e4>
 20039f0:	2000201e 	bne	r4,zero,2003a74 <___vfprintf_internal_r+0x222c>
 20039f4:	9480004c 	andi	r18,r18,1
 20039f8:	90001e1e 	bne	r18,zero,2003a74 <___vfprintf_internal_r+0x222c>
 20039fc:	00800044 	movi	r2,1
 2003a00:	d8802b15 	stw	r2,172(sp)
 2003a04:	003db706 	br	20030e4 <__reset+0xfe0020e4>
 2003a08:	00800b44 	movi	r2,45
 2003a0c:	05adc83a 	sub	r22,zero,r22
 2003a10:	d8802305 	stb	r2,140(sp)
 2003a14:	003f3f06 	br	2003714 <__reset+0xfe002714>
 2003a18:	0005883a 	mov	r2,zero
 2003a1c:	003f5206 	br	2003768 <__reset+0xfe002768>
 2003a20:	90a4703a 	and	r18,r18,r2
 2003a24:	903f4e26 	beq	r18,zero,2003760 <__reset+0xfe002760>
 2003a28:	003f4a06 	br	2003754 <__reset+0xfe002754>
 2003a2c:	00800084 	movi	r2,2
 2003a30:	10c5c83a 	sub	r2,r2,r3
 2003a34:	003f8406 	br	2003848 <__reset+0xfe002848>
 2003a38:	d9402e17 	ldw	r5,184(sp)
 2003a3c:	d9002e17 	ldw	r4,184(sp)
 2003a40:	ac400043 	ldbu	r17,1(r21)
 2003a44:	29400017 	ldw	r5,0(r5)
 2003a48:	20800104 	addi	r2,r4,4
 2003a4c:	d8802e15 	stw	r2,184(sp)
 2003a50:	d9402a15 	stw	r5,168(sp)
 2003a54:	182b883a 	mov	r21,r3
 2003a58:	283e7b0e 	bge	r5,zero,2003448 <__reset+0xfe002448>
 2003a5c:	8c403fcc 	andi	r17,r17,255
 2003a60:	017fffc4 	movi	r5,-1
 2003a64:	8c40201c 	xori	r17,r17,128
 2003a68:	d9402a15 	stw	r5,168(sp)
 2003a6c:	8c7fe004 	addi	r17,r17,-128
 2003a70:	0037d706 	br	20019d0 <__reset+0xfe0009d0>
 2003a74:	d8c02a17 	ldw	r3,168(sp)
 2003a78:	18c00084 	addi	r3,r3,2
 2003a7c:	d8c02b15 	stw	r3,172(sp)
 2003a80:	1805883a 	mov	r2,r3
 2003a84:	183d970e 	bge	r3,zero,20030e4 <__reset+0xfe0020e4>
 2003a88:	003fd706 	br	20039e8 <__reset+0xfe0029e8>
 2003a8c:	0005883a 	mov	r2,zero
 2003a90:	003f8f06 	br	20038d0 <__reset+0xfe0028d0>
 2003a94:	9080004c 	andi	r2,r18,1
 2003a98:	103f821e 	bne	r2,zero,20038a4 <__reset+0xfe0028a4>
 2003a9c:	d8802117 	ldw	r2,132(sp)
 2003aa0:	1405c83a 	sub	r2,r2,r16
 2003aa4:	d8803315 	stw	r2,204(sp)
 2003aa8:	b47ef426 	beq	r22,r17,200367c <__reset+0xfe00267c>
 2003aac:	dd802617 	ldw	r22,152(sp)
 2003ab0:	003f1206 	br	20036fc <__reset+0xfe0026fc>
 2003ab4:	d8c02b03 	ldbu	r3,172(sp)
 2003ab8:	d8c02785 	stb	r3,158(sp)
 2003abc:	0038df06 	br	2001e3c <__reset+0xfe000e3c>
 2003ac0:	d8c02b03 	ldbu	r3,172(sp)
 2003ac4:	d8c02785 	stb	r3,158(sp)
 2003ac8:	0038aa06 	br	2001d74 <__reset+0xfe000d74>
 2003acc:	d8c02b03 	ldbu	r3,172(sp)
 2003ad0:	d8c02785 	stb	r3,158(sp)
 2003ad4:	003a4306 	br	20023e4 <__reset+0xfe0013e4>
 2003ad8:	d8c02b03 	ldbu	r3,172(sp)
 2003adc:	d8c02785 	stb	r3,158(sp)
 2003ae0:	003af506 	br	20026b8 <__reset+0xfe0016b8>
 2003ae4:	0005883a 	mov	r2,zero
 2003ae8:	003d7b06 	br	20030d8 <__reset+0xfe0020d8>
 2003aec:	d8802344 	addi	r2,sp,141
 2003af0:	003f1006 	br	2003734 <__reset+0xfe002734>
 2003af4:	d8c02b03 	ldbu	r3,172(sp)
 2003af8:	d8c02785 	stb	r3,158(sp)
 2003afc:	0038fd06 	br	2001ef4 <__reset+0xfe000ef4>
 2003b00:	d8c02b03 	ldbu	r3,172(sp)
 2003b04:	d8c02785 	stb	r3,158(sp)
 2003b08:	003a9706 	br	2002568 <__reset+0xfe001568>
 2003b0c:	d8c02b03 	ldbu	r3,172(sp)
 2003b10:	d8c02785 	stb	r3,158(sp)
 2003b14:	003a1806 	br	2002378 <__reset+0xfe001378>
 2003b18:	d8c02b03 	ldbu	r3,172(sp)
 2003b1c:	d8c02785 	stb	r3,158(sp)
 2003b20:	003abe06 	br	200261c <__reset+0xfe00161c>

02003b24 <__vfprintf_internal>:
 2003b24:	00808074 	movhi	r2,513
 2003b28:	108df904 	addi	r2,r2,14308
 2003b2c:	300f883a 	mov	r7,r6
 2003b30:	280d883a 	mov	r6,r5
 2003b34:	200b883a 	mov	r5,r4
 2003b38:	11000017 	ldw	r4,0(r2)
 2003b3c:	20018481 	jmpi	2001848 <___vfprintf_internal_r>

02003b40 <__sbprintf>:
 2003b40:	2880030b 	ldhu	r2,12(r5)
 2003b44:	2ac01917 	ldw	r11,100(r5)
 2003b48:	2a80038b 	ldhu	r10,14(r5)
 2003b4c:	2a400717 	ldw	r9,28(r5)
 2003b50:	2a000917 	ldw	r8,36(r5)
 2003b54:	defee204 	addi	sp,sp,-1144
 2003b58:	00c10004 	movi	r3,1024
 2003b5c:	dc011a15 	stw	r16,1128(sp)
 2003b60:	10bfff4c 	andi	r2,r2,65533
 2003b64:	2821883a 	mov	r16,r5
 2003b68:	d8cb883a 	add	r5,sp,r3
 2003b6c:	dc811c15 	stw	r18,1136(sp)
 2003b70:	dc411b15 	stw	r17,1132(sp)
 2003b74:	dfc11d15 	stw	ra,1140(sp)
 2003b78:	2025883a 	mov	r18,r4
 2003b7c:	d881030d 	sth	r2,1036(sp)
 2003b80:	dac11915 	stw	r11,1124(sp)
 2003b84:	da81038d 	sth	r10,1038(sp)
 2003b88:	da410715 	stw	r9,1052(sp)
 2003b8c:	da010915 	stw	r8,1060(sp)
 2003b90:	dec10015 	stw	sp,1024(sp)
 2003b94:	dec10415 	stw	sp,1040(sp)
 2003b98:	d8c10215 	stw	r3,1032(sp)
 2003b9c:	d8c10515 	stw	r3,1044(sp)
 2003ba0:	d8010615 	stw	zero,1048(sp)
 2003ba4:	20018480 	call	2001848 <___vfprintf_internal_r>
 2003ba8:	1023883a 	mov	r17,r2
 2003bac:	10000416 	blt	r2,zero,2003bc0 <__sbprintf+0x80>
 2003bb0:	d9410004 	addi	r5,sp,1024
 2003bb4:	9009883a 	mov	r4,r18
 2003bb8:	20059740 	call	2005974 <_fflush_r>
 2003bbc:	10000d1e 	bne	r2,zero,2003bf4 <__sbprintf+0xb4>
 2003bc0:	d881030b 	ldhu	r2,1036(sp)
 2003bc4:	1080100c 	andi	r2,r2,64
 2003bc8:	10000326 	beq	r2,zero,2003bd8 <__sbprintf+0x98>
 2003bcc:	8080030b 	ldhu	r2,12(r16)
 2003bd0:	10801014 	ori	r2,r2,64
 2003bd4:	8080030d 	sth	r2,12(r16)
 2003bd8:	8805883a 	mov	r2,r17
 2003bdc:	dfc11d17 	ldw	ra,1140(sp)
 2003be0:	dc811c17 	ldw	r18,1136(sp)
 2003be4:	dc411b17 	ldw	r17,1132(sp)
 2003be8:	dc011a17 	ldw	r16,1128(sp)
 2003bec:	dec11e04 	addi	sp,sp,1144
 2003bf0:	f800283a 	ret
 2003bf4:	047fffc4 	movi	r17,-1
 2003bf8:	003ff106 	br	2003bc0 <__reset+0xfe002bc0>

02003bfc <__swbuf_r>:
 2003bfc:	defffb04 	addi	sp,sp,-20
 2003c00:	dcc00315 	stw	r19,12(sp)
 2003c04:	dc800215 	stw	r18,8(sp)
 2003c08:	dc000015 	stw	r16,0(sp)
 2003c0c:	dfc00415 	stw	ra,16(sp)
 2003c10:	dc400115 	stw	r17,4(sp)
 2003c14:	2025883a 	mov	r18,r4
 2003c18:	2827883a 	mov	r19,r5
 2003c1c:	3021883a 	mov	r16,r6
 2003c20:	20000226 	beq	r4,zero,2003c2c <__swbuf_r+0x30>
 2003c24:	20800e17 	ldw	r2,56(r4)
 2003c28:	10004226 	beq	r2,zero,2003d34 <__swbuf_r+0x138>
 2003c2c:	80800617 	ldw	r2,24(r16)
 2003c30:	8100030b 	ldhu	r4,12(r16)
 2003c34:	80800215 	stw	r2,8(r16)
 2003c38:	2080020c 	andi	r2,r4,8
 2003c3c:	10003626 	beq	r2,zero,2003d18 <__swbuf_r+0x11c>
 2003c40:	80c00417 	ldw	r3,16(r16)
 2003c44:	18003426 	beq	r3,zero,2003d18 <__swbuf_r+0x11c>
 2003c48:	2088000c 	andi	r2,r4,8192
 2003c4c:	9c403fcc 	andi	r17,r19,255
 2003c50:	10001a26 	beq	r2,zero,2003cbc <__swbuf_r+0xc0>
 2003c54:	80800017 	ldw	r2,0(r16)
 2003c58:	81000517 	ldw	r4,20(r16)
 2003c5c:	10c7c83a 	sub	r3,r2,r3
 2003c60:	1900200e 	bge	r3,r4,2003ce4 <__swbuf_r+0xe8>
 2003c64:	18c00044 	addi	r3,r3,1
 2003c68:	81000217 	ldw	r4,8(r16)
 2003c6c:	11400044 	addi	r5,r2,1
 2003c70:	81400015 	stw	r5,0(r16)
 2003c74:	213fffc4 	addi	r4,r4,-1
 2003c78:	81000215 	stw	r4,8(r16)
 2003c7c:	14c00005 	stb	r19,0(r2)
 2003c80:	80800517 	ldw	r2,20(r16)
 2003c84:	10c01e26 	beq	r2,r3,2003d00 <__swbuf_r+0x104>
 2003c88:	8080030b 	ldhu	r2,12(r16)
 2003c8c:	1080004c 	andi	r2,r2,1
 2003c90:	10000226 	beq	r2,zero,2003c9c <__swbuf_r+0xa0>
 2003c94:	00800284 	movi	r2,10
 2003c98:	88801926 	beq	r17,r2,2003d00 <__swbuf_r+0x104>
 2003c9c:	8805883a 	mov	r2,r17
 2003ca0:	dfc00417 	ldw	ra,16(sp)
 2003ca4:	dcc00317 	ldw	r19,12(sp)
 2003ca8:	dc800217 	ldw	r18,8(sp)
 2003cac:	dc400117 	ldw	r17,4(sp)
 2003cb0:	dc000017 	ldw	r16,0(sp)
 2003cb4:	dec00504 	addi	sp,sp,20
 2003cb8:	f800283a 	ret
 2003cbc:	81401917 	ldw	r5,100(r16)
 2003cc0:	00b7ffc4 	movi	r2,-8193
 2003cc4:	21080014 	ori	r4,r4,8192
 2003cc8:	2884703a 	and	r2,r5,r2
 2003ccc:	80801915 	stw	r2,100(r16)
 2003cd0:	80800017 	ldw	r2,0(r16)
 2003cd4:	8100030d 	sth	r4,12(r16)
 2003cd8:	81000517 	ldw	r4,20(r16)
 2003cdc:	10c7c83a 	sub	r3,r2,r3
 2003ce0:	193fe016 	blt	r3,r4,2003c64 <__reset+0xfe002c64>
 2003ce4:	800b883a 	mov	r5,r16
 2003ce8:	9009883a 	mov	r4,r18
 2003cec:	20059740 	call	2005974 <_fflush_r>
 2003cf0:	1000071e 	bne	r2,zero,2003d10 <__swbuf_r+0x114>
 2003cf4:	80800017 	ldw	r2,0(r16)
 2003cf8:	00c00044 	movi	r3,1
 2003cfc:	003fda06 	br	2003c68 <__reset+0xfe002c68>
 2003d00:	800b883a 	mov	r5,r16
 2003d04:	9009883a 	mov	r4,r18
 2003d08:	20059740 	call	2005974 <_fflush_r>
 2003d0c:	103fe326 	beq	r2,zero,2003c9c <__reset+0xfe002c9c>
 2003d10:	00bfffc4 	movi	r2,-1
 2003d14:	003fe206 	br	2003ca0 <__reset+0xfe002ca0>
 2003d18:	800b883a 	mov	r5,r16
 2003d1c:	9009883a 	mov	r4,r18
 2003d20:	2003d540 	call	2003d54 <__swsetup_r>
 2003d24:	103ffa1e 	bne	r2,zero,2003d10 <__reset+0xfe002d10>
 2003d28:	8100030b 	ldhu	r4,12(r16)
 2003d2c:	80c00417 	ldw	r3,16(r16)
 2003d30:	003fc506 	br	2003c48 <__reset+0xfe002c48>
 2003d34:	2005d600 	call	2005d60 <__sinit>
 2003d38:	003fbc06 	br	2003c2c <__reset+0xfe002c2c>

02003d3c <__swbuf>:
 2003d3c:	00808074 	movhi	r2,513
 2003d40:	108df904 	addi	r2,r2,14308
 2003d44:	280d883a 	mov	r6,r5
 2003d48:	200b883a 	mov	r5,r4
 2003d4c:	11000017 	ldw	r4,0(r2)
 2003d50:	2003bfc1 	jmpi	2003bfc <__swbuf_r>

02003d54 <__swsetup_r>:
 2003d54:	00808074 	movhi	r2,513
 2003d58:	defffd04 	addi	sp,sp,-12
 2003d5c:	108df904 	addi	r2,r2,14308
 2003d60:	dc400115 	stw	r17,4(sp)
 2003d64:	2023883a 	mov	r17,r4
 2003d68:	11000017 	ldw	r4,0(r2)
 2003d6c:	dc000015 	stw	r16,0(sp)
 2003d70:	dfc00215 	stw	ra,8(sp)
 2003d74:	2821883a 	mov	r16,r5
 2003d78:	20000226 	beq	r4,zero,2003d84 <__swsetup_r+0x30>
 2003d7c:	20800e17 	ldw	r2,56(r4)
 2003d80:	10003126 	beq	r2,zero,2003e48 <__swsetup_r+0xf4>
 2003d84:	8080030b 	ldhu	r2,12(r16)
 2003d88:	10c0020c 	andi	r3,r2,8
 2003d8c:	1009883a 	mov	r4,r2
 2003d90:	18000f26 	beq	r3,zero,2003dd0 <__swsetup_r+0x7c>
 2003d94:	80c00417 	ldw	r3,16(r16)
 2003d98:	18001526 	beq	r3,zero,2003df0 <__swsetup_r+0x9c>
 2003d9c:	1100004c 	andi	r4,r2,1
 2003da0:	20001c1e 	bne	r4,zero,2003e14 <__swsetup_r+0xc0>
 2003da4:	1080008c 	andi	r2,r2,2
 2003da8:	1000291e 	bne	r2,zero,2003e50 <__swsetup_r+0xfc>
 2003dac:	80800517 	ldw	r2,20(r16)
 2003db0:	80800215 	stw	r2,8(r16)
 2003db4:	18001c26 	beq	r3,zero,2003e28 <__swsetup_r+0xd4>
 2003db8:	0005883a 	mov	r2,zero
 2003dbc:	dfc00217 	ldw	ra,8(sp)
 2003dc0:	dc400117 	ldw	r17,4(sp)
 2003dc4:	dc000017 	ldw	r16,0(sp)
 2003dc8:	dec00304 	addi	sp,sp,12
 2003dcc:	f800283a 	ret
 2003dd0:	2080040c 	andi	r2,r4,16
 2003dd4:	10002e26 	beq	r2,zero,2003e90 <__swsetup_r+0x13c>
 2003dd8:	2080010c 	andi	r2,r4,4
 2003ddc:	10001e1e 	bne	r2,zero,2003e58 <__swsetup_r+0x104>
 2003de0:	80c00417 	ldw	r3,16(r16)
 2003de4:	20800214 	ori	r2,r4,8
 2003de8:	8080030d 	sth	r2,12(r16)
 2003dec:	183feb1e 	bne	r3,zero,2003d9c <__reset+0xfe002d9c>
 2003df0:	1100a00c 	andi	r4,r2,640
 2003df4:	01408004 	movi	r5,512
 2003df8:	217fe826 	beq	r4,r5,2003d9c <__reset+0xfe002d9c>
 2003dfc:	800b883a 	mov	r5,r16
 2003e00:	8809883a 	mov	r4,r17
 2003e04:	20069100 	call	2006910 <__smakebuf_r>
 2003e08:	8080030b 	ldhu	r2,12(r16)
 2003e0c:	80c00417 	ldw	r3,16(r16)
 2003e10:	003fe206 	br	2003d9c <__reset+0xfe002d9c>
 2003e14:	80800517 	ldw	r2,20(r16)
 2003e18:	80000215 	stw	zero,8(r16)
 2003e1c:	0085c83a 	sub	r2,zero,r2
 2003e20:	80800615 	stw	r2,24(r16)
 2003e24:	183fe41e 	bne	r3,zero,2003db8 <__reset+0xfe002db8>
 2003e28:	80c0030b 	ldhu	r3,12(r16)
 2003e2c:	0005883a 	mov	r2,zero
 2003e30:	1900200c 	andi	r4,r3,128
 2003e34:	203fe126 	beq	r4,zero,2003dbc <__reset+0xfe002dbc>
 2003e38:	18c01014 	ori	r3,r3,64
 2003e3c:	80c0030d 	sth	r3,12(r16)
 2003e40:	00bfffc4 	movi	r2,-1
 2003e44:	003fdd06 	br	2003dbc <__reset+0xfe002dbc>
 2003e48:	2005d600 	call	2005d60 <__sinit>
 2003e4c:	003fcd06 	br	2003d84 <__reset+0xfe002d84>
 2003e50:	0005883a 	mov	r2,zero
 2003e54:	003fd606 	br	2003db0 <__reset+0xfe002db0>
 2003e58:	81400c17 	ldw	r5,48(r16)
 2003e5c:	28000626 	beq	r5,zero,2003e78 <__swsetup_r+0x124>
 2003e60:	80801004 	addi	r2,r16,64
 2003e64:	28800326 	beq	r5,r2,2003e74 <__swsetup_r+0x120>
 2003e68:	8809883a 	mov	r4,r17
 2003e6c:	2005ed40 	call	2005ed4 <_free_r>
 2003e70:	8100030b 	ldhu	r4,12(r16)
 2003e74:	80000c15 	stw	zero,48(r16)
 2003e78:	80c00417 	ldw	r3,16(r16)
 2003e7c:	00bff6c4 	movi	r2,-37
 2003e80:	1108703a 	and	r4,r2,r4
 2003e84:	80000115 	stw	zero,4(r16)
 2003e88:	80c00015 	stw	r3,0(r16)
 2003e8c:	003fd506 	br	2003de4 <__reset+0xfe002de4>
 2003e90:	00800244 	movi	r2,9
 2003e94:	88800015 	stw	r2,0(r17)
 2003e98:	20801014 	ori	r2,r4,64
 2003e9c:	8080030d 	sth	r2,12(r16)
 2003ea0:	00bfffc4 	movi	r2,-1
 2003ea4:	003fc506 	br	2003dbc <__reset+0xfe002dbc>

02003ea8 <quorem>:
 2003ea8:	defff204 	addi	sp,sp,-56
 2003eac:	ddc00b15 	stw	r23,44(sp)
 2003eb0:	20800417 	ldw	r2,16(r4)
 2003eb4:	2dc00417 	ldw	r23,16(r5)
 2003eb8:	dfc00d15 	stw	ra,52(sp)
 2003ebc:	df000c15 	stw	fp,48(sp)
 2003ec0:	dd800a15 	stw	r22,40(sp)
 2003ec4:	dd400915 	stw	r21,36(sp)
 2003ec8:	dd000815 	stw	r20,32(sp)
 2003ecc:	dcc00715 	stw	r19,28(sp)
 2003ed0:	dc800615 	stw	r18,24(sp)
 2003ed4:	dc400515 	stw	r17,20(sp)
 2003ed8:	dc000415 	stw	r16,16(sp)
 2003edc:	15c07a16 	blt	r2,r23,20040c8 <quorem+0x220>
 2003ee0:	bdffffc4 	addi	r23,r23,-1
 2003ee4:	bde9883a 	add	r20,r23,r23
 2003ee8:	28c00504 	addi	r3,r5,20
 2003eec:	a529883a 	add	r20,r20,r20
 2003ef0:	1d39883a 	add	fp,r3,r20
 2003ef4:	24c00504 	addi	r19,r4,20
 2003ef8:	d9400215 	stw	r5,8(sp)
 2003efc:	9d29883a 	add	r20,r19,r20
 2003f00:	e1400017 	ldw	r5,0(fp)
 2003f04:	d9000015 	stw	r4,0(sp)
 2003f08:	a1000017 	ldw	r4,0(r20)
 2003f0c:	29400044 	addi	r5,r5,1
 2003f10:	d8c00115 	stw	r3,4(sp)
 2003f14:	dd000315 	stw	r20,12(sp)
 2003f18:	200bc280 	call	200bc28 <__udivsi3>
 2003f1c:	1025883a 	mov	r18,r2
 2003f20:	10003026 	beq	r2,zero,2003fe4 <quorem+0x13c>
 2003f24:	dc400117 	ldw	r17,4(sp)
 2003f28:	9829883a 	mov	r20,r19
 2003f2c:	002d883a 	mov	r22,zero
 2003f30:	0021883a 	mov	r16,zero
 2003f34:	8d400017 	ldw	r21,0(r17)
 2003f38:	900b883a 	mov	r5,r18
 2003f3c:	8c400104 	addi	r17,r17,4
 2003f40:	a93fffcc 	andi	r4,r21,65535
 2003f44:	20014600 	call	2001460 <__mulsi3>
 2003f48:	a808d43a 	srli	r4,r21,16
 2003f4c:	900b883a 	mov	r5,r18
 2003f50:	15ad883a 	add	r22,r2,r22
 2003f54:	20014600 	call	2001460 <__mulsi3>
 2003f58:	a1000017 	ldw	r4,0(r20)
 2003f5c:	b00cd43a 	srli	r6,r22,16
 2003f60:	b0ffffcc 	andi	r3,r22,65535
 2003f64:	217fffcc 	andi	r5,r4,65535
 2003f68:	2c21883a 	add	r16,r5,r16
 2003f6c:	80c7c83a 	sub	r3,r16,r3
 2003f70:	2008d43a 	srli	r4,r4,16
 2003f74:	1185883a 	add	r2,r2,r6
 2003f78:	1821d43a 	srai	r16,r3,16
 2003f7c:	117fffcc 	andi	r5,r2,65535
 2003f80:	2149c83a 	sub	r4,r4,r5
 2003f84:	2421883a 	add	r16,r4,r16
 2003f88:	8008943a 	slli	r4,r16,16
 2003f8c:	18ffffcc 	andi	r3,r3,65535
 2003f90:	102cd43a 	srli	r22,r2,16
 2003f94:	20c8b03a 	or	r4,r4,r3
 2003f98:	a1000015 	stw	r4,0(r20)
 2003f9c:	8021d43a 	srai	r16,r16,16
 2003fa0:	a5000104 	addi	r20,r20,4
 2003fa4:	e47fe32e 	bgeu	fp,r17,2003f34 <__reset+0xfe002f34>
 2003fa8:	d8c00317 	ldw	r3,12(sp)
 2003fac:	18800017 	ldw	r2,0(r3)
 2003fb0:	10000c1e 	bne	r2,zero,2003fe4 <quorem+0x13c>
 2003fb4:	18bfff04 	addi	r2,r3,-4
 2003fb8:	9880082e 	bgeu	r19,r2,2003fdc <quorem+0x134>
 2003fbc:	18ffff17 	ldw	r3,-4(r3)
 2003fc0:	18000326 	beq	r3,zero,2003fd0 <quorem+0x128>
 2003fc4:	00000506 	br	2003fdc <quorem+0x134>
 2003fc8:	10c00017 	ldw	r3,0(r2)
 2003fcc:	1800031e 	bne	r3,zero,2003fdc <quorem+0x134>
 2003fd0:	10bfff04 	addi	r2,r2,-4
 2003fd4:	bdffffc4 	addi	r23,r23,-1
 2003fd8:	98bffb36 	bltu	r19,r2,2003fc8 <__reset+0xfe002fc8>
 2003fdc:	d8c00017 	ldw	r3,0(sp)
 2003fe0:	1dc00415 	stw	r23,16(r3)
 2003fe4:	d9400217 	ldw	r5,8(sp)
 2003fe8:	d9000017 	ldw	r4,0(sp)
 2003fec:	200810c0 	call	200810c <__mcmp>
 2003ff0:	10002816 	blt	r2,zero,2004094 <quorem+0x1ec>
 2003ff4:	dc400117 	ldw	r17,4(sp)
 2003ff8:	94800044 	addi	r18,r18,1
 2003ffc:	980d883a 	mov	r6,r19
 2004000:	0007883a 	mov	r3,zero
 2004004:	31000017 	ldw	r4,0(r6)
 2004008:	89400017 	ldw	r5,0(r17)
 200400c:	31800104 	addi	r6,r6,4
 2004010:	20bfffcc 	andi	r2,r4,65535
 2004014:	10c7883a 	add	r3,r2,r3
 2004018:	28bfffcc 	andi	r2,r5,65535
 200401c:	1885c83a 	sub	r2,r3,r2
 2004020:	280ad43a 	srli	r5,r5,16
 2004024:	2008d43a 	srli	r4,r4,16
 2004028:	1007d43a 	srai	r3,r2,16
 200402c:	10bfffcc 	andi	r2,r2,65535
 2004030:	2149c83a 	sub	r4,r4,r5
 2004034:	20c9883a 	add	r4,r4,r3
 2004038:	200a943a 	slli	r5,r4,16
 200403c:	8c400104 	addi	r17,r17,4
 2004040:	2007d43a 	srai	r3,r4,16
 2004044:	2884b03a 	or	r2,r5,r2
 2004048:	30bfff15 	stw	r2,-4(r6)
 200404c:	e47fed2e 	bgeu	fp,r17,2004004 <__reset+0xfe003004>
 2004050:	bdc5883a 	add	r2,r23,r23
 2004054:	1085883a 	add	r2,r2,r2
 2004058:	9887883a 	add	r3,r19,r2
 200405c:	18800017 	ldw	r2,0(r3)
 2004060:	10000c1e 	bne	r2,zero,2004094 <quorem+0x1ec>
 2004064:	18bfff04 	addi	r2,r3,-4
 2004068:	9880082e 	bgeu	r19,r2,200408c <quorem+0x1e4>
 200406c:	18ffff17 	ldw	r3,-4(r3)
 2004070:	18000326 	beq	r3,zero,2004080 <quorem+0x1d8>
 2004074:	00000506 	br	200408c <quorem+0x1e4>
 2004078:	10c00017 	ldw	r3,0(r2)
 200407c:	1800031e 	bne	r3,zero,200408c <quorem+0x1e4>
 2004080:	10bfff04 	addi	r2,r2,-4
 2004084:	bdffffc4 	addi	r23,r23,-1
 2004088:	98bffb36 	bltu	r19,r2,2004078 <__reset+0xfe003078>
 200408c:	d8c00017 	ldw	r3,0(sp)
 2004090:	1dc00415 	stw	r23,16(r3)
 2004094:	9005883a 	mov	r2,r18
 2004098:	dfc00d17 	ldw	ra,52(sp)
 200409c:	df000c17 	ldw	fp,48(sp)
 20040a0:	ddc00b17 	ldw	r23,44(sp)
 20040a4:	dd800a17 	ldw	r22,40(sp)
 20040a8:	dd400917 	ldw	r21,36(sp)
 20040ac:	dd000817 	ldw	r20,32(sp)
 20040b0:	dcc00717 	ldw	r19,28(sp)
 20040b4:	dc800617 	ldw	r18,24(sp)
 20040b8:	dc400517 	ldw	r17,20(sp)
 20040bc:	dc000417 	ldw	r16,16(sp)
 20040c0:	dec00e04 	addi	sp,sp,56
 20040c4:	f800283a 	ret
 20040c8:	0005883a 	mov	r2,zero
 20040cc:	003ff206 	br	2004098 <__reset+0xfe003098>

020040d0 <_dtoa_r>:
 20040d0:	20801017 	ldw	r2,64(r4)
 20040d4:	deffde04 	addi	sp,sp,-136
 20040d8:	df002015 	stw	fp,128(sp)
 20040dc:	dcc01b15 	stw	r19,108(sp)
 20040e0:	dc801a15 	stw	r18,104(sp)
 20040e4:	dc401915 	stw	r17,100(sp)
 20040e8:	dc001815 	stw	r16,96(sp)
 20040ec:	dfc02115 	stw	ra,132(sp)
 20040f0:	ddc01f15 	stw	r23,124(sp)
 20040f4:	dd801e15 	stw	r22,120(sp)
 20040f8:	dd401d15 	stw	r21,116(sp)
 20040fc:	dd001c15 	stw	r20,112(sp)
 2004100:	d9c00315 	stw	r7,12(sp)
 2004104:	2039883a 	mov	fp,r4
 2004108:	3023883a 	mov	r17,r6
 200410c:	2825883a 	mov	r18,r5
 2004110:	dc002417 	ldw	r16,144(sp)
 2004114:	3027883a 	mov	r19,r6
 2004118:	10000826 	beq	r2,zero,200413c <_dtoa_r+0x6c>
 200411c:	21801117 	ldw	r6,68(r4)
 2004120:	00c00044 	movi	r3,1
 2004124:	100b883a 	mov	r5,r2
 2004128:	1986983a 	sll	r3,r3,r6
 200412c:	11800115 	stw	r6,4(r2)
 2004130:	10c00215 	stw	r3,8(r2)
 2004134:	20078300 	call	2007830 <_Bfree>
 2004138:	e0001015 	stw	zero,64(fp)
 200413c:	88002e16 	blt	r17,zero,20041f8 <_dtoa_r+0x128>
 2004140:	80000015 	stw	zero,0(r16)
 2004144:	889ffc2c 	andhi	r2,r17,32752
 2004148:	00dffc34 	movhi	r3,32752
 200414c:	10c01c26 	beq	r2,r3,20041c0 <_dtoa_r+0xf0>
 2004150:	000d883a 	mov	r6,zero
 2004154:	000f883a 	mov	r7,zero
 2004158:	9009883a 	mov	r4,r18
 200415c:	980b883a 	mov	r5,r19
 2004160:	200cf600 	call	200cf60 <__eqdf2>
 2004164:	10002b1e 	bne	r2,zero,2004214 <_dtoa_r+0x144>
 2004168:	d9c02317 	ldw	r7,140(sp)
 200416c:	00800044 	movi	r2,1
 2004170:	38800015 	stw	r2,0(r7)
 2004174:	d8802517 	ldw	r2,148(sp)
 2004178:	10019e26 	beq	r2,zero,20047f4 <_dtoa_r+0x724>
 200417c:	d8c02517 	ldw	r3,148(sp)
 2004180:	00808074 	movhi	r2,513
 2004184:	10866444 	addi	r2,r2,6545
 2004188:	18800015 	stw	r2,0(r3)
 200418c:	10bfffc4 	addi	r2,r2,-1
 2004190:	dfc02117 	ldw	ra,132(sp)
 2004194:	df002017 	ldw	fp,128(sp)
 2004198:	ddc01f17 	ldw	r23,124(sp)
 200419c:	dd801e17 	ldw	r22,120(sp)
 20041a0:	dd401d17 	ldw	r21,116(sp)
 20041a4:	dd001c17 	ldw	r20,112(sp)
 20041a8:	dcc01b17 	ldw	r19,108(sp)
 20041ac:	dc801a17 	ldw	r18,104(sp)
 20041b0:	dc401917 	ldw	r17,100(sp)
 20041b4:	dc001817 	ldw	r16,96(sp)
 20041b8:	dec02204 	addi	sp,sp,136
 20041bc:	f800283a 	ret
 20041c0:	d8c02317 	ldw	r3,140(sp)
 20041c4:	0089c3c4 	movi	r2,9999
 20041c8:	18800015 	stw	r2,0(r3)
 20041cc:	90017726 	beq	r18,zero,20047ac <_dtoa_r+0x6dc>
 20041d0:	00808074 	movhi	r2,513
 20041d4:	10867004 	addi	r2,r2,6592
 20041d8:	d9002517 	ldw	r4,148(sp)
 20041dc:	203fec26 	beq	r4,zero,2004190 <__reset+0xfe003190>
 20041e0:	10c000c7 	ldb	r3,3(r2)
 20041e4:	1801781e 	bne	r3,zero,20047c8 <_dtoa_r+0x6f8>
 20041e8:	10c000c4 	addi	r3,r2,3
 20041ec:	d9802517 	ldw	r6,148(sp)
 20041f0:	30c00015 	stw	r3,0(r6)
 20041f4:	003fe606 	br	2004190 <__reset+0xfe003190>
 20041f8:	04e00034 	movhi	r19,32768
 20041fc:	9cffffc4 	addi	r19,r19,-1
 2004200:	00800044 	movi	r2,1
 2004204:	8ce6703a 	and	r19,r17,r19
 2004208:	80800015 	stw	r2,0(r16)
 200420c:	9823883a 	mov	r17,r19
 2004210:	003fcc06 	br	2004144 <__reset+0xfe003144>
 2004214:	d8800204 	addi	r2,sp,8
 2004218:	d8800015 	stw	r2,0(sp)
 200421c:	d9c00104 	addi	r7,sp,4
 2004220:	900b883a 	mov	r5,r18
 2004224:	980d883a 	mov	r6,r19
 2004228:	e009883a 	mov	r4,fp
 200422c:	8820d53a 	srli	r16,r17,20
 2004230:	20084d80 	call	20084d8 <__d2b>
 2004234:	d8800915 	stw	r2,36(sp)
 2004238:	8001651e 	bne	r16,zero,20047d0 <_dtoa_r+0x700>
 200423c:	dd800217 	ldw	r22,8(sp)
 2004240:	dc000117 	ldw	r16,4(sp)
 2004244:	00800804 	movi	r2,32
 2004248:	b421883a 	add	r16,r22,r16
 200424c:	80c10c84 	addi	r3,r16,1074
 2004250:	10c2d10e 	bge	r2,r3,2004d98 <_dtoa_r+0xcc8>
 2004254:	00801004 	movi	r2,64
 2004258:	81010484 	addi	r4,r16,1042
 200425c:	10c7c83a 	sub	r3,r2,r3
 2004260:	9108d83a 	srl	r4,r18,r4
 2004264:	88e2983a 	sll	r17,r17,r3
 2004268:	2448b03a 	or	r4,r4,r17
 200426c:	20013540 	call	2001354 <__floatunsidf>
 2004270:	017f8434 	movhi	r5,65040
 2004274:	01800044 	movi	r6,1
 2004278:	1009883a 	mov	r4,r2
 200427c:	194b883a 	add	r5,r3,r5
 2004280:	843fffc4 	addi	r16,r16,-1
 2004284:	d9801115 	stw	r6,68(sp)
 2004288:	000d883a 	mov	r6,zero
 200428c:	01cffe34 	movhi	r7,16376
 2004290:	20009d80 	call	20009d8 <__subdf3>
 2004294:	0198dbf4 	movhi	r6,25455
 2004298:	01cff4f4 	movhi	r7,16339
 200429c:	3190d844 	addi	r6,r6,17249
 20042a0:	39e1e9c4 	addi	r7,r7,-30809
 20042a4:	1009883a 	mov	r4,r2
 20042a8:	180b883a 	mov	r5,r3
 20042ac:	200016c0 	call	200016c <__muldf3>
 20042b0:	01a2d874 	movhi	r6,35681
 20042b4:	01cff1f4 	movhi	r7,16327
 20042b8:	31b22cc4 	addi	r6,r6,-14157
 20042bc:	39e28a04 	addi	r7,r7,-30168
 20042c0:	180b883a 	mov	r5,r3
 20042c4:	1009883a 	mov	r4,r2
 20042c8:	200bce40 	call	200bce4 <__adddf3>
 20042cc:	8009883a 	mov	r4,r16
 20042d0:	1029883a 	mov	r20,r2
 20042d4:	1823883a 	mov	r17,r3
 20042d8:	200d1b80 	call	200d1b8 <__floatsidf>
 20042dc:	019427f4 	movhi	r6,20639
 20042e0:	01cff4f4 	movhi	r7,16339
 20042e4:	319e7ec4 	addi	r6,r6,31227
 20042e8:	39d104c4 	addi	r7,r7,17427
 20042ec:	1009883a 	mov	r4,r2
 20042f0:	180b883a 	mov	r5,r3
 20042f4:	200016c0 	call	200016c <__muldf3>
 20042f8:	100d883a 	mov	r6,r2
 20042fc:	180f883a 	mov	r7,r3
 2004300:	a009883a 	mov	r4,r20
 2004304:	880b883a 	mov	r5,r17
 2004308:	200bce40 	call	200bce4 <__adddf3>
 200430c:	1009883a 	mov	r4,r2
 2004310:	180b883a 	mov	r5,r3
 2004314:	1029883a 	mov	r20,r2
 2004318:	1823883a 	mov	r17,r3
 200431c:	20012d40 	call	20012d4 <__fixdfsi>
 2004320:	000d883a 	mov	r6,zero
 2004324:	000f883a 	mov	r7,zero
 2004328:	a009883a 	mov	r4,r20
 200432c:	880b883a 	mov	r5,r17
 2004330:	d8800515 	stw	r2,20(sp)
 2004334:	200d0c40 	call	200d0c4 <__ledf2>
 2004338:	10028716 	blt	r2,zero,2004d58 <_dtoa_r+0xc88>
 200433c:	d8c00517 	ldw	r3,20(sp)
 2004340:	00800584 	movi	r2,22
 2004344:	10c27536 	bltu	r2,r3,2004d1c <_dtoa_r+0xc4c>
 2004348:	180490fa 	slli	r2,r3,3
 200434c:	00c08074 	movhi	r3,513
 2004350:	18c68b04 	addi	r3,r3,6700
 2004354:	1885883a 	add	r2,r3,r2
 2004358:	11000017 	ldw	r4,0(r2)
 200435c:	11400117 	ldw	r5,4(r2)
 2004360:	900d883a 	mov	r6,r18
 2004364:	980f883a 	mov	r7,r19
 2004368:	200cfe80 	call	200cfe8 <__gedf2>
 200436c:	00828d0e 	bge	zero,r2,2004da4 <_dtoa_r+0xcd4>
 2004370:	d9000517 	ldw	r4,20(sp)
 2004374:	d8000e15 	stw	zero,56(sp)
 2004378:	213fffc4 	addi	r4,r4,-1
 200437c:	d9000515 	stw	r4,20(sp)
 2004380:	b42dc83a 	sub	r22,r22,r16
 2004384:	b5bfffc4 	addi	r22,r22,-1
 2004388:	b0026f16 	blt	r22,zero,2004d48 <_dtoa_r+0xc78>
 200438c:	d8000815 	stw	zero,32(sp)
 2004390:	d9c00517 	ldw	r7,20(sp)
 2004394:	38026416 	blt	r7,zero,2004d28 <_dtoa_r+0xc58>
 2004398:	b1ed883a 	add	r22,r22,r7
 200439c:	d9c00d15 	stw	r7,52(sp)
 20043a0:	d8000a15 	stw	zero,40(sp)
 20043a4:	d9800317 	ldw	r6,12(sp)
 20043a8:	00800244 	movi	r2,9
 20043ac:	11811436 	bltu	r2,r6,2004800 <_dtoa_r+0x730>
 20043b0:	00800144 	movi	r2,5
 20043b4:	1184e10e 	bge	r2,r6,200573c <_dtoa_r+0x166c>
 20043b8:	31bfff04 	addi	r6,r6,-4
 20043bc:	d9800315 	stw	r6,12(sp)
 20043c0:	0023883a 	mov	r17,zero
 20043c4:	d9800317 	ldw	r6,12(sp)
 20043c8:	008000c4 	movi	r2,3
 20043cc:	30836726 	beq	r6,r2,200516c <_dtoa_r+0x109c>
 20043d0:	1183410e 	bge	r2,r6,20050d8 <_dtoa_r+0x1008>
 20043d4:	d9c00317 	ldw	r7,12(sp)
 20043d8:	00800104 	movi	r2,4
 20043dc:	38827c26 	beq	r7,r2,2004dd0 <_dtoa_r+0xd00>
 20043e0:	00800144 	movi	r2,5
 20043e4:	3884c41e 	bne	r7,r2,20056f8 <_dtoa_r+0x1628>
 20043e8:	00800044 	movi	r2,1
 20043ec:	d8800b15 	stw	r2,44(sp)
 20043f0:	d8c00517 	ldw	r3,20(sp)
 20043f4:	d9002217 	ldw	r4,136(sp)
 20043f8:	1907883a 	add	r3,r3,r4
 20043fc:	19800044 	addi	r6,r3,1
 2004400:	d8c00c15 	stw	r3,48(sp)
 2004404:	d9800615 	stw	r6,24(sp)
 2004408:	0183a40e 	bge	zero,r6,200529c <_dtoa_r+0x11cc>
 200440c:	d9800617 	ldw	r6,24(sp)
 2004410:	3021883a 	mov	r16,r6
 2004414:	e0001115 	stw	zero,68(fp)
 2004418:	008005c4 	movi	r2,23
 200441c:	1184c92e 	bgeu	r2,r6,2005744 <_dtoa_r+0x1674>
 2004420:	00c00044 	movi	r3,1
 2004424:	00800104 	movi	r2,4
 2004428:	1085883a 	add	r2,r2,r2
 200442c:	11000504 	addi	r4,r2,20
 2004430:	180b883a 	mov	r5,r3
 2004434:	18c00044 	addi	r3,r3,1
 2004438:	313ffb2e 	bgeu	r6,r4,2004428 <__reset+0xfe003428>
 200443c:	e1401115 	stw	r5,68(fp)
 2004440:	e009883a 	mov	r4,fp
 2004444:	20077880 	call	2007788 <_Balloc>
 2004448:	d8800715 	stw	r2,28(sp)
 200444c:	e0801015 	stw	r2,64(fp)
 2004450:	00800384 	movi	r2,14
 2004454:	1400f736 	bltu	r2,r16,2004834 <_dtoa_r+0x764>
 2004458:	8800f626 	beq	r17,zero,2004834 <_dtoa_r+0x764>
 200445c:	d9c00517 	ldw	r7,20(sp)
 2004460:	01c39a0e 	bge	zero,r7,20052cc <_dtoa_r+0x11fc>
 2004464:	388003cc 	andi	r2,r7,15
 2004468:	100490fa 	slli	r2,r2,3
 200446c:	382bd13a 	srai	r21,r7,4
 2004470:	00c08074 	movhi	r3,513
 2004474:	18c68b04 	addi	r3,r3,6700
 2004478:	1885883a 	add	r2,r3,r2
 200447c:	a8c0040c 	andi	r3,r21,16
 2004480:	12400017 	ldw	r9,0(r2)
 2004484:	12000117 	ldw	r8,4(r2)
 2004488:	18037926 	beq	r3,zero,2005270 <_dtoa_r+0x11a0>
 200448c:	00808074 	movhi	r2,513
 2004490:	10868104 	addi	r2,r2,6660
 2004494:	11800817 	ldw	r6,32(r2)
 2004498:	11c00917 	ldw	r7,36(r2)
 200449c:	9009883a 	mov	r4,r18
 20044a0:	980b883a 	mov	r5,r19
 20044a4:	da001715 	stw	r8,92(sp)
 20044a8:	da401615 	stw	r9,88(sp)
 20044ac:	200c5900 	call	200c590 <__divdf3>
 20044b0:	da001717 	ldw	r8,92(sp)
 20044b4:	da401617 	ldw	r9,88(sp)
 20044b8:	ad4003cc 	andi	r21,r21,15
 20044bc:	040000c4 	movi	r16,3
 20044c0:	1023883a 	mov	r17,r2
 20044c4:	1829883a 	mov	r20,r3
 20044c8:	a8001126 	beq	r21,zero,2004510 <_dtoa_r+0x440>
 20044cc:	05c08074 	movhi	r23,513
 20044d0:	bdc68104 	addi	r23,r23,6660
 20044d4:	4805883a 	mov	r2,r9
 20044d8:	4007883a 	mov	r3,r8
 20044dc:	a980004c 	andi	r6,r21,1
 20044e0:	1009883a 	mov	r4,r2
 20044e4:	a82bd07a 	srai	r21,r21,1
 20044e8:	180b883a 	mov	r5,r3
 20044ec:	30000426 	beq	r6,zero,2004500 <_dtoa_r+0x430>
 20044f0:	b9800017 	ldw	r6,0(r23)
 20044f4:	b9c00117 	ldw	r7,4(r23)
 20044f8:	84000044 	addi	r16,r16,1
 20044fc:	200016c0 	call	200016c <__muldf3>
 2004500:	bdc00204 	addi	r23,r23,8
 2004504:	a83ff51e 	bne	r21,zero,20044dc <__reset+0xfe0034dc>
 2004508:	1013883a 	mov	r9,r2
 200450c:	1811883a 	mov	r8,r3
 2004510:	480d883a 	mov	r6,r9
 2004514:	400f883a 	mov	r7,r8
 2004518:	8809883a 	mov	r4,r17
 200451c:	a00b883a 	mov	r5,r20
 2004520:	200c5900 	call	200c590 <__divdf3>
 2004524:	d8800f15 	stw	r2,60(sp)
 2004528:	d8c01015 	stw	r3,64(sp)
 200452c:	d8c00e17 	ldw	r3,56(sp)
 2004530:	18000626 	beq	r3,zero,200454c <_dtoa_r+0x47c>
 2004534:	d9000f17 	ldw	r4,60(sp)
 2004538:	d9401017 	ldw	r5,64(sp)
 200453c:	000d883a 	mov	r6,zero
 2004540:	01cffc34 	movhi	r7,16368
 2004544:	200d0c40 	call	200d0c4 <__ledf2>
 2004548:	10040b16 	blt	r2,zero,2005578 <_dtoa_r+0x14a8>
 200454c:	8009883a 	mov	r4,r16
 2004550:	200d1b80 	call	200d1b8 <__floatsidf>
 2004554:	d9800f17 	ldw	r6,60(sp)
 2004558:	d9c01017 	ldw	r7,64(sp)
 200455c:	1009883a 	mov	r4,r2
 2004560:	180b883a 	mov	r5,r3
 2004564:	200016c0 	call	200016c <__muldf3>
 2004568:	000d883a 	mov	r6,zero
 200456c:	01d00734 	movhi	r7,16412
 2004570:	1009883a 	mov	r4,r2
 2004574:	180b883a 	mov	r5,r3
 2004578:	200bce40 	call	200bce4 <__adddf3>
 200457c:	1021883a 	mov	r16,r2
 2004580:	d8800617 	ldw	r2,24(sp)
 2004584:	047f3034 	movhi	r17,64704
 2004588:	1c63883a 	add	r17,r3,r17
 200458c:	10031826 	beq	r2,zero,20051f0 <_dtoa_r+0x1120>
 2004590:	d8c00517 	ldw	r3,20(sp)
 2004594:	db000617 	ldw	r12,24(sp)
 2004598:	d8c01315 	stw	r3,76(sp)
 200459c:	d9000b17 	ldw	r4,44(sp)
 20045a0:	20038f26 	beq	r4,zero,20053e0 <_dtoa_r+0x1310>
 20045a4:	60bfffc4 	addi	r2,r12,-1
 20045a8:	100490fa 	slli	r2,r2,3
 20045ac:	00c08074 	movhi	r3,513
 20045b0:	18c68b04 	addi	r3,r3,6700
 20045b4:	1885883a 	add	r2,r3,r2
 20045b8:	11800017 	ldw	r6,0(r2)
 20045bc:	11c00117 	ldw	r7,4(r2)
 20045c0:	d8800717 	ldw	r2,28(sp)
 20045c4:	0009883a 	mov	r4,zero
 20045c8:	014ff834 	movhi	r5,16352
 20045cc:	db001615 	stw	r12,88(sp)
 20045d0:	15c00044 	addi	r23,r2,1
 20045d4:	200c5900 	call	200c590 <__divdf3>
 20045d8:	800d883a 	mov	r6,r16
 20045dc:	880f883a 	mov	r7,r17
 20045e0:	1009883a 	mov	r4,r2
 20045e4:	180b883a 	mov	r5,r3
 20045e8:	20009d80 	call	20009d8 <__subdf3>
 20045ec:	d9401017 	ldw	r5,64(sp)
 20045f0:	d9000f17 	ldw	r4,60(sp)
 20045f4:	102b883a 	mov	r21,r2
 20045f8:	d8c01215 	stw	r3,72(sp)
 20045fc:	20012d40 	call	20012d4 <__fixdfsi>
 2004600:	1009883a 	mov	r4,r2
 2004604:	1029883a 	mov	r20,r2
 2004608:	200d1b80 	call	200d1b8 <__floatsidf>
 200460c:	d9000f17 	ldw	r4,60(sp)
 2004610:	d9401017 	ldw	r5,64(sp)
 2004614:	100d883a 	mov	r6,r2
 2004618:	180f883a 	mov	r7,r3
 200461c:	20009d80 	call	20009d8 <__subdf3>
 2004620:	1823883a 	mov	r17,r3
 2004624:	d8c00717 	ldw	r3,28(sp)
 2004628:	d9401217 	ldw	r5,72(sp)
 200462c:	a2000c04 	addi	r8,r20,48
 2004630:	1021883a 	mov	r16,r2
 2004634:	1a000005 	stb	r8,0(r3)
 2004638:	800d883a 	mov	r6,r16
 200463c:	880f883a 	mov	r7,r17
 2004640:	a809883a 	mov	r4,r21
 2004644:	4029883a 	mov	r20,r8
 2004648:	200cfe80 	call	200cfe8 <__gedf2>
 200464c:	00841d16 	blt	zero,r2,20056c4 <_dtoa_r+0x15f4>
 2004650:	800d883a 	mov	r6,r16
 2004654:	880f883a 	mov	r7,r17
 2004658:	0009883a 	mov	r4,zero
 200465c:	014ffc34 	movhi	r5,16368
 2004660:	20009d80 	call	20009d8 <__subdf3>
 2004664:	d9401217 	ldw	r5,72(sp)
 2004668:	100d883a 	mov	r6,r2
 200466c:	180f883a 	mov	r7,r3
 2004670:	a809883a 	mov	r4,r21
 2004674:	200cfe80 	call	200cfe8 <__gedf2>
 2004678:	db001617 	ldw	r12,88(sp)
 200467c:	00840e16 	blt	zero,r2,20056b8 <_dtoa_r+0x15e8>
 2004680:	00800044 	movi	r2,1
 2004684:	13006b0e 	bge	r2,r12,2004834 <_dtoa_r+0x764>
 2004688:	d9000717 	ldw	r4,28(sp)
 200468c:	dd800f15 	stw	r22,60(sp)
 2004690:	dcc01015 	stw	r19,64(sp)
 2004694:	2319883a 	add	r12,r4,r12
 2004698:	dcc01217 	ldw	r19,72(sp)
 200469c:	602d883a 	mov	r22,r12
 20046a0:	dc801215 	stw	r18,72(sp)
 20046a4:	b825883a 	mov	r18,r23
 20046a8:	00000906 	br	20046d0 <_dtoa_r+0x600>
 20046ac:	20009d80 	call	20009d8 <__subdf3>
 20046b0:	a80d883a 	mov	r6,r21
 20046b4:	980f883a 	mov	r7,r19
 20046b8:	1009883a 	mov	r4,r2
 20046bc:	180b883a 	mov	r5,r3
 20046c0:	200d0c40 	call	200d0c4 <__ledf2>
 20046c4:	1003e816 	blt	r2,zero,2005668 <_dtoa_r+0x1598>
 20046c8:	b825883a 	mov	r18,r23
 20046cc:	bd83e926 	beq	r23,r22,2005674 <_dtoa_r+0x15a4>
 20046d0:	a809883a 	mov	r4,r21
 20046d4:	980b883a 	mov	r5,r19
 20046d8:	000d883a 	mov	r6,zero
 20046dc:	01d00934 	movhi	r7,16420
 20046e0:	200016c0 	call	200016c <__muldf3>
 20046e4:	000d883a 	mov	r6,zero
 20046e8:	01d00934 	movhi	r7,16420
 20046ec:	8009883a 	mov	r4,r16
 20046f0:	880b883a 	mov	r5,r17
 20046f4:	102b883a 	mov	r21,r2
 20046f8:	1827883a 	mov	r19,r3
 20046fc:	200016c0 	call	200016c <__muldf3>
 2004700:	180b883a 	mov	r5,r3
 2004704:	1009883a 	mov	r4,r2
 2004708:	1821883a 	mov	r16,r3
 200470c:	1023883a 	mov	r17,r2
 2004710:	20012d40 	call	20012d4 <__fixdfsi>
 2004714:	1009883a 	mov	r4,r2
 2004718:	1029883a 	mov	r20,r2
 200471c:	200d1b80 	call	200d1b8 <__floatsidf>
 2004720:	8809883a 	mov	r4,r17
 2004724:	800b883a 	mov	r5,r16
 2004728:	100d883a 	mov	r6,r2
 200472c:	180f883a 	mov	r7,r3
 2004730:	20009d80 	call	20009d8 <__subdf3>
 2004734:	a5000c04 	addi	r20,r20,48
 2004738:	a80d883a 	mov	r6,r21
 200473c:	980f883a 	mov	r7,r19
 2004740:	1009883a 	mov	r4,r2
 2004744:	180b883a 	mov	r5,r3
 2004748:	95000005 	stb	r20,0(r18)
 200474c:	1021883a 	mov	r16,r2
 2004750:	1823883a 	mov	r17,r3
 2004754:	200d0c40 	call	200d0c4 <__ledf2>
 2004758:	bdc00044 	addi	r23,r23,1
 200475c:	800d883a 	mov	r6,r16
 2004760:	880f883a 	mov	r7,r17
 2004764:	0009883a 	mov	r4,zero
 2004768:	014ffc34 	movhi	r5,16368
 200476c:	103fcf0e 	bge	r2,zero,20046ac <__reset+0xfe0036ac>
 2004770:	d8c01317 	ldw	r3,76(sp)
 2004774:	d8c00515 	stw	r3,20(sp)
 2004778:	d9400917 	ldw	r5,36(sp)
 200477c:	e009883a 	mov	r4,fp
 2004780:	20078300 	call	2007830 <_Bfree>
 2004784:	d9000517 	ldw	r4,20(sp)
 2004788:	d9802317 	ldw	r6,140(sp)
 200478c:	d9c02517 	ldw	r7,148(sp)
 2004790:	b8000005 	stb	zero,0(r23)
 2004794:	20800044 	addi	r2,r4,1
 2004798:	30800015 	stw	r2,0(r6)
 200479c:	3802aa26 	beq	r7,zero,2005248 <_dtoa_r+0x1178>
 20047a0:	3dc00015 	stw	r23,0(r7)
 20047a4:	d8800717 	ldw	r2,28(sp)
 20047a8:	003e7906 	br	2004190 <__reset+0xfe003190>
 20047ac:	00800434 	movhi	r2,16
 20047b0:	10bfffc4 	addi	r2,r2,-1
 20047b4:	88a2703a 	and	r17,r17,r2
 20047b8:	883e851e 	bne	r17,zero,20041d0 <__reset+0xfe0031d0>
 20047bc:	00808074 	movhi	r2,513
 20047c0:	10866d04 	addi	r2,r2,6580
 20047c4:	003e8406 	br	20041d8 <__reset+0xfe0031d8>
 20047c8:	10c00204 	addi	r3,r2,8
 20047cc:	003e8706 	br	20041ec <__reset+0xfe0031ec>
 20047d0:	01400434 	movhi	r5,16
 20047d4:	297fffc4 	addi	r5,r5,-1
 20047d8:	994a703a 	and	r5,r19,r5
 20047dc:	9009883a 	mov	r4,r18
 20047e0:	843f0044 	addi	r16,r16,-1023
 20047e4:	294ffc34 	orhi	r5,r5,16368
 20047e8:	dd800217 	ldw	r22,8(sp)
 20047ec:	d8001115 	stw	zero,68(sp)
 20047f0:	003ea506 	br	2004288 <__reset+0xfe003288>
 20047f4:	00808074 	movhi	r2,513
 20047f8:	10866404 	addi	r2,r2,6544
 20047fc:	003e6406 	br	2004190 <__reset+0xfe003190>
 2004800:	e0001115 	stw	zero,68(fp)
 2004804:	000b883a 	mov	r5,zero
 2004808:	e009883a 	mov	r4,fp
 200480c:	20077880 	call	2007788 <_Balloc>
 2004810:	01bfffc4 	movi	r6,-1
 2004814:	01c00044 	movi	r7,1
 2004818:	d8800715 	stw	r2,28(sp)
 200481c:	d9800c15 	stw	r6,48(sp)
 2004820:	e0801015 	stw	r2,64(fp)
 2004824:	d8000315 	stw	zero,12(sp)
 2004828:	d9c00b15 	stw	r7,44(sp)
 200482c:	d9800615 	stw	r6,24(sp)
 2004830:	d8002215 	stw	zero,136(sp)
 2004834:	d8800117 	ldw	r2,4(sp)
 2004838:	10008916 	blt	r2,zero,2004a60 <_dtoa_r+0x990>
 200483c:	d9000517 	ldw	r4,20(sp)
 2004840:	00c00384 	movi	r3,14
 2004844:	19008616 	blt	r3,r4,2004a60 <_dtoa_r+0x990>
 2004848:	200490fa 	slli	r2,r4,3
 200484c:	00c08074 	movhi	r3,513
 2004850:	d9802217 	ldw	r6,136(sp)
 2004854:	18c68b04 	addi	r3,r3,6700
 2004858:	1885883a 	add	r2,r3,r2
 200485c:	14000017 	ldw	r16,0(r2)
 2004860:	14400117 	ldw	r17,4(r2)
 2004864:	30016316 	blt	r6,zero,2004df4 <_dtoa_r+0xd24>
 2004868:	800d883a 	mov	r6,r16
 200486c:	880f883a 	mov	r7,r17
 2004870:	9009883a 	mov	r4,r18
 2004874:	980b883a 	mov	r5,r19
 2004878:	200c5900 	call	200c590 <__divdf3>
 200487c:	180b883a 	mov	r5,r3
 2004880:	1009883a 	mov	r4,r2
 2004884:	20012d40 	call	20012d4 <__fixdfsi>
 2004888:	1009883a 	mov	r4,r2
 200488c:	102b883a 	mov	r21,r2
 2004890:	200d1b80 	call	200d1b8 <__floatsidf>
 2004894:	800d883a 	mov	r6,r16
 2004898:	880f883a 	mov	r7,r17
 200489c:	1009883a 	mov	r4,r2
 20048a0:	180b883a 	mov	r5,r3
 20048a4:	200016c0 	call	200016c <__muldf3>
 20048a8:	100d883a 	mov	r6,r2
 20048ac:	180f883a 	mov	r7,r3
 20048b0:	9009883a 	mov	r4,r18
 20048b4:	980b883a 	mov	r5,r19
 20048b8:	20009d80 	call	20009d8 <__subdf3>
 20048bc:	d9c00717 	ldw	r7,28(sp)
 20048c0:	1009883a 	mov	r4,r2
 20048c4:	a8800c04 	addi	r2,r21,48
 20048c8:	38800005 	stb	r2,0(r7)
 20048cc:	3dc00044 	addi	r23,r7,1
 20048d0:	d9c00617 	ldw	r7,24(sp)
 20048d4:	01800044 	movi	r6,1
 20048d8:	180b883a 	mov	r5,r3
 20048dc:	2005883a 	mov	r2,r4
 20048e0:	39803826 	beq	r7,r6,20049c4 <_dtoa_r+0x8f4>
 20048e4:	000d883a 	mov	r6,zero
 20048e8:	01d00934 	movhi	r7,16420
 20048ec:	200016c0 	call	200016c <__muldf3>
 20048f0:	000d883a 	mov	r6,zero
 20048f4:	000f883a 	mov	r7,zero
 20048f8:	1009883a 	mov	r4,r2
 20048fc:	180b883a 	mov	r5,r3
 2004900:	1025883a 	mov	r18,r2
 2004904:	1827883a 	mov	r19,r3
 2004908:	200cf600 	call	200cf60 <__eqdf2>
 200490c:	103f9a26 	beq	r2,zero,2004778 <__reset+0xfe003778>
 2004910:	d9c00617 	ldw	r7,24(sp)
 2004914:	d8c00717 	ldw	r3,28(sp)
 2004918:	b829883a 	mov	r20,r23
 200491c:	38bfffc4 	addi	r2,r7,-1
 2004920:	18ad883a 	add	r22,r3,r2
 2004924:	00000a06 	br	2004950 <_dtoa_r+0x880>
 2004928:	200016c0 	call	200016c <__muldf3>
 200492c:	000d883a 	mov	r6,zero
 2004930:	000f883a 	mov	r7,zero
 2004934:	1009883a 	mov	r4,r2
 2004938:	180b883a 	mov	r5,r3
 200493c:	1025883a 	mov	r18,r2
 2004940:	1827883a 	mov	r19,r3
 2004944:	b829883a 	mov	r20,r23
 2004948:	200cf600 	call	200cf60 <__eqdf2>
 200494c:	103f8a26 	beq	r2,zero,2004778 <__reset+0xfe003778>
 2004950:	800d883a 	mov	r6,r16
 2004954:	880f883a 	mov	r7,r17
 2004958:	9009883a 	mov	r4,r18
 200495c:	980b883a 	mov	r5,r19
 2004960:	200c5900 	call	200c590 <__divdf3>
 2004964:	180b883a 	mov	r5,r3
 2004968:	1009883a 	mov	r4,r2
 200496c:	20012d40 	call	20012d4 <__fixdfsi>
 2004970:	1009883a 	mov	r4,r2
 2004974:	102b883a 	mov	r21,r2
 2004978:	200d1b80 	call	200d1b8 <__floatsidf>
 200497c:	800d883a 	mov	r6,r16
 2004980:	880f883a 	mov	r7,r17
 2004984:	1009883a 	mov	r4,r2
 2004988:	180b883a 	mov	r5,r3
 200498c:	200016c0 	call	200016c <__muldf3>
 2004990:	100d883a 	mov	r6,r2
 2004994:	180f883a 	mov	r7,r3
 2004998:	9009883a 	mov	r4,r18
 200499c:	980b883a 	mov	r5,r19
 20049a0:	20009d80 	call	20009d8 <__subdf3>
 20049a4:	aa000c04 	addi	r8,r21,48
 20049a8:	a2000005 	stb	r8,0(r20)
 20049ac:	000d883a 	mov	r6,zero
 20049b0:	01d00934 	movhi	r7,16420
 20049b4:	1009883a 	mov	r4,r2
 20049b8:	180b883a 	mov	r5,r3
 20049bc:	a5c00044 	addi	r23,r20,1
 20049c0:	b53fd91e 	bne	r22,r20,2004928 <__reset+0xfe003928>
 20049c4:	100d883a 	mov	r6,r2
 20049c8:	180f883a 	mov	r7,r3
 20049cc:	1009883a 	mov	r4,r2
 20049d0:	180b883a 	mov	r5,r3
 20049d4:	200bce40 	call	200bce4 <__adddf3>
 20049d8:	100d883a 	mov	r6,r2
 20049dc:	180f883a 	mov	r7,r3
 20049e0:	8009883a 	mov	r4,r16
 20049e4:	880b883a 	mov	r5,r17
 20049e8:	1027883a 	mov	r19,r2
 20049ec:	1825883a 	mov	r18,r3
 20049f0:	200d0c40 	call	200d0c4 <__ledf2>
 20049f4:	10000816 	blt	r2,zero,2004a18 <_dtoa_r+0x948>
 20049f8:	980d883a 	mov	r6,r19
 20049fc:	900f883a 	mov	r7,r18
 2004a00:	8009883a 	mov	r4,r16
 2004a04:	880b883a 	mov	r5,r17
 2004a08:	200cf600 	call	200cf60 <__eqdf2>
 2004a0c:	103f5a1e 	bne	r2,zero,2004778 <__reset+0xfe003778>
 2004a10:	ad40004c 	andi	r21,r21,1
 2004a14:	a83f5826 	beq	r21,zero,2004778 <__reset+0xfe003778>
 2004a18:	bd3fffc3 	ldbu	r20,-1(r23)
 2004a1c:	b8bfffc4 	addi	r2,r23,-1
 2004a20:	1007883a 	mov	r3,r2
 2004a24:	01400e44 	movi	r5,57
 2004a28:	d9800717 	ldw	r6,28(sp)
 2004a2c:	00000506 	br	2004a44 <_dtoa_r+0x974>
 2004a30:	18ffffc4 	addi	r3,r3,-1
 2004a34:	11824726 	beq	r2,r6,2005354 <_dtoa_r+0x1284>
 2004a38:	1d000003 	ldbu	r20,0(r3)
 2004a3c:	102f883a 	mov	r23,r2
 2004a40:	10bfffc4 	addi	r2,r2,-1
 2004a44:	a1003fcc 	andi	r4,r20,255
 2004a48:	2100201c 	xori	r4,r4,128
 2004a4c:	213fe004 	addi	r4,r4,-128
 2004a50:	217ff726 	beq	r4,r5,2004a30 <__reset+0xfe003a30>
 2004a54:	a2000044 	addi	r8,r20,1
 2004a58:	12000005 	stb	r8,0(r2)
 2004a5c:	003f4606 	br	2004778 <__reset+0xfe003778>
 2004a60:	d9000b17 	ldw	r4,44(sp)
 2004a64:	2000c826 	beq	r4,zero,2004d88 <_dtoa_r+0xcb8>
 2004a68:	d9800317 	ldw	r6,12(sp)
 2004a6c:	00c00044 	movi	r3,1
 2004a70:	1980f90e 	bge	r3,r6,2004e58 <_dtoa_r+0xd88>
 2004a74:	d8800617 	ldw	r2,24(sp)
 2004a78:	d8c00a17 	ldw	r3,40(sp)
 2004a7c:	157fffc4 	addi	r21,r2,-1
 2004a80:	1d41f316 	blt	r3,r21,2005250 <_dtoa_r+0x1180>
 2004a84:	1d6bc83a 	sub	r21,r3,r21
 2004a88:	d9c00617 	ldw	r7,24(sp)
 2004a8c:	3802aa16 	blt	r7,zero,2005538 <_dtoa_r+0x1468>
 2004a90:	dd000817 	ldw	r20,32(sp)
 2004a94:	d8800617 	ldw	r2,24(sp)
 2004a98:	d8c00817 	ldw	r3,32(sp)
 2004a9c:	01400044 	movi	r5,1
 2004aa0:	e009883a 	mov	r4,fp
 2004aa4:	1887883a 	add	r3,r3,r2
 2004aa8:	d8c00815 	stw	r3,32(sp)
 2004aac:	b0ad883a 	add	r22,r22,r2
 2004ab0:	2007bbc0 	call	2007bbc <__i2b>
 2004ab4:	1023883a 	mov	r17,r2
 2004ab8:	a0000826 	beq	r20,zero,2004adc <_dtoa_r+0xa0c>
 2004abc:	0580070e 	bge	zero,r22,2004adc <_dtoa_r+0xa0c>
 2004ac0:	a005883a 	mov	r2,r20
 2004ac4:	b500b916 	blt	r22,r20,2004dac <_dtoa_r+0xcdc>
 2004ac8:	d9000817 	ldw	r4,32(sp)
 2004acc:	a0a9c83a 	sub	r20,r20,r2
 2004ad0:	b0adc83a 	sub	r22,r22,r2
 2004ad4:	2089c83a 	sub	r4,r4,r2
 2004ad8:	d9000815 	stw	r4,32(sp)
 2004adc:	d9800a17 	ldw	r6,40(sp)
 2004ae0:	0181810e 	bge	zero,r6,20050e8 <_dtoa_r+0x1018>
 2004ae4:	d9c00b17 	ldw	r7,44(sp)
 2004ae8:	3800b326 	beq	r7,zero,2004db8 <_dtoa_r+0xce8>
 2004aec:	a800b226 	beq	r21,zero,2004db8 <_dtoa_r+0xce8>
 2004af0:	880b883a 	mov	r5,r17
 2004af4:	a80d883a 	mov	r6,r21
 2004af8:	e009883a 	mov	r4,fp
 2004afc:	2007e840 	call	2007e84 <__pow5mult>
 2004b00:	d9800917 	ldw	r6,36(sp)
 2004b04:	100b883a 	mov	r5,r2
 2004b08:	e009883a 	mov	r4,fp
 2004b0c:	1023883a 	mov	r17,r2
 2004b10:	2007bf80 	call	2007bf8 <__multiply>
 2004b14:	1021883a 	mov	r16,r2
 2004b18:	d8800a17 	ldw	r2,40(sp)
 2004b1c:	d9400917 	ldw	r5,36(sp)
 2004b20:	e009883a 	mov	r4,fp
 2004b24:	1545c83a 	sub	r2,r2,r21
 2004b28:	d8800a15 	stw	r2,40(sp)
 2004b2c:	20078300 	call	2007830 <_Bfree>
 2004b30:	d8c00a17 	ldw	r3,40(sp)
 2004b34:	18009f1e 	bne	r3,zero,2004db4 <_dtoa_r+0xce4>
 2004b38:	05c00044 	movi	r23,1
 2004b3c:	e009883a 	mov	r4,fp
 2004b40:	b80b883a 	mov	r5,r23
 2004b44:	2007bbc0 	call	2007bbc <__i2b>
 2004b48:	d9000d17 	ldw	r4,52(sp)
 2004b4c:	102b883a 	mov	r21,r2
 2004b50:	2000ce26 	beq	r4,zero,2004e8c <_dtoa_r+0xdbc>
 2004b54:	200d883a 	mov	r6,r4
 2004b58:	100b883a 	mov	r5,r2
 2004b5c:	e009883a 	mov	r4,fp
 2004b60:	2007e840 	call	2007e84 <__pow5mult>
 2004b64:	d9800317 	ldw	r6,12(sp)
 2004b68:	102b883a 	mov	r21,r2
 2004b6c:	b981810e 	bge	r23,r6,2005174 <_dtoa_r+0x10a4>
 2004b70:	0027883a 	mov	r19,zero
 2004b74:	a8800417 	ldw	r2,16(r21)
 2004b78:	05c00804 	movi	r23,32
 2004b7c:	10800104 	addi	r2,r2,4
 2004b80:	1085883a 	add	r2,r2,r2
 2004b84:	1085883a 	add	r2,r2,r2
 2004b88:	a885883a 	add	r2,r21,r2
 2004b8c:	11000017 	ldw	r4,0(r2)
 2004b90:	2007aa40 	call	2007aa4 <__hi0bits>
 2004b94:	b885c83a 	sub	r2,r23,r2
 2004b98:	1585883a 	add	r2,r2,r22
 2004b9c:	108007cc 	andi	r2,r2,31
 2004ba0:	1000b326 	beq	r2,zero,2004e70 <_dtoa_r+0xda0>
 2004ba4:	00c00804 	movi	r3,32
 2004ba8:	1887c83a 	sub	r3,r3,r2
 2004bac:	01000104 	movi	r4,4
 2004bb0:	20c2cd0e 	bge	r4,r3,20056e8 <_dtoa_r+0x1618>
 2004bb4:	00c00704 	movi	r3,28
 2004bb8:	1885c83a 	sub	r2,r3,r2
 2004bbc:	d8c00817 	ldw	r3,32(sp)
 2004bc0:	a0a9883a 	add	r20,r20,r2
 2004bc4:	b0ad883a 	add	r22,r22,r2
 2004bc8:	1887883a 	add	r3,r3,r2
 2004bcc:	d8c00815 	stw	r3,32(sp)
 2004bd0:	d9800817 	ldw	r6,32(sp)
 2004bd4:	0180040e 	bge	zero,r6,2004be8 <_dtoa_r+0xb18>
 2004bd8:	800b883a 	mov	r5,r16
 2004bdc:	e009883a 	mov	r4,fp
 2004be0:	2007fc40 	call	2007fc4 <__lshift>
 2004be4:	1021883a 	mov	r16,r2
 2004be8:	0580050e 	bge	zero,r22,2004c00 <_dtoa_r+0xb30>
 2004bec:	a80b883a 	mov	r5,r21
 2004bf0:	b00d883a 	mov	r6,r22
 2004bf4:	e009883a 	mov	r4,fp
 2004bf8:	2007fc40 	call	2007fc4 <__lshift>
 2004bfc:	102b883a 	mov	r21,r2
 2004c00:	d9c00e17 	ldw	r7,56(sp)
 2004c04:	3801211e 	bne	r7,zero,200508c <_dtoa_r+0xfbc>
 2004c08:	d9800617 	ldw	r6,24(sp)
 2004c0c:	0181380e 	bge	zero,r6,20050f0 <_dtoa_r+0x1020>
 2004c10:	d8c00b17 	ldw	r3,44(sp)
 2004c14:	1800ab1e 	bne	r3,zero,2004ec4 <_dtoa_r+0xdf4>
 2004c18:	dc800717 	ldw	r18,28(sp)
 2004c1c:	dcc00617 	ldw	r19,24(sp)
 2004c20:	9029883a 	mov	r20,r18
 2004c24:	00000206 	br	2004c30 <_dtoa_r+0xb60>
 2004c28:	20078580 	call	2007858 <__multadd>
 2004c2c:	1021883a 	mov	r16,r2
 2004c30:	a80b883a 	mov	r5,r21
 2004c34:	8009883a 	mov	r4,r16
 2004c38:	2003ea80 	call	2003ea8 <quorem>
 2004c3c:	10800c04 	addi	r2,r2,48
 2004c40:	90800005 	stb	r2,0(r18)
 2004c44:	94800044 	addi	r18,r18,1
 2004c48:	9507c83a 	sub	r3,r18,r20
 2004c4c:	000f883a 	mov	r7,zero
 2004c50:	01800284 	movi	r6,10
 2004c54:	800b883a 	mov	r5,r16
 2004c58:	e009883a 	mov	r4,fp
 2004c5c:	1cfff216 	blt	r3,r19,2004c28 <__reset+0xfe003c28>
 2004c60:	1011883a 	mov	r8,r2
 2004c64:	d8800617 	ldw	r2,24(sp)
 2004c68:	0082370e 	bge	zero,r2,2005548 <_dtoa_r+0x1478>
 2004c6c:	d9000717 	ldw	r4,28(sp)
 2004c70:	0025883a 	mov	r18,zero
 2004c74:	20af883a 	add	r23,r4,r2
 2004c78:	01800044 	movi	r6,1
 2004c7c:	800b883a 	mov	r5,r16
 2004c80:	e009883a 	mov	r4,fp
 2004c84:	da001715 	stw	r8,92(sp)
 2004c88:	2007fc40 	call	2007fc4 <__lshift>
 2004c8c:	a80b883a 	mov	r5,r21
 2004c90:	1009883a 	mov	r4,r2
 2004c94:	d8800915 	stw	r2,36(sp)
 2004c98:	200810c0 	call	200810c <__mcmp>
 2004c9c:	da001717 	ldw	r8,92(sp)
 2004ca0:	0081800e 	bge	zero,r2,20052a4 <_dtoa_r+0x11d4>
 2004ca4:	b93fffc3 	ldbu	r4,-1(r23)
 2004ca8:	b8bfffc4 	addi	r2,r23,-1
 2004cac:	1007883a 	mov	r3,r2
 2004cb0:	01800e44 	movi	r6,57
 2004cb4:	d9c00717 	ldw	r7,28(sp)
 2004cb8:	00000506 	br	2004cd0 <_dtoa_r+0xc00>
 2004cbc:	18ffffc4 	addi	r3,r3,-1
 2004cc0:	11c12326 	beq	r2,r7,2005150 <_dtoa_r+0x1080>
 2004cc4:	19000003 	ldbu	r4,0(r3)
 2004cc8:	102f883a 	mov	r23,r2
 2004ccc:	10bfffc4 	addi	r2,r2,-1
 2004cd0:	21403fcc 	andi	r5,r4,255
 2004cd4:	2940201c 	xori	r5,r5,128
 2004cd8:	297fe004 	addi	r5,r5,-128
 2004cdc:	29bff726 	beq	r5,r6,2004cbc <__reset+0xfe003cbc>
 2004ce0:	21000044 	addi	r4,r4,1
 2004ce4:	11000005 	stb	r4,0(r2)
 2004ce8:	a80b883a 	mov	r5,r21
 2004cec:	e009883a 	mov	r4,fp
 2004cf0:	20078300 	call	2007830 <_Bfree>
 2004cf4:	883ea026 	beq	r17,zero,2004778 <__reset+0xfe003778>
 2004cf8:	90000426 	beq	r18,zero,2004d0c <_dtoa_r+0xc3c>
 2004cfc:	94400326 	beq	r18,r17,2004d0c <_dtoa_r+0xc3c>
 2004d00:	900b883a 	mov	r5,r18
 2004d04:	e009883a 	mov	r4,fp
 2004d08:	20078300 	call	2007830 <_Bfree>
 2004d0c:	880b883a 	mov	r5,r17
 2004d10:	e009883a 	mov	r4,fp
 2004d14:	20078300 	call	2007830 <_Bfree>
 2004d18:	003e9706 	br	2004778 <__reset+0xfe003778>
 2004d1c:	01800044 	movi	r6,1
 2004d20:	d9800e15 	stw	r6,56(sp)
 2004d24:	003d9606 	br	2004380 <__reset+0xfe003380>
 2004d28:	d8800817 	ldw	r2,32(sp)
 2004d2c:	d8c00517 	ldw	r3,20(sp)
 2004d30:	d8000d15 	stw	zero,52(sp)
 2004d34:	10c5c83a 	sub	r2,r2,r3
 2004d38:	00c9c83a 	sub	r4,zero,r3
 2004d3c:	d8800815 	stw	r2,32(sp)
 2004d40:	d9000a15 	stw	r4,40(sp)
 2004d44:	003d9706 	br	20043a4 <__reset+0xfe0033a4>
 2004d48:	05adc83a 	sub	r22,zero,r22
 2004d4c:	dd800815 	stw	r22,32(sp)
 2004d50:	002d883a 	mov	r22,zero
 2004d54:	003d8e06 	br	2004390 <__reset+0xfe003390>
 2004d58:	d9000517 	ldw	r4,20(sp)
 2004d5c:	200d1b80 	call	200d1b8 <__floatsidf>
 2004d60:	100d883a 	mov	r6,r2
 2004d64:	180f883a 	mov	r7,r3
 2004d68:	a009883a 	mov	r4,r20
 2004d6c:	880b883a 	mov	r5,r17
 2004d70:	200cf600 	call	200cf60 <__eqdf2>
 2004d74:	103d7126 	beq	r2,zero,200433c <__reset+0xfe00333c>
 2004d78:	d9c00517 	ldw	r7,20(sp)
 2004d7c:	39ffffc4 	addi	r7,r7,-1
 2004d80:	d9c00515 	stw	r7,20(sp)
 2004d84:	003d6d06 	br	200433c <__reset+0xfe00333c>
 2004d88:	dd400a17 	ldw	r21,40(sp)
 2004d8c:	dd000817 	ldw	r20,32(sp)
 2004d90:	0023883a 	mov	r17,zero
 2004d94:	003f4806 	br	2004ab8 <__reset+0xfe003ab8>
 2004d98:	10e3c83a 	sub	r17,r2,r3
 2004d9c:	9448983a 	sll	r4,r18,r17
 2004da0:	003d3206 	br	200426c <__reset+0xfe00326c>
 2004da4:	d8000e15 	stw	zero,56(sp)
 2004da8:	003d7506 	br	2004380 <__reset+0xfe003380>
 2004dac:	b005883a 	mov	r2,r22
 2004db0:	003f4506 	br	2004ac8 <__reset+0xfe003ac8>
 2004db4:	dc000915 	stw	r16,36(sp)
 2004db8:	d9800a17 	ldw	r6,40(sp)
 2004dbc:	d9400917 	ldw	r5,36(sp)
 2004dc0:	e009883a 	mov	r4,fp
 2004dc4:	2007e840 	call	2007e84 <__pow5mult>
 2004dc8:	1021883a 	mov	r16,r2
 2004dcc:	003f5a06 	br	2004b38 <__reset+0xfe003b38>
 2004dd0:	01c00044 	movi	r7,1
 2004dd4:	d9c00b15 	stw	r7,44(sp)
 2004dd8:	d8802217 	ldw	r2,136(sp)
 2004ddc:	0081280e 	bge	zero,r2,2005280 <_dtoa_r+0x11b0>
 2004de0:	100d883a 	mov	r6,r2
 2004de4:	1021883a 	mov	r16,r2
 2004de8:	d8800c15 	stw	r2,48(sp)
 2004dec:	d8800615 	stw	r2,24(sp)
 2004df0:	003d8806 	br	2004414 <__reset+0xfe003414>
 2004df4:	d8800617 	ldw	r2,24(sp)
 2004df8:	00be9b16 	blt	zero,r2,2004868 <__reset+0xfe003868>
 2004dfc:	10010f1e 	bne	r2,zero,200523c <_dtoa_r+0x116c>
 2004e00:	880b883a 	mov	r5,r17
 2004e04:	000d883a 	mov	r6,zero
 2004e08:	01d00534 	movhi	r7,16404
 2004e0c:	8009883a 	mov	r4,r16
 2004e10:	200016c0 	call	200016c <__muldf3>
 2004e14:	900d883a 	mov	r6,r18
 2004e18:	980f883a 	mov	r7,r19
 2004e1c:	1009883a 	mov	r4,r2
 2004e20:	180b883a 	mov	r5,r3
 2004e24:	200cfe80 	call	200cfe8 <__gedf2>
 2004e28:	002b883a 	mov	r21,zero
 2004e2c:	0023883a 	mov	r17,zero
 2004e30:	1000bf16 	blt	r2,zero,2005130 <_dtoa_r+0x1060>
 2004e34:	d9802217 	ldw	r6,136(sp)
 2004e38:	ddc00717 	ldw	r23,28(sp)
 2004e3c:	018c303a 	nor	r6,zero,r6
 2004e40:	d9800515 	stw	r6,20(sp)
 2004e44:	a80b883a 	mov	r5,r21
 2004e48:	e009883a 	mov	r4,fp
 2004e4c:	20078300 	call	2007830 <_Bfree>
 2004e50:	883e4926 	beq	r17,zero,2004778 <__reset+0xfe003778>
 2004e54:	003fad06 	br	2004d0c <__reset+0xfe003d0c>
 2004e58:	d9c01117 	ldw	r7,68(sp)
 2004e5c:	3801bc26 	beq	r7,zero,2005550 <_dtoa_r+0x1480>
 2004e60:	10810cc4 	addi	r2,r2,1075
 2004e64:	dd400a17 	ldw	r21,40(sp)
 2004e68:	dd000817 	ldw	r20,32(sp)
 2004e6c:	003f0a06 	br	2004a98 <__reset+0xfe003a98>
 2004e70:	00800704 	movi	r2,28
 2004e74:	d9000817 	ldw	r4,32(sp)
 2004e78:	a0a9883a 	add	r20,r20,r2
 2004e7c:	b0ad883a 	add	r22,r22,r2
 2004e80:	2089883a 	add	r4,r4,r2
 2004e84:	d9000815 	stw	r4,32(sp)
 2004e88:	003f5106 	br	2004bd0 <__reset+0xfe003bd0>
 2004e8c:	d8c00317 	ldw	r3,12(sp)
 2004e90:	b8c1fc0e 	bge	r23,r3,2005684 <_dtoa_r+0x15b4>
 2004e94:	0027883a 	mov	r19,zero
 2004e98:	b805883a 	mov	r2,r23
 2004e9c:	003f3e06 	br	2004b98 <__reset+0xfe003b98>
 2004ea0:	880b883a 	mov	r5,r17
 2004ea4:	e009883a 	mov	r4,fp
 2004ea8:	000f883a 	mov	r7,zero
 2004eac:	01800284 	movi	r6,10
 2004eb0:	20078580 	call	2007858 <__multadd>
 2004eb4:	d9000c17 	ldw	r4,48(sp)
 2004eb8:	1023883a 	mov	r17,r2
 2004ebc:	0102040e 	bge	zero,r4,20056d0 <_dtoa_r+0x1600>
 2004ec0:	d9000615 	stw	r4,24(sp)
 2004ec4:	0500050e 	bge	zero,r20,2004edc <_dtoa_r+0xe0c>
 2004ec8:	880b883a 	mov	r5,r17
 2004ecc:	a00d883a 	mov	r6,r20
 2004ed0:	e009883a 	mov	r4,fp
 2004ed4:	2007fc40 	call	2007fc4 <__lshift>
 2004ed8:	1023883a 	mov	r17,r2
 2004edc:	9801241e 	bne	r19,zero,2005370 <_dtoa_r+0x12a0>
 2004ee0:	8829883a 	mov	r20,r17
 2004ee4:	d9000617 	ldw	r4,24(sp)
 2004ee8:	dcc00717 	ldw	r19,28(sp)
 2004eec:	9480004c 	andi	r18,r18,1
 2004ef0:	20bfffc4 	addi	r2,r4,-1
 2004ef4:	9885883a 	add	r2,r19,r2
 2004ef8:	d8800415 	stw	r2,16(sp)
 2004efc:	dc800615 	stw	r18,24(sp)
 2004f00:	a80b883a 	mov	r5,r21
 2004f04:	8009883a 	mov	r4,r16
 2004f08:	2003ea80 	call	2003ea8 <quorem>
 2004f0c:	880b883a 	mov	r5,r17
 2004f10:	8009883a 	mov	r4,r16
 2004f14:	102f883a 	mov	r23,r2
 2004f18:	200810c0 	call	200810c <__mcmp>
 2004f1c:	a80b883a 	mov	r5,r21
 2004f20:	a00d883a 	mov	r6,r20
 2004f24:	e009883a 	mov	r4,fp
 2004f28:	102d883a 	mov	r22,r2
 2004f2c:	200816c0 	call	200816c <__mdiff>
 2004f30:	1007883a 	mov	r3,r2
 2004f34:	10800317 	ldw	r2,12(r2)
 2004f38:	bc800c04 	addi	r18,r23,48
 2004f3c:	180b883a 	mov	r5,r3
 2004f40:	10004e1e 	bne	r2,zero,200507c <_dtoa_r+0xfac>
 2004f44:	8009883a 	mov	r4,r16
 2004f48:	d8c01615 	stw	r3,88(sp)
 2004f4c:	200810c0 	call	200810c <__mcmp>
 2004f50:	d8c01617 	ldw	r3,88(sp)
 2004f54:	e009883a 	mov	r4,fp
 2004f58:	d8801615 	stw	r2,88(sp)
 2004f5c:	180b883a 	mov	r5,r3
 2004f60:	20078300 	call	2007830 <_Bfree>
 2004f64:	d8801617 	ldw	r2,88(sp)
 2004f68:	1000041e 	bne	r2,zero,2004f7c <_dtoa_r+0xeac>
 2004f6c:	d9800317 	ldw	r6,12(sp)
 2004f70:	3000021e 	bne	r6,zero,2004f7c <_dtoa_r+0xeac>
 2004f74:	d8c00617 	ldw	r3,24(sp)
 2004f78:	18003726 	beq	r3,zero,2005058 <_dtoa_r+0xf88>
 2004f7c:	b0002016 	blt	r22,zero,2005000 <_dtoa_r+0xf30>
 2004f80:	b000041e 	bne	r22,zero,2004f94 <_dtoa_r+0xec4>
 2004f84:	d9000317 	ldw	r4,12(sp)
 2004f88:	2000021e 	bne	r4,zero,2004f94 <_dtoa_r+0xec4>
 2004f8c:	d8c00617 	ldw	r3,24(sp)
 2004f90:	18001b26 	beq	r3,zero,2005000 <_dtoa_r+0xf30>
 2004f94:	00810716 	blt	zero,r2,20053b4 <_dtoa_r+0x12e4>
 2004f98:	d8c00417 	ldw	r3,16(sp)
 2004f9c:	9d800044 	addi	r22,r19,1
 2004fa0:	9c800005 	stb	r18,0(r19)
 2004fa4:	b02f883a 	mov	r23,r22
 2004fa8:	98c10626 	beq	r19,r3,20053c4 <_dtoa_r+0x12f4>
 2004fac:	800b883a 	mov	r5,r16
 2004fb0:	000f883a 	mov	r7,zero
 2004fb4:	01800284 	movi	r6,10
 2004fb8:	e009883a 	mov	r4,fp
 2004fbc:	20078580 	call	2007858 <__multadd>
 2004fc0:	1021883a 	mov	r16,r2
 2004fc4:	000f883a 	mov	r7,zero
 2004fc8:	01800284 	movi	r6,10
 2004fcc:	880b883a 	mov	r5,r17
 2004fd0:	e009883a 	mov	r4,fp
 2004fd4:	8d002526 	beq	r17,r20,200506c <_dtoa_r+0xf9c>
 2004fd8:	20078580 	call	2007858 <__multadd>
 2004fdc:	a00b883a 	mov	r5,r20
 2004fe0:	000f883a 	mov	r7,zero
 2004fe4:	01800284 	movi	r6,10
 2004fe8:	e009883a 	mov	r4,fp
 2004fec:	1023883a 	mov	r17,r2
 2004ff0:	20078580 	call	2007858 <__multadd>
 2004ff4:	1029883a 	mov	r20,r2
 2004ff8:	b027883a 	mov	r19,r22
 2004ffc:	003fc006 	br	2004f00 <__reset+0xfe003f00>
 2005000:	9011883a 	mov	r8,r18
 2005004:	00800e0e 	bge	zero,r2,2005040 <_dtoa_r+0xf70>
 2005008:	800b883a 	mov	r5,r16
 200500c:	01800044 	movi	r6,1
 2005010:	e009883a 	mov	r4,fp
 2005014:	da001715 	stw	r8,92(sp)
 2005018:	2007fc40 	call	2007fc4 <__lshift>
 200501c:	a80b883a 	mov	r5,r21
 2005020:	1009883a 	mov	r4,r2
 2005024:	1021883a 	mov	r16,r2
 2005028:	200810c0 	call	200810c <__mcmp>
 200502c:	da001717 	ldw	r8,92(sp)
 2005030:	0081960e 	bge	zero,r2,200568c <_dtoa_r+0x15bc>
 2005034:	00800e44 	movi	r2,57
 2005038:	40817026 	beq	r8,r2,20055fc <_dtoa_r+0x152c>
 200503c:	ba000c44 	addi	r8,r23,49
 2005040:	8825883a 	mov	r18,r17
 2005044:	9dc00044 	addi	r23,r19,1
 2005048:	9a000005 	stb	r8,0(r19)
 200504c:	a023883a 	mov	r17,r20
 2005050:	dc000915 	stw	r16,36(sp)
 2005054:	003f2406 	br	2004ce8 <__reset+0xfe003ce8>
 2005058:	00800e44 	movi	r2,57
 200505c:	9011883a 	mov	r8,r18
 2005060:	90816626 	beq	r18,r2,20055fc <_dtoa_r+0x152c>
 2005064:	05bff516 	blt	zero,r22,200503c <__reset+0xfe00403c>
 2005068:	003ff506 	br	2005040 <__reset+0xfe004040>
 200506c:	20078580 	call	2007858 <__multadd>
 2005070:	1023883a 	mov	r17,r2
 2005074:	1029883a 	mov	r20,r2
 2005078:	003fdf06 	br	2004ff8 <__reset+0xfe003ff8>
 200507c:	e009883a 	mov	r4,fp
 2005080:	20078300 	call	2007830 <_Bfree>
 2005084:	00800044 	movi	r2,1
 2005088:	003fbc06 	br	2004f7c <__reset+0xfe003f7c>
 200508c:	a80b883a 	mov	r5,r21
 2005090:	8009883a 	mov	r4,r16
 2005094:	200810c0 	call	200810c <__mcmp>
 2005098:	103edb0e 	bge	r2,zero,2004c08 <__reset+0xfe003c08>
 200509c:	800b883a 	mov	r5,r16
 20050a0:	000f883a 	mov	r7,zero
 20050a4:	01800284 	movi	r6,10
 20050a8:	e009883a 	mov	r4,fp
 20050ac:	20078580 	call	2007858 <__multadd>
 20050b0:	1021883a 	mov	r16,r2
 20050b4:	d8800517 	ldw	r2,20(sp)
 20050b8:	d8c00b17 	ldw	r3,44(sp)
 20050bc:	10bfffc4 	addi	r2,r2,-1
 20050c0:	d8800515 	stw	r2,20(sp)
 20050c4:	183f761e 	bne	r3,zero,2004ea0 <__reset+0xfe003ea0>
 20050c8:	d9000c17 	ldw	r4,48(sp)
 20050cc:	0101730e 	bge	zero,r4,200569c <_dtoa_r+0x15cc>
 20050d0:	d9000615 	stw	r4,24(sp)
 20050d4:	003ed006 	br	2004c18 <__reset+0xfe003c18>
 20050d8:	00800084 	movi	r2,2
 20050dc:	3081861e 	bne	r6,r2,20056f8 <_dtoa_r+0x1628>
 20050e0:	d8000b15 	stw	zero,44(sp)
 20050e4:	003f3c06 	br	2004dd8 <__reset+0xfe003dd8>
 20050e8:	dc000917 	ldw	r16,36(sp)
 20050ec:	003e9206 	br	2004b38 <__reset+0xfe003b38>
 20050f0:	d9c00317 	ldw	r7,12(sp)
 20050f4:	00800084 	movi	r2,2
 20050f8:	11fec50e 	bge	r2,r7,2004c10 <__reset+0xfe003c10>
 20050fc:	d9000617 	ldw	r4,24(sp)
 2005100:	20013c1e 	bne	r4,zero,20055f4 <_dtoa_r+0x1524>
 2005104:	a80b883a 	mov	r5,r21
 2005108:	000f883a 	mov	r7,zero
 200510c:	01800144 	movi	r6,5
 2005110:	e009883a 	mov	r4,fp
 2005114:	20078580 	call	2007858 <__multadd>
 2005118:	100b883a 	mov	r5,r2
 200511c:	8009883a 	mov	r4,r16
 2005120:	102b883a 	mov	r21,r2
 2005124:	200810c0 	call	200810c <__mcmp>
 2005128:	dc000915 	stw	r16,36(sp)
 200512c:	00bf410e 	bge	zero,r2,2004e34 <__reset+0xfe003e34>
 2005130:	d9c00717 	ldw	r7,28(sp)
 2005134:	00800c44 	movi	r2,49
 2005138:	38800005 	stb	r2,0(r7)
 200513c:	d8800517 	ldw	r2,20(sp)
 2005140:	3dc00044 	addi	r23,r7,1
 2005144:	10800044 	addi	r2,r2,1
 2005148:	d8800515 	stw	r2,20(sp)
 200514c:	003f3d06 	br	2004e44 <__reset+0xfe003e44>
 2005150:	d9800517 	ldw	r6,20(sp)
 2005154:	d9c00717 	ldw	r7,28(sp)
 2005158:	00800c44 	movi	r2,49
 200515c:	31800044 	addi	r6,r6,1
 2005160:	d9800515 	stw	r6,20(sp)
 2005164:	38800005 	stb	r2,0(r7)
 2005168:	003edf06 	br	2004ce8 <__reset+0xfe003ce8>
 200516c:	d8000b15 	stw	zero,44(sp)
 2005170:	003c9f06 	br	20043f0 <__reset+0xfe0033f0>
 2005174:	903e7e1e 	bne	r18,zero,2004b70 <__reset+0xfe003b70>
 2005178:	00800434 	movhi	r2,16
 200517c:	10bfffc4 	addi	r2,r2,-1
 2005180:	9884703a 	and	r2,r19,r2
 2005184:	1000ea1e 	bne	r2,zero,2005530 <_dtoa_r+0x1460>
 2005188:	9cdffc2c 	andhi	r19,r19,32752
 200518c:	9800e826 	beq	r19,zero,2005530 <_dtoa_r+0x1460>
 2005190:	d9c00817 	ldw	r7,32(sp)
 2005194:	b5800044 	addi	r22,r22,1
 2005198:	04c00044 	movi	r19,1
 200519c:	39c00044 	addi	r7,r7,1
 20051a0:	d9c00815 	stw	r7,32(sp)
 20051a4:	d8800d17 	ldw	r2,52(sp)
 20051a8:	103e721e 	bne	r2,zero,2004b74 <__reset+0xfe003b74>
 20051ac:	00800044 	movi	r2,1
 20051b0:	003e7906 	br	2004b98 <__reset+0xfe003b98>
 20051b4:	8009883a 	mov	r4,r16
 20051b8:	200d1b80 	call	200d1b8 <__floatsidf>
 20051bc:	d9800f17 	ldw	r6,60(sp)
 20051c0:	d9c01017 	ldw	r7,64(sp)
 20051c4:	1009883a 	mov	r4,r2
 20051c8:	180b883a 	mov	r5,r3
 20051cc:	200016c0 	call	200016c <__muldf3>
 20051d0:	000d883a 	mov	r6,zero
 20051d4:	01d00734 	movhi	r7,16412
 20051d8:	1009883a 	mov	r4,r2
 20051dc:	180b883a 	mov	r5,r3
 20051e0:	200bce40 	call	200bce4 <__adddf3>
 20051e4:	047f3034 	movhi	r17,64704
 20051e8:	1021883a 	mov	r16,r2
 20051ec:	1c63883a 	add	r17,r3,r17
 20051f0:	d9000f17 	ldw	r4,60(sp)
 20051f4:	d9401017 	ldw	r5,64(sp)
 20051f8:	000d883a 	mov	r6,zero
 20051fc:	01d00534 	movhi	r7,16404
 2005200:	20009d80 	call	20009d8 <__subdf3>
 2005204:	800d883a 	mov	r6,r16
 2005208:	880f883a 	mov	r7,r17
 200520c:	1009883a 	mov	r4,r2
 2005210:	180b883a 	mov	r5,r3
 2005214:	102b883a 	mov	r21,r2
 2005218:	1829883a 	mov	r20,r3
 200521c:	200cfe80 	call	200cfe8 <__gedf2>
 2005220:	00806c16 	blt	zero,r2,20053d4 <_dtoa_r+0x1304>
 2005224:	89e0003c 	xorhi	r7,r17,32768
 2005228:	800d883a 	mov	r6,r16
 200522c:	a809883a 	mov	r4,r21
 2005230:	a00b883a 	mov	r5,r20
 2005234:	200d0c40 	call	200d0c4 <__ledf2>
 2005238:	103d7e0e 	bge	r2,zero,2004834 <__reset+0xfe003834>
 200523c:	002b883a 	mov	r21,zero
 2005240:	0023883a 	mov	r17,zero
 2005244:	003efb06 	br	2004e34 <__reset+0xfe003e34>
 2005248:	d8800717 	ldw	r2,28(sp)
 200524c:	003bd006 	br	2004190 <__reset+0xfe003190>
 2005250:	d9000a17 	ldw	r4,40(sp)
 2005254:	d9800d17 	ldw	r6,52(sp)
 2005258:	dd400a15 	stw	r21,40(sp)
 200525c:	a905c83a 	sub	r2,r21,r4
 2005260:	308d883a 	add	r6,r6,r2
 2005264:	d9800d15 	stw	r6,52(sp)
 2005268:	002b883a 	mov	r21,zero
 200526c:	003e0606 	br	2004a88 <__reset+0xfe003a88>
 2005270:	9023883a 	mov	r17,r18
 2005274:	9829883a 	mov	r20,r19
 2005278:	04000084 	movi	r16,2
 200527c:	003c9206 	br	20044c8 <__reset+0xfe0034c8>
 2005280:	04000044 	movi	r16,1
 2005284:	dc000c15 	stw	r16,48(sp)
 2005288:	dc000615 	stw	r16,24(sp)
 200528c:	dc002215 	stw	r16,136(sp)
 2005290:	e0001115 	stw	zero,68(fp)
 2005294:	000b883a 	mov	r5,zero
 2005298:	003c6906 	br	2004440 <__reset+0xfe003440>
 200529c:	3021883a 	mov	r16,r6
 20052a0:	003ffb06 	br	2005290 <__reset+0xfe004290>
 20052a4:	1000021e 	bne	r2,zero,20052b0 <_dtoa_r+0x11e0>
 20052a8:	4200004c 	andi	r8,r8,1
 20052ac:	403e7d1e 	bne	r8,zero,2004ca4 <__reset+0xfe003ca4>
 20052b0:	01000c04 	movi	r4,48
 20052b4:	00000106 	br	20052bc <_dtoa_r+0x11ec>
 20052b8:	102f883a 	mov	r23,r2
 20052bc:	b8bfffc4 	addi	r2,r23,-1
 20052c0:	10c00007 	ldb	r3,0(r2)
 20052c4:	193ffc26 	beq	r3,r4,20052b8 <__reset+0xfe0042b8>
 20052c8:	003e8706 	br	2004ce8 <__reset+0xfe003ce8>
 20052cc:	d8800517 	ldw	r2,20(sp)
 20052d0:	00a3c83a 	sub	r17,zero,r2
 20052d4:	8800a426 	beq	r17,zero,2005568 <_dtoa_r+0x1498>
 20052d8:	888003cc 	andi	r2,r17,15
 20052dc:	100490fa 	slli	r2,r2,3
 20052e0:	00c08074 	movhi	r3,513
 20052e4:	18c68b04 	addi	r3,r3,6700
 20052e8:	1885883a 	add	r2,r3,r2
 20052ec:	11800017 	ldw	r6,0(r2)
 20052f0:	11c00117 	ldw	r7,4(r2)
 20052f4:	9009883a 	mov	r4,r18
 20052f8:	980b883a 	mov	r5,r19
 20052fc:	8823d13a 	srai	r17,r17,4
 2005300:	200016c0 	call	200016c <__muldf3>
 2005304:	d8800f15 	stw	r2,60(sp)
 2005308:	d8c01015 	stw	r3,64(sp)
 200530c:	8800e826 	beq	r17,zero,20056b0 <_dtoa_r+0x15e0>
 2005310:	05008074 	movhi	r20,513
 2005314:	a5068104 	addi	r20,r20,6660
 2005318:	04000084 	movi	r16,2
 200531c:	8980004c 	andi	r6,r17,1
 2005320:	1009883a 	mov	r4,r2
 2005324:	8823d07a 	srai	r17,r17,1
 2005328:	180b883a 	mov	r5,r3
 200532c:	30000426 	beq	r6,zero,2005340 <_dtoa_r+0x1270>
 2005330:	a1800017 	ldw	r6,0(r20)
 2005334:	a1c00117 	ldw	r7,4(r20)
 2005338:	84000044 	addi	r16,r16,1
 200533c:	200016c0 	call	200016c <__muldf3>
 2005340:	a5000204 	addi	r20,r20,8
 2005344:	883ff51e 	bne	r17,zero,200531c <__reset+0xfe00431c>
 2005348:	d8800f15 	stw	r2,60(sp)
 200534c:	d8c01015 	stw	r3,64(sp)
 2005350:	003c7606 	br	200452c <__reset+0xfe00352c>
 2005354:	00c00c04 	movi	r3,48
 2005358:	10c00005 	stb	r3,0(r2)
 200535c:	d8c00517 	ldw	r3,20(sp)
 2005360:	bd3fffc3 	ldbu	r20,-1(r23)
 2005364:	18c00044 	addi	r3,r3,1
 2005368:	d8c00515 	stw	r3,20(sp)
 200536c:	003db906 	br	2004a54 <__reset+0xfe003a54>
 2005370:	89400117 	ldw	r5,4(r17)
 2005374:	e009883a 	mov	r4,fp
 2005378:	20077880 	call	2007788 <_Balloc>
 200537c:	89800417 	ldw	r6,16(r17)
 2005380:	89400304 	addi	r5,r17,12
 2005384:	11000304 	addi	r4,r2,12
 2005388:	31800084 	addi	r6,r6,2
 200538c:	318d883a 	add	r6,r6,r6
 2005390:	318d883a 	add	r6,r6,r6
 2005394:	1027883a 	mov	r19,r2
 2005398:	20073bc0 	call	20073bc <memcpy>
 200539c:	01800044 	movi	r6,1
 20053a0:	980b883a 	mov	r5,r19
 20053a4:	e009883a 	mov	r4,fp
 20053a8:	2007fc40 	call	2007fc4 <__lshift>
 20053ac:	1029883a 	mov	r20,r2
 20053b0:	003ecc06 	br	2004ee4 <__reset+0xfe003ee4>
 20053b4:	00800e44 	movi	r2,57
 20053b8:	90809026 	beq	r18,r2,20055fc <_dtoa_r+0x152c>
 20053bc:	92000044 	addi	r8,r18,1
 20053c0:	003f1f06 	br	2005040 <__reset+0xfe004040>
 20053c4:	9011883a 	mov	r8,r18
 20053c8:	8825883a 	mov	r18,r17
 20053cc:	a023883a 	mov	r17,r20
 20053d0:	003e2906 	br	2004c78 <__reset+0xfe003c78>
 20053d4:	002b883a 	mov	r21,zero
 20053d8:	0023883a 	mov	r17,zero
 20053dc:	003f5406 	br	2005130 <__reset+0xfe004130>
 20053e0:	61bfffc4 	addi	r6,r12,-1
 20053e4:	300490fa 	slli	r2,r6,3
 20053e8:	00c08074 	movhi	r3,513
 20053ec:	18c68b04 	addi	r3,r3,6700
 20053f0:	1885883a 	add	r2,r3,r2
 20053f4:	11000017 	ldw	r4,0(r2)
 20053f8:	11400117 	ldw	r5,4(r2)
 20053fc:	d8800717 	ldw	r2,28(sp)
 2005400:	880f883a 	mov	r7,r17
 2005404:	d9801215 	stw	r6,72(sp)
 2005408:	800d883a 	mov	r6,r16
 200540c:	db001615 	stw	r12,88(sp)
 2005410:	15c00044 	addi	r23,r2,1
 2005414:	200016c0 	call	200016c <__muldf3>
 2005418:	d9401017 	ldw	r5,64(sp)
 200541c:	d9000f17 	ldw	r4,60(sp)
 2005420:	d8c01515 	stw	r3,84(sp)
 2005424:	d8801415 	stw	r2,80(sp)
 2005428:	20012d40 	call	20012d4 <__fixdfsi>
 200542c:	1009883a 	mov	r4,r2
 2005430:	1021883a 	mov	r16,r2
 2005434:	200d1b80 	call	200d1b8 <__floatsidf>
 2005438:	d9000f17 	ldw	r4,60(sp)
 200543c:	d9401017 	ldw	r5,64(sp)
 2005440:	100d883a 	mov	r6,r2
 2005444:	180f883a 	mov	r7,r3
 2005448:	20009d80 	call	20009d8 <__subdf3>
 200544c:	1829883a 	mov	r20,r3
 2005450:	d8c00717 	ldw	r3,28(sp)
 2005454:	84000c04 	addi	r16,r16,48
 2005458:	1023883a 	mov	r17,r2
 200545c:	1c000005 	stb	r16,0(r3)
 2005460:	db001617 	ldw	r12,88(sp)
 2005464:	00800044 	movi	r2,1
 2005468:	60802226 	beq	r12,r2,20054f4 <_dtoa_r+0x1424>
 200546c:	d9c00717 	ldw	r7,28(sp)
 2005470:	8805883a 	mov	r2,r17
 2005474:	b82b883a 	mov	r21,r23
 2005478:	3b19883a 	add	r12,r7,r12
 200547c:	6023883a 	mov	r17,r12
 2005480:	a007883a 	mov	r3,r20
 2005484:	dc800f15 	stw	r18,60(sp)
 2005488:	000d883a 	mov	r6,zero
 200548c:	01d00934 	movhi	r7,16420
 2005490:	1009883a 	mov	r4,r2
 2005494:	180b883a 	mov	r5,r3
 2005498:	200016c0 	call	200016c <__muldf3>
 200549c:	180b883a 	mov	r5,r3
 20054a0:	1009883a 	mov	r4,r2
 20054a4:	1829883a 	mov	r20,r3
 20054a8:	1025883a 	mov	r18,r2
 20054ac:	20012d40 	call	20012d4 <__fixdfsi>
 20054b0:	1009883a 	mov	r4,r2
 20054b4:	1021883a 	mov	r16,r2
 20054b8:	200d1b80 	call	200d1b8 <__floatsidf>
 20054bc:	100d883a 	mov	r6,r2
 20054c0:	180f883a 	mov	r7,r3
 20054c4:	9009883a 	mov	r4,r18
 20054c8:	a00b883a 	mov	r5,r20
 20054cc:	84000c04 	addi	r16,r16,48
 20054d0:	20009d80 	call	20009d8 <__subdf3>
 20054d4:	ad400044 	addi	r21,r21,1
 20054d8:	ac3fffc5 	stb	r16,-1(r21)
 20054dc:	ac7fea1e 	bne	r21,r17,2005488 <__reset+0xfe004488>
 20054e0:	1023883a 	mov	r17,r2
 20054e4:	d8801217 	ldw	r2,72(sp)
 20054e8:	dc800f17 	ldw	r18,60(sp)
 20054ec:	1829883a 	mov	r20,r3
 20054f0:	b8af883a 	add	r23,r23,r2
 20054f4:	d9001417 	ldw	r4,80(sp)
 20054f8:	d9401517 	ldw	r5,84(sp)
 20054fc:	000d883a 	mov	r6,zero
 2005500:	01cff834 	movhi	r7,16352
 2005504:	200bce40 	call	200bce4 <__adddf3>
 2005508:	880d883a 	mov	r6,r17
 200550c:	a00f883a 	mov	r7,r20
 2005510:	1009883a 	mov	r4,r2
 2005514:	180b883a 	mov	r5,r3
 2005518:	200d0c40 	call	200d0c4 <__ledf2>
 200551c:	10003e0e 	bge	r2,zero,2005618 <_dtoa_r+0x1548>
 2005520:	d9001317 	ldw	r4,76(sp)
 2005524:	bd3fffc3 	ldbu	r20,-1(r23)
 2005528:	d9000515 	stw	r4,20(sp)
 200552c:	003d3b06 	br	2004a1c <__reset+0xfe003a1c>
 2005530:	0027883a 	mov	r19,zero
 2005534:	003f1b06 	br	20051a4 <__reset+0xfe0041a4>
 2005538:	d8800817 	ldw	r2,32(sp)
 200553c:	11e9c83a 	sub	r20,r2,r7
 2005540:	0005883a 	mov	r2,zero
 2005544:	003d5406 	br	2004a98 <__reset+0xfe003a98>
 2005548:	00800044 	movi	r2,1
 200554c:	003dc706 	br	2004c6c <__reset+0xfe003c6c>
 2005550:	d8c00217 	ldw	r3,8(sp)
 2005554:	00800d84 	movi	r2,54
 2005558:	dd400a17 	ldw	r21,40(sp)
 200555c:	10c5c83a 	sub	r2,r2,r3
 2005560:	dd000817 	ldw	r20,32(sp)
 2005564:	003d4c06 	br	2004a98 <__reset+0xfe003a98>
 2005568:	dc800f15 	stw	r18,60(sp)
 200556c:	dcc01015 	stw	r19,64(sp)
 2005570:	04000084 	movi	r16,2
 2005574:	003bed06 	br	200452c <__reset+0xfe00352c>
 2005578:	d9000617 	ldw	r4,24(sp)
 200557c:	203f0d26 	beq	r4,zero,20051b4 <__reset+0xfe0041b4>
 2005580:	d9800c17 	ldw	r6,48(sp)
 2005584:	01bcab0e 	bge	zero,r6,2004834 <__reset+0xfe003834>
 2005588:	d9401017 	ldw	r5,64(sp)
 200558c:	d9000f17 	ldw	r4,60(sp)
 2005590:	000d883a 	mov	r6,zero
 2005594:	01d00934 	movhi	r7,16420
 2005598:	200016c0 	call	200016c <__muldf3>
 200559c:	81000044 	addi	r4,r16,1
 20055a0:	d8800f15 	stw	r2,60(sp)
 20055a4:	d8c01015 	stw	r3,64(sp)
 20055a8:	200d1b80 	call	200d1b8 <__floatsidf>
 20055ac:	d9800f17 	ldw	r6,60(sp)
 20055b0:	d9c01017 	ldw	r7,64(sp)
 20055b4:	1009883a 	mov	r4,r2
 20055b8:	180b883a 	mov	r5,r3
 20055bc:	200016c0 	call	200016c <__muldf3>
 20055c0:	01d00734 	movhi	r7,16412
 20055c4:	000d883a 	mov	r6,zero
 20055c8:	1009883a 	mov	r4,r2
 20055cc:	180b883a 	mov	r5,r3
 20055d0:	200bce40 	call	200bce4 <__adddf3>
 20055d4:	d9c00517 	ldw	r7,20(sp)
 20055d8:	047f3034 	movhi	r17,64704
 20055dc:	1021883a 	mov	r16,r2
 20055e0:	39ffffc4 	addi	r7,r7,-1
 20055e4:	d9c01315 	stw	r7,76(sp)
 20055e8:	1c63883a 	add	r17,r3,r17
 20055ec:	db000c17 	ldw	r12,48(sp)
 20055f0:	003bea06 	br	200459c <__reset+0xfe00359c>
 20055f4:	dc000915 	stw	r16,36(sp)
 20055f8:	003e0e06 	br	2004e34 <__reset+0xfe003e34>
 20055fc:	01000e44 	movi	r4,57
 2005600:	8825883a 	mov	r18,r17
 2005604:	9dc00044 	addi	r23,r19,1
 2005608:	99000005 	stb	r4,0(r19)
